LX51 LINKER/LOCATER V4.66.41.0                                                          03/26/2019  15:13:05  PAGE 1


LX51 LINKER/LOCATER V4.66.41.0, INVOKED BY:
C:\KEIL_V5\C51\BIN\LX51.EXE .\Output\STARTUP.obj, .\Output\System.obj, .\Output\main.obj, .\Output\adc.obj, .\Output\BK2
>> 421_Initialize.obj, .\Output\curve.obj, .\Output\eeprom.obj, .\Output\motion.obj, .\Output\pid.obj, .\Output\Work.obj
>> , .\Output\PWM.obj, .\Output\UART.obj, .\Output\LT8920.obj TO .\Output\PWM PRINT (.\LST\PWM.map) DISABLEWARNING (16)


CPU MODE:     8051 MODE
MEMORY MODEL: LARGE WITH FLOATING POINT ARITHMETIC


INPUT MODULES INCLUDED:
  .\Output\STARTUP.obj (?C_STARTUP)
         COMMENT TYPE 1: A51 / ASM51 Assembler
  .\Output\System.obj (SYSTEM)
         COMMENT TYPE 0: C51 V9.54
  .\Output\main.obj (MAIN)
         COMMENT TYPE 0: C51 V9.54
  .\Output\adc.obj (ADC)
         COMMENT TYPE 0: C51 V9.54
  .\Output\BK2421_Initialize.obj (BK2421_INITIALIZE)
         COMMENT TYPE 0: C51 V9.54
  .\Output\curve.obj (CURVE)
         COMMENT TYPE 0: C51 V9.54
  .\Output\eeprom.obj (EEPROM)
         COMMENT TYPE 0: C51 V9.54
  .\Output\motion.obj (MOTION)
         COMMENT TYPE 0: C51 V9.54
  .\Output\pid.obj (PID)
         COMMENT TYPE 0: C51 V9.54
  .\Output\Work.obj (WORK)
         COMMENT TYPE 0: C51 V9.54
  .\Output\PWM.obj (PWM)
         COMMENT TYPE 0: C51 V9.54
  .\Output\UART.obj (UART)
         COMMENT TYPE 0: C51 V9.54
  .\Output\LT8920.obj (LT8920)
         COMMENT TYPE 0: C51 V9.54
  C:\KEIL_V5\C51\LIB\C51FPL.LIB (?C?FPADD)
         COMMENT TYPE 1: A51 / ASM51 Assembler
  C:\KEIL_V5\C51\LIB\C51FPL.LIB (?C?FPMUL)
         COMMENT TYPE 1: A51 / ASM51 Assembler
  C:\KEIL_V5\C51\LIB\C51FPL.LIB (?C?FPDIV)
         COMMENT TYPE 1: A51 / ASM51 Assembler
  C:\KEIL_V5\C51\LIB\C51FPL.LIB (?C?FPCMP)
         COMMENT TYPE 1: A51 / ASM51 Assembler
  C:\KEIL_V5\C51\LIB\C51FPL.LIB (?C?FPNEG)
         COMMENT TYPE 1: A51 / ASM51 Assembler
  C:\KEIL_V5\C51\LIB\C51FPL.LIB (?C?FCAST)
         COMMENT TYPE 1: A51 / ASM51 Assembler
  C:\KEIL_V5\C51\LIB\C51FPL.LIB (?C?CASTF)
         COMMENT TYPE 1: A51 / ASM51 Assembler
  C:\KEIL_V5\C51\LIB\C51FPL.LIB (?C?FPGETOPN)
         COMMENT TYPE 1: A51 / ASM51 Assembler
  C:\KEIL_V5\C51\LIB\C51L.LIB (?C_INIT)
         COMMENT TYPE 1: A51 / ASM51 Assembler
  C:\KEIL_V5\C51\LIB\C51L.LIB (?C?COPY)
         COMMENT TYPE 1: A51 / ASM51 Assembler
  C:\KEIL_V5\C51\LIB\C51L.LIB (?C?CLDPTR)
         COMMENT TYPE 1: A51 / ASM51 Assembler
  C:\KEIL_V5\C51\LIB\C51L.LIB (?C?CLDOPTR)
         COMMENT TYPE 1: A51 / ASM51 Assembler
  C:\KEIL_V5\C51\LIB\C51L.LIB (?C?CILDPTR)
         COMMENT TYPE 1: A51 / ASM51 Assembler
  C:\KEIL_V5\C51\LIB\C51L.LIB (?C?CSTPTR)
         COMMENT TYPE 1: A51 / ASM51 Assembler
  C:\KEIL_V5\C51\LIB\C51L.LIB (?C?CSTOPTR)
LX51 LINKER/LOCATER V4.66.41.0                                                        03/26/2019  15:13:05  PAGE 2


         COMMENT TYPE 1: A51 / ASM51 Assembler
  C:\KEIL_V5\C51\LIB\C51L.LIB (?C?IMUL)
         COMMENT TYPE 1: A51 / ASM51 Assembler
  C:\KEIL_V5\C51\LIB\C51L.LIB (?C?SIDIV)
         COMMENT TYPE 1: A51 / ASM51 Assembler
  C:\KEIL_V5\C51\LIB\C51L.LIB (?C?ILDIX)
         COMMENT TYPE 1: A51 / ASM51 Assembler
  C:\KEIL_V5\C51\LIB\C51L.LIB (?C?ILDOPTR)
         COMMENT TYPE 1: A51 / ASM51 Assembler
  C:\KEIL_V5\C51\LIB\C51L.LIB (?C?ISTOPTR)
         COMMENT TYPE 1: A51 / ASM51 Assembler
  C:\KEIL_V5\C51\LIB\C51L.LIB (?C?LMUL)
         COMMENT TYPE 1: A51 / ASM51 Assembler
  C:\KEIL_V5\C51\LIB\C51L.LIB (?C?ULDIV)
         COMMENT TYPE 1: A51 / ASM51 Assembler
  C:\KEIL_V5\C51\LIB\C51L.LIB (?C?SLDIV)
         COMMENT TYPE 1: A51 / ASM51 Assembler
  C:\KEIL_V5\C51\LIB\C51L.LIB (?C?LNEG)
         COMMENT TYPE 1: A51 / ASM51 Assembler
  C:\KEIL_V5\C51\LIB\C51L.LIB (?C?SLCMP)
         COMMENT TYPE 1: A51 / ASM51 Assembler
  C:\KEIL_V5\C51\LIB\C51L.LIB (?C?ULCMP)
         COMMENT TYPE 1: A51 / ASM51 Assembler
  C:\KEIL_V5\C51\LIB\C51L.LIB (?C?ULSHR)
         COMMENT TYPE 1: A51 / ASM51 Assembler
  C:\KEIL_V5\C51\LIB\C51L.LIB (?C?SLSHR)
         COMMENT TYPE 1: A51 / ASM51 Assembler
  C:\KEIL_V5\C51\LIB\C51L.LIB (?C?LSHL)
         COMMENT TYPE 1: A51 / ASM51 Assembler
  C:\KEIL_V5\C51\LIB\C51L.LIB (?C?LLDPTR)
         COMMENT TYPE 1: A51 / ASM51 Assembler
  C:\KEIL_V5\C51\LIB\C51L.LIB (?C?LLDOPTR)
         COMMENT TYPE 1: A51 / ASM51 Assembler
  C:\KEIL_V5\C51\LIB\C51L.LIB (?C?LSTPTR)
         COMMENT TYPE 1: A51 / ASM51 Assembler
  C:\KEIL_V5\C51\LIB\C51L.LIB (?C?LLDCODE)
         COMMENT TYPE 1: A51 / ASM51 Assembler
  C:\KEIL_V5\C51\LIB\C51L.LIB (?C?LLDPTR0)
         COMMENT TYPE 1: A51 / ASM51 Assembler
  C:\KEIL_V5\C51\LIB\C51L.LIB (?C?LSTXDATA)
         COMMENT TYPE 1: A51 / ASM51 Assembler
  C:\KEIL_V5\C51\LIB\C51L.LIB (?C?LSTKXDATA)
         COMMENT TYPE 1: A51 / ASM51 Assembler
  C:\KEIL_V5\C51\LIB\C51L.LIB (?C?LSTKOPTR)
         COMMENT TYPE 1: A51 / ASM51 Assembler
  C:\KEIL_V5\C51\LIB\C51L.LIB (?C?LIMUL)
         COMMENT TYPE 1: A51 / ASM51 Assembler
  C:\KEIL_V5\C51\LIB\C51L.LIB (?C?UIDIV)
         COMMENT TYPE 1: A51 / ASM51 Assembler
  C:\KEIL_V5\C51\LIB\C51L.LIB (?C?LLDIDATA)
         COMMENT TYPE 1: A51 / ASM51 Assembler
  C:\KEIL_V5\C51\LIB\C51L.LIB (?C?LLDXDATA)
         COMMENT TYPE 1: A51 / ASM51 Assembler
  C:\KEIL_V5\C51\LIB\C51L.LIB (?C?LLDPDATA)
         COMMENT TYPE 1: A51 / ASM51 Assembler
  C:\KEIL_V5\C51\LIB\C51L.LIB (?C?LLDIDATA0)
         COMMENT TYPE 1: A51 / ASM51 Assembler
  C:\KEIL_V5\C51\LIB\C51L.LIB (?C?LLDXDATA0)
         COMMENT TYPE 1: A51 / ASM51 Assembler
  C:\KEIL_V5\C51\LIB\C51L.LIB (?C?LLDPDATA0)
         COMMENT TYPE 1: A51 / ASM51 Assembler
  C:\KEIL_V5\C51\LIB\C51L.LIB (?C?LLDCODE0)
         COMMENT TYPE 1: A51 / ASM51 Assembler
  C:\KEIL_V5\C51\LIB\C51L.LIB (?C?LSTIDATA)
         COMMENT TYPE 1: A51 / ASM51 Assembler
LX51 LINKER/LOCATER V4.66.41.0                                                        03/26/2019  15:13:05  PAGE 3


  C:\KEIL_V5\C51\LIB\C51L.LIB (?C?LSTPDATA)
         COMMENT TYPE 1: A51 / ASM51 Assembler
  C:\KEIL_V5\C51\LIB\C51L.LIB (?C?LSTKIDATA)
         COMMENT TYPE 1: A51 / ASM51 Assembler
  C:\KEIL_V5\C51\LIB\C51L.LIB (?C?LSTKPDATA)
         COMMENT TYPE 1: A51 / ASM51 Assembler


ACTIVE MEMORY CLASSES OF MODULE:  .\Output\PWM (?C_STARTUP)

BASE        START       END         USED      MEMORY CLASS
==========================================================
C:000000H   C:000000H   C:00FFFFH   0040F4H   CODE
I:000000H   I:000000H   I:0000FFH   000001H   IDATA
X:000000H   X:000000H   X:00FFFFH   00026FH   XDATA
I:000020H.0 I:000020H.0 I:00002FH.7 000002H.0 BIT
C:000000H   C:000000H   C:00FFFFH   00007BH   CONST
I:000000H   I:000000H   I:00007FH   000008H   DATA


MEMORY MAP OF MODULE:  .\Output\PWM (?C_STARTUP)


START     STOP      LENGTH    ALIGN  RELOC    MEMORY CLASS   SEGMENT NAME
=========================================================================

* * * * * * * * * * *   D A T A   M E M O R Y   * * * * * * * * * * * * *
000000H   000007H   000008H   ---    AT..     DATA           "REG BANK 0"
000008H.0 00001FH.7 000018H.0 ---    ---      **GAP**
000020H.0 000021H.2 000001H.3 BIT    UNIT     BIT            ?BI?WORK
000021H.3 000021H.4 000000H.2 BIT    UNIT     BIT            ?BI?BK2421_INITIALIZE
000021H.5 000021H.5 000000H.1 BIT    UNIT     BIT            ?BI?SYSTEM
000021H.6 000021H.6 000000H.1 BIT    UNIT     BIT            ?BI?ADC
000021H.7 000021H.7 000000H.1 BIT    UNIT     BIT            _BIT_GROUP_
000022H   000022H   000001H   BYTE   UNIT     IDATA          ?STACK

* * * * * * * * * * *   C O D E   M E M O R Y   * * * * * * * * * * * * *
000000H   000002H   000003H   ---    OFFS..   CODE           ?CO??C_STARTUP?0
000003H   000003H   000001H   BYTE   UNIT     CODE           ?PR?PWM_ENABLE?SYSTEM
000004H   000006H   000003H   BYTE   UNIT     CODE           ?PR?PWM_DISABLE?SYSTEM
000007H   000009H   000003H   BYTE   UNIT     CODE           ?PR?PWM_DISABLE?MAIN
00000AH   00000AH   000001H   BYTE   UNIT     CODE           ?PR?EXT1_ISR?SYSTEM
00000BH   00000DH   000003H   BYTE   OFFS..   CODE           ?SYSTEM?0000B
00000EH   000010H   000003H   BYTE   UNIT     CODE           ?PR?TIMER2_ISR?SYSTEM
000011H   000011H   000001H   BYTE   UNIT     CODE           ?PR?PWM_ENABLE?MAIN
000012H   000012H   000001H   BYTE   UNIT     CODE           ?PR?PWM_ENABLE?ADC
000013H   000014H   000002H   BYTE   OFFS..   CODE           ?SYSTEM?00013
000015H   000017H   000003H   BYTE   UNIT     CODE           ?PR?PWM_DISABLE?ADC
000018H   000018H   000001H   BYTE   UNIT     CODE           ?PR?PWM_ENABLE?BK2421_INITIALIZE
000019H   000019H   000001H   BYTE   UNIT     CODE           ?PR?PWM_ENABLE?CURVE
00001AH   00001AH   000001H   BYTE   UNIT     CODE           ?PR?PWM_ENABLE?EEPROM
00001BH   00001DH   000003H   BYTE   OFFS..   CODE           ?SYSTEM?0001B
00001EH   000025H   000008H   BYTE   UNIT     CODE           ?PR?ADC_GO?ADC
000026H   000028H   000003H   BYTE   UNIT     CODE           ?PR?PWM_DISABLE?BK2421_INITIALIZE
000029H   000029H   000001H   BYTE   UNIT     CODE           ?PR?PWM_ENABLE?MOTION
00002AH   00002AH   000001H   BYTE   UNIT     CODE           ?PR?PWM_ENABLE?PID
00002BH   00002CH   000002H   BYTE   OFFS..   CODE           ?SYSTEM?0002B
00002DH   000054H   000028H   BYTE   UNIT     CODE           ?PR?MOTION_TIME_LEFT?SYSTEM
000055H   000057H   000003H   BYTE   UNIT     CODE           ?PR?PWM_DISABLE?CURVE
000058H   00005AH   000003H   BYTE   UNIT     CODE           ?PR?PWM_DISABLE?EEPROM
00005BH   00005DH   000003H   BYTE   OFFS..   CODE           ?ADC?0005B
00005EH   000A46H   0009E9H   BYTE   UNIT     CODE           ?C?LIB_CODE
000A47H   000B5FH   000119H   BYTE   UNIT     CODE           ?C_INITSEG
000B60H   000BF9H   00009AH   BYTE   UNIT     CODE           ?C_C51STARTUP
000BFAH   000C3DH   000044H   BYTE   UNIT     CODE           ?C?LDIV
LX51 LINKER/LOCATER V4.66.41.0                                                        03/26/2019  15:13:05  PAGE 4


000C3EH   000CB8H   00007BH   BYTE   UNIT     CONST          ?CO?BK2421_INITIALIZE
000CB9H   000CCEH   000016H   BYTE   UNIT     CODE           ?PR?PWM_STOP?PWM
000CCFH   000E0DH   00013FH   BYTE   UNIT     CODE           ?PR?_PWM_UPDATE?PWM
000E0EH   000FECH   0001DFH   BYTE   UNIT     CODE           ?PR?MAIN?MAIN
000FEDH   000FF5H   000009H   BYTE   UNIT     CODE           ?PR?CURVE_GET_T0?SYSTEM
000FF6H   000FFEH   000009H   BYTE   UNIT     CODE           ?PR?CURVE_GET_T1?SYSTEM
000FFFH   001007H   000009H   BYTE   UNIT     CODE           ?PR?CURVE_GET_DURATION?SYSTEM
001008H   001016H   00000FH   BYTE   UNIT     CODE           ?PR?CURVE_GET_P0?SYSTEM
001017H   001025H   00000FH   BYTE   UNIT     CODE           ?PR?CURVE_GET_P1?SYSTEM
001026H   001034H   00000FH   BYTE   UNIT     CODE           ?PR?CURVE_GET_V0?SYSTEM
001035H   001043H   00000FH   BYTE   UNIT     CODE           ?PR?CURVE_GET_V1?SYSTEM
001044H   001077H   000034H   BYTE   UNIT     CODE           ?PR?SYSTICK_HANDLER2?SYSTEM
001078H   0010E3H   00006CH   BYTE   UNIT     CODE           ?PR?SYSTICK_HANDLER?SYSTEM
0010E4H   00110EH   00002BH   BYTE   UNIT     CODE           ?PR?TIMER0_ISR?SYSTEM
00110FH   00111CH   00000EH   BYTE   UNIT     CODE           ?PR?SYSTIMER_PROCESS?SYSTEM
00111DH   0012B2H   000196H   BYTE   UNIT     CODE           ?PR?RF_STAK?LT8920
0012B3H   001310H   00005EH   BYTE   UNIT     CODE           ?PR?_SPI_WRITEREG?LT8920
001311H   001406H   0000F6H   BYTE   UNIT     CODE           ?PR?LT8900_INIT?LT8920
001407H   00146BH   000065H   BYTE   UNIT     CODE           ?PR?_SPI_READREG?LT8920
00146CH   00149AH   00002FH   BYTE   UNIT     CODE           ?PR?INITSYSTEM?SYSTEM
00149BH   0016ABH   000211H   BYTE   UNIT     CODE           ?PR?BK2421_INITIALIZE?BK2421_INITIALIZE
0016ACH   0016BBH   000010H   BYTE   UNIT     CODE           ?PR?_SPI_READ_REG?BK2421_INITIALIZE
0016BCH   0016F7H   00003CH   BYTE   UNIT     CODE           ?PR?_SPI_WRITE_BUF?BK2421_INITIALIZE
0016F8H   001707H   000010H   BYTE   UNIT     CODE           ?PR?_SPI_WRITE_REG?BK2421_INITIALIZE
001708H   001729H   000022H   BYTE   UNIT     CODE           ?PR?_SPI_RW?BK2421_INITIALIZE
00172AH   00174BH   000022H   BYTE   UNIT     CODE           ?PR?SWITCHTORXMODE?BK2421_INITIALIZE
00174CH   001767H   00001CH   BYTE   UNIT     CODE           ?PR?_SWITCHCFG?BK2421_INITIALIZE
001768H   00177FH   000018H   BYTE   UNIT     CODE           ?PR?SWITCHTOTXMODE?BK2421_INITIALIZE
001780H   001798H   000019H   BYTE   UNIT     CODE           ?PR?_DELAYMS?BK2421_INITIALIZE
001799H   0017C1H   000029H   BYTE   UNIT     CODE           ?PR?WORK_HOP?BK2421_INITIALIZE
0017C2H   0017C7H   000006H   BYTE   UNIT     CODE           ?PR?_SETCHANNELNUM?BK2421_INITIALIZE
0017C8H   0017D0H   000009H   BYTE   UNIT     CODE           ?PR?PID_INIT?PID
0017D1H   0017E4H   000014H   BYTE   UNIT     CODE           ?PR?ADC_INIT?ADC
0017E5H   0017FAH   000016H   BYTE   UNIT     CODE           ?PR?TIMER0INIT?SYSTEM
0017FBH   001868H   00006EH   BYTE   UNIT     CODE           ?PR?TIMER1INIT?SYSTEM
001869H   001A59H   0001F1H   BYTE   UNIT     CODE           ?PR?TIMER1_ISR?SYSTEM
001A5AH   001A77H   00001EH   BYTE   UNIT     CODE           ?PR?INIT_IO?SYSTEM
001A78H   001A9FH   000028H   BYTE   UNIT     CODE           ?PR?MOTION_TIME_LEFT?MAIN
001AA0H   001AA8H   000009H   BYTE   UNIT     CODE           ?PR?CURVE_GET_T0?MAIN
001AA9H   001AB1H   000009H   BYTE   UNIT     CODE           ?PR?CURVE_GET_T1?MAIN
001AB2H   001ABAH   000009H   BYTE   UNIT     CODE           ?PR?CURVE_GET_DURATION?MAIN
001ABBH   001AC9H   00000FH   BYTE   UNIT     CODE           ?PR?CURVE_GET_P0?MAIN
001ACAH   001AD8H   00000FH   BYTE   UNIT     CODE           ?PR?CURVE_GET_P1?MAIN
001AD9H   001AE7H   00000FH   BYTE   UNIT     CODE           ?PR?CURVE_GET_V0?MAIN
001AE8H   001AF6H   00000FH   BYTE   UNIT     CODE           ?PR?CURVE_GET_V1?MAIN
001AF7H   001B1EH   000028H   BYTE   UNIT     CODE           ?PR?MOTION_TIME_LEFT?ADC
001B1FH   001B27H   000009H   BYTE   UNIT     CODE           ?PR?CURVE_GET_T0?ADC
001B28H   001B30H   000009H   BYTE   UNIT     CODE           ?PR?CURVE_GET_T1?ADC
001B31H   001B39H   000009H   BYTE   UNIT     CODE           ?PR?CURVE_GET_DURATION?ADC
001B3AH   001B48H   00000FH   BYTE   UNIT     CODE           ?PR?CURVE_GET_P0?ADC
001B49H   001B57H   00000FH   BYTE   UNIT     CODE           ?PR?CURVE_GET_P1?ADC
001B58H   001B66H   00000FH   BYTE   UNIT     CODE           ?PR?CURVE_GET_V0?ADC
001B67H   001B75H   00000FH   BYTE   UNIT     CODE           ?PR?CURVE_GET_V1?ADC
001B76H   001BD6H   000061H   BYTE   UNIT     CODE           ?PR?_INIT_FILTER?ADC
001BD7H   001D5EH   000188H   BYTE   UNIT     CODE           ?PR?_FILTER?ADC
001D5FH   001ECAH   00016CH   BYTE   UNIT     CODE           ?PR?ADC_ISR?ADC
001ECBH   001EF2H   000028H   BYTE   UNIT     CODE           ?PR?MOTION_TIME_LEFT?BK2421_INITIALIZE
001EF3H   001EFBH   000009H   BYTE   UNIT     CODE           ?PR?CURVE_GET_T0?BK2421_INITIALIZE
001EFCH   001F04H   000009H   BYTE   UNIT     CODE           ?PR?CURVE_GET_T1?BK2421_INITIALIZE
001F05H   001F0DH   000009H   BYTE   UNIT     CODE           ?PR?CURVE_GET_DURATION?BK2421_INITIALIZE
001F0EH   001F1CH   00000FH   BYTE   UNIT     CODE           ?PR?CURVE_GET_P0?BK2421_INITIALIZE
001F1DH   001F2BH   00000FH   BYTE   UNIT     CODE           ?PR?CURVE_GET_P1?BK2421_INITIALIZE
001F2CH   001F3AH   00000FH   BYTE   UNIT     CODE           ?PR?CURVE_GET_V0?BK2421_INITIALIZE
001F3BH   001F49H   00000FH   BYTE   UNIT     CODE           ?PR?CURVE_GET_V1?BK2421_INITIALIZE
001F4AH   001F89H   000040H   BYTE   UNIT     CODE           ?PR?_SPI_READ_BUF?BK2421_INITIALIZE
LX51 LINKER/LOCATER V4.66.41.0                                                        03/26/2019  15:13:05  PAGE 5


001F8AH   002006H   00007DH   BYTE   UNIT     CODE           ?PR?_LOAD_RF_DATE?BK2421_INITIALIZE
002007H   002135H   00012FH   BYTE   UNIT     CODE           ?PR?RECEIVE_PACKET?BK2421_INITIALIZE
002136H   002187H   000052H   BYTE   UNIT     CODE           ?PR?WRITEEEPROM?WORK
002188H   0021E0H   000059H   BYTE   UNIT     CODE           ?PR?_WRITEROM?EEPROM
0021E1H   0021FCH   00001CH   BYTE   UNIT     CODE           ?PR?_ERASE?EEPROM
0021FDH   00220FH   000013H   BYTE   UNIT     CODE           ?PR?ISP_DIS?EEPROM
002210H   00222BH   00001CH   BYTE   UNIT     CODE           ?PR?PARAMETERRESET?WORK
00222CH   00229DH   000072H   BYTE   UNIT     CODE           ?PR?_READROM?EEPROM
00229EH   0022BCH   00001FH   BYTE   UNIT     CODE           ?PR?_WRITE_ISP?EEPROM
0022BDH   0022E6H   00002AH   BYTE   UNIT     CODE           ?PR?_WRITEDATA_ISP?EEPROM
0022E7H   0022F9H   000013H   BYTE   UNIT     CODE           ?PR?ISP_OPEN?EEPROM
0022FAH   00231BH   000022H   BYTE   UNIT     CODE           ?PR?_READDATA_ISP?EEPROM
00231CH   002323H   000008H   BYTE   UNIT     CODE           ?PR?_READ_APROM_BYTE?EEPROM
002324H   002345H   000022H   BYTE   UNIT     CODE           ?PR?EEPROM_RESTORE_REGISTERS?EEPROM
002346H   0023A1H   00005CH   BYTE   UNIT     CODE           ?PR?READEEPROM?WORK
0023A2H   0023AAH   000009H   BYTE   UNIT     CODE           ?PR?EEPROM_ERASE?EEPROM
0023ABH   0023CAH   000020H   BYTE   UNIT     CODE           ?PR?EEPROM_SAVE_REGISTERS?EEPROM
0023CBH   002426H   00005CH   BYTE   UNIT     CODE           ?PR?_EEPROM_WRITE_BLOCK?EEPROM
002427H   002482H   00005CH   BYTE   UNIT     CODE           ?PR?_EEPROM_READ_BLOCK?EEPROM
002483H   0024AAH   000028H   BYTE   UNIT     CODE           ?PR?MOTION_TIME_LEFT?CURVE
0024ABH   0024B3H   000009H   BYTE   UNIT     CODE           ?PR?CURVE_GET_T0?CURVE
0024B4H   0024BCH   000009H   BYTE   UNIT     CODE           ?PR?CURVE_GET_T1?CURVE
0024BDH   0024C5H   000009H   BYTE   UNIT     CODE           ?PR?CURVE_GET_DURATION?CURVE
0024C6H   0024D4H   00000FH   BYTE   UNIT     CODE           ?PR?CURVE_GET_P0?CURVE
0024D5H   0024E3H   00000FH   BYTE   UNIT     CODE           ?PR?CURVE_GET_P1?CURVE
0024E4H   0024F2H   00000FH   BYTE   UNIT     CODE           ?PR?CURVE_GET_V0?CURVE
0024F3H   002501H   00000FH   BYTE   UNIT     CODE           ?PR?CURVE_GET_V1?CURVE
002502H   0026E5H   0001E4H   BYTE   UNIT     CODE           ?PR?_CURVE_INIT?CURVE
0026E6H   00276BH   000086H   BYTE   UNIT     CODE           ?PR?_MOTION_RESET?MOTION
00276CH   00278BH   000020H   BYTE   UNIT     CODE           ?PR?MOTION_REGISTERS_RESET?MOTION
00278CH   002793H   000008H   BYTE   UNIT     CODE           ?PR?_INT_TO_FLOAT?MOTION
002794H   002A34H   0002A1H   BYTE   UNIT     CODE           ?PR?_CURVE_SOLVE?CURVE
002A35H   002A5CH   000028H   BYTE   UNIT     CODE           ?PR?MOTION_TIME_LEFT?EEPROM
002A5DH   002A65H   000009H   BYTE   UNIT     CODE           ?PR?CURVE_GET_T0?EEPROM
002A66H   002A6EH   000009H   BYTE   UNIT     CODE           ?PR?CURVE_GET_T1?EEPROM
002A6FH   002A77H   000009H   BYTE   UNIT     CODE           ?PR?CURVE_GET_DURATION?EEPROM
002A78H   002A86H   00000FH   BYTE   UNIT     CODE           ?PR?CURVE_GET_P0?EEPROM
002A87H   002A95H   00000FH   BYTE   UNIT     CODE           ?PR?CURVE_GET_P1?EEPROM
002A96H   002AA4H   00000FH   BYTE   UNIT     CODE           ?PR?CURVE_GET_V0?EEPROM
002AA5H   002AB3H   00000FH   BYTE   UNIT     CODE           ?PR?CURVE_GET_V1?EEPROM
002AB4H   002AD5H   000022H   BYTE   UNIT     CODE           ?PR?_EEPROM_CHECKSUM?EEPROM
002AD6H   002AFDH   000028H   BYTE   UNIT     CODE           ?PR?MOTION_TIME_LEFT?MOTION
002AFEH   002B00H   000003H   BYTE   UNIT     CODE           ?PR?PWM_DISABLE?MOTION
002B01H   002B09H   000009H   BYTE   UNIT     CODE           ?PR?CURVE_GET_T0?MOTION
002B0AH   002B12H   000009H   BYTE   UNIT     CODE           ?PR?CURVE_GET_T1?MOTION
002B13H   002B1BH   000009H   BYTE   UNIT     CODE           ?PR?CURVE_GET_DURATION?MOTION
002B1CH   002DD2H   0002B7H   BYTE   UNIT     CODE           ?PR?_MOTION_NEXT?MOTION
002DD3H   002DF2H   000020H   BYTE   UNIT     CODE           ?PR?_FLOAT_TO_INT?MOTION
002DF3H   002E01H   00000FH   BYTE   UNIT     CODE           ?PR?CURVE_GET_P0?MOTION
002E02H   002E10H   00000FH   BYTE   UNIT     CODE           ?PR?CURVE_GET_P1?MOTION
002E11H   002F67H   000157H   BYTE   UNIT     CODE           ?PR?MOTION_APPEND?MOTION
002F68H   002F79H   000012H   BYTE   UNIT     CODE           ?PR?_FIXED_TO_FLOAT?MOTION
002F7AH   002F88H   00000FH   BYTE   UNIT     CODE           ?PR?CURVE_GET_V0?MOTION
002F89H   002F97H   00000FH   BYTE   UNIT     CODE           ?PR?CURVE_GET_V1?MOTION
002F98H   0030FAH   000163H   BYTE   UNIT     CODE           ?PR?MOTION_INIT?MOTION
0030FBH   003122H   000028H   BYTE   UNIT     CODE           ?PR?MOTION_BUFFER_LEFT?MOTION
003123H   00314AH   000028H   BYTE   UNIT     CODE           ?PR?MOTION_TIME_LEFT?PID
00314BH   00314DH   000003H   BYTE   UNIT     CODE           ?PR?PWM_DISABLE?PID
00314EH   003156H   000009H   BYTE   UNIT     CODE           ?PR?CURVE_GET_T0?PID
003157H   00315FH   000009H   BYTE   UNIT     CODE           ?PR?CURVE_GET_T1?PID
003160H   003168H   000009H   BYTE   UNIT     CODE           ?PR?CURVE_GET_DURATION?PID
003169H   003177H   00000FH   BYTE   UNIT     CODE           ?PR?CURVE_GET_P0?PID
003178H   003186H   00000FH   BYTE   UNIT     CODE           ?PR?CURVE_GET_P1?PID
003187H   003195H   00000FH   BYTE   UNIT     CODE           ?PR?CURVE_GET_V0?PID
003196H   0031A4H   00000FH   BYTE   UNIT     CODE           ?PR?CURVE_GET_V1?PID
LX51 LINKER/LOCATER V4.66.41.0                                                        03/26/2019  15:13:05  PAGE 6


0031A5H   0031A5H   000001H   BYTE   UNIT     CODE           ?PR?_FILTER_UPDATE?PID
0031A6H   0035DEH   000439H   BYTE   UNIT     CODE           ?PR?_PID_POSITION_TO_PWM?PID
0035DFH   00360AH   00002CH   BYTE   UNIT     CODE           ?PR?PID_REGISTERS_DEFAULTS?PID
00360BH   003632H   000028H   BYTE   UNIT     CODE           ?PR?MOTION_TIME_LEFT?WORK
003633H   003633H   000001H   BYTE   UNIT     CODE           ?PR?PWM_ENABLE?WORK
003634H   003636H   000003H   BYTE   UNIT     CODE           ?PR?PWM_DISABLE?WORK
003637H   00363FH   000009H   BYTE   UNIT     CODE           ?PR?CURVE_GET_T0?WORK
003640H   003648H   000009H   BYTE   UNIT     CODE           ?PR?CURVE_GET_T1?WORK
003649H   003651H   000009H   BYTE   UNIT     CODE           ?PR?CURVE_GET_DURATION?WORK
003652H   003660H   00000FH   BYTE   UNIT     CODE           ?PR?CURVE_GET_P0?WORK
003661H   00366FH   00000FH   BYTE   UNIT     CODE           ?PR?CURVE_GET_P1?WORK
003670H   00367EH   00000FH   BYTE   UNIT     CODE           ?PR?CURVE_GET_V0?WORK
00367FH   00368DH   00000FH   BYTE   UNIT     CODE           ?PR?CURVE_GET_V1?WORK
00368EH   0036BAH   00002DH   BYTE   UNIT     CODE           ?PR?PWM_INIT?WORK
0036BBH   0037B0H   0000F6H   BYTE   UNIT     CODE           ?PR?_QIANJIN?WORK
0037B1H   003AA0H   0002F0H   BYTE   UNIT     CODE           ?PR?FORWARD_PWM_DIR?WORK
003AA1H   003B79H   0000D9H   BYTE   UNIT     CODE           ?PR?LED_CONTROL?WORK
003B7AH   003BC5H   00004CH   BYTE   UNIT     CODE           ?PR?_DOWN_BEEP?WORK
003BC6H   003CF6H   000131H   BYTE   UNIT     CODE           ?PR?_BEEP_CONTROL?WORK
003CF7H   003D44H   00004EH   BYTE   UNIT     CODE           ?PR?_UP_BEEP?WORK
003D45H   003D71H   00002DH   BYTE   UNIT     CODE           ?PR?_UP2_BEEP?WORK
003D72H   003D97H   000026H   BYTE   UNIT     CODE           ?PR?TEXT_VOLTAGE?WORK
003D98H   003DFAH   000063H   BYTE   UNIT     CODE           ?PR?TEXT_CURRENT?WORK
003DFBH   003E10H   000016H   BYTE   UNIT     CODE           ?PR?_SEND_WORD_TO_UART1?UART
003E11H   003E38H   000028H   BYTE   UNIT     CODE           ?PR?MOTION_TIME_LEFT?PWM
003E39H   003E39H   000001H   BYTE   UNIT     CODE           ?PR?PWM_ENABLE?PWM
003E3AH   003E3CH   000003H   BYTE   UNIT     CODE           ?PR?PWM_DISABLE?PWM
003E3DH   003E45H   000009H   BYTE   UNIT     CODE           ?PR?CURVE_GET_T0?PWM
003E46H   003E4EH   000009H   BYTE   UNIT     CODE           ?PR?CURVE_GET_T1?PWM
003E4FH   003E57H   000009H   BYTE   UNIT     CODE           ?PR?CURVE_GET_DURATION?PWM
003E58H   003E66H   00000FH   BYTE   UNIT     CODE           ?PR?CURVE_GET_P0?PWM
003E67H   003E75H   00000FH   BYTE   UNIT     CODE           ?PR?CURVE_GET_P1?PWM
003E76H   003E84H   00000FH   BYTE   UNIT     CODE           ?PR?CURVE_GET_V0?PWM
003E85H   003E93H   00000FH   BYTE   UNIT     CODE           ?PR?CURVE_GET_V1?PWM
003E94H   003EA6H   000013H   BYTE   UNIT     CODE           ?PR?_DELAY_LOOP?PWM
003EA7H   003EFDH   000057H   BYTE   UNIT     CODE           ?PR?_PWM_DIR_A?PWM
003EFEH   003F56H   000059H   BYTE   UNIT     CODE           ?PR?_PWM_DIR_B?PWM
003F57H   003F7EH   000028H   BYTE   UNIT     CODE           ?PR?MOTION_TIME_LEFT?UART
003F7FH   003F7FH   000001H   BYTE   UNIT     CODE           ?PR?PWM_ENABLE?UART
003F80H   003F82H   000003H   BYTE   UNIT     CODE           ?PR?PWM_DISABLE?UART
003F83H   003F8BH   000009H   BYTE   UNIT     CODE           ?PR?CURVE_GET_T0?UART
003F8CH   003F94H   000009H   BYTE   UNIT     CODE           ?PR?CURVE_GET_T1?UART
003F95H   003F9DH   000009H   BYTE   UNIT     CODE           ?PR?CURVE_GET_DURATION?UART
003F9EH   003FACH   00000FH   BYTE   UNIT     CODE           ?PR?CURVE_GET_P0?UART
003FADH   003FBBH   00000FH   BYTE   UNIT     CODE           ?PR?CURVE_GET_P1?UART
003FBCH   003FCAH   00000FH   BYTE   UNIT     CODE           ?PR?CURVE_GET_V0?UART
003FCBH   003FD9H   00000FH   BYTE   UNIT     CODE           ?PR?CURVE_GET_V1?UART
003FDAH   004056H   00007DH   BYTE   UNIT     CODE           ?PR?_INITIALUART0_TIMER3?UART
004057H   00405EH   000008H   BYTE   UNIT     CODE           ?PR?RECEIVE_DATA_FROM_UART0?UART
00405FH   004066H   000008H   BYTE   UNIT     CODE           ?PR?_SEND_DATA_TO_UART0?UART
004067H   00407CH   000016H   BYTE   UNIT     CODE           ?PR?_SEND_WORD_TO_UART0?UART
00407DH   0040E3H   000067H   BYTE   UNIT     CODE           ?PR?_INITIALUART1_TIMER3?UART
0040E4H   0040EBH   000008H   BYTE   UNIT     CODE           ?PR?_SEND_DATA_TO_UART1?UART
0040ECH   004113H   000028H   BYTE   UNIT     CODE           ?PR?MOTION_TIME_LEFT?LT8920
004114H   004114H   000001H   BYTE   UNIT     CODE           ?PR?PWM_ENABLE?LT8920
004115H   004117H   000003H   BYTE   UNIT     CODE           ?PR?PWM_DISABLE?LT8920
004118H   004120H   000009H   BYTE   UNIT     CODE           ?PR?CURVE_GET_T0?LT8920
004121H   004129H   000009H   BYTE   UNIT     CODE           ?PR?CURVE_GET_T1?LT8920
00412AH   004132H   000009H   BYTE   UNIT     CODE           ?PR?CURVE_GET_DURATION?LT8920
004133H   004141H   00000FH   BYTE   UNIT     CODE           ?PR?CURVE_GET_P0?LT8920
004142H   004150H   00000FH   BYTE   UNIT     CODE           ?PR?CURVE_GET_P1?LT8920
004151H   00415FH   00000FH   BYTE   UNIT     CODE           ?PR?CURVE_GET_V0?LT8920
004160H   00416EH   00000FH   BYTE   UNIT     CODE           ?PR?CURVE_GET_V1?LT8920

* * * * * * * * * * *  X D A T A   M E M O R Y  * * * * * * * * * * * * *
LX51 LINKER/LOCATER V4.66.41.0                                                        03/26/2019  15:13:05  PAGE 7


000000H   000096H   000097H   BYTE   UNIT     XDATA          ?XD?ADC
000097H   000119H   000083H   BYTE   UNIT     XDATA          ?XD?MOTION
00011AH   00014EH   000035H   BYTE   UNIT     XDATA          ?XD?WORK
00014FH   000182H   000034H   BYTE   UNIT     XDATA          ?XD?CURVE
000183H   0001B5H   000033H   BYTE   UNIT     XDATA          ?XD?BK2421_INITIALIZE
0001B6H   0001E2H   00002DH   BYTE   UNIT     XDATA          ?XD?PID
0001E3H   00020BH   000029H   BYTE   UNIT     XDATA          _XDATA_GROUP_
00020CH   00022EH   000023H   BYTE   UNIT     XDATA          ?XD?LT8920
00022FH   000244H   000016H   BYTE   UNIT     XDATA          ?XD?SYSTEM
000245H   00024EH   00000AH   BYTE   UNIT     XDATA          ?XD?MAIN
00024FH   000255H   000007H   BYTE   UNIT     XDATA          ?XD?_EEPROM_READ_BLOCK?EEPROM
000256H   00025CH   000007H   BYTE   UNIT     XDATA          ?XD?_EEPROM_WRITE_BLOCK?EEPROM
00025DH   000262H   000006H   BYTE   UNIT     XDATA          ?XD?_EEPROM_CHECKSUM?EEPROM
000263H   000266H   000004H   BYTE   UNIT     XDATA          ?XD?PWM
000267H   00026AH   000004H   BYTE   UNIT     XDATA          ?XD?_INITIALUART0_TIMER3?UART
00026BH   00026CH   000002H   BYTE   UNIT     XDATA          ?XD?EEPROM_RESTORE_REGISTERS?EEPROM
00026DH   00026EH   000002H   BYTE   UNIT     XDATA          ?XD?EEPROM_SAVE_REGISTERS?EEPROM



OVERLAY MAP OF MODULE:   .\Output\PWM (?C_STARTUP)


FUNCTION/MODULE                            BIT_GROUP   XDATA_GROUP
--> CALLED FUNCTION/MODULE                START  STOP  START  STOP
==================================================================
?C_C51STARTUP                             ----- -----  ----- -----
  +--> MAIN/MAIN
  +--> ?C_INITSEG

MAIN/MAIN                                 ----- -----  01E3H 01E8H
  +--> INITSYSTEM/SYSTEM
  +--> _BEEP_CONTROL/WORK
  +--> ADC_GO/ADC
  +--> _MOTION_RESET/MOTION
  +--> SYSTIMER_PROCESS/SYSTEM
  +--> RECEIVE_PACKET/BK2421_INITIALIZE
  +--> _MOTION_NEXT/MOTION
  +--> _PID_POSITION_TO_PWM/PID
  +--> _PWM_UPDATE/PWM
  +--> FORWARD_PWM_DIR/WORK
  +--> TEXT_VOLTAGE/WORK
  +--> TEXT_CURRENT/WORK
  +--> LED_CONTROL/WORK
  +--> MOTION_TIME_LEFT/MAIN
  +--> MOTION_APPEND/MOTION

INITSYSTEM/SYSTEM                         ----- -----  ----- -----
  +--> INIT_IO/SYSTEM
  +--> TIMER0INIT/SYSTEM
  +--> TIMER1INIT/SYSTEM
  +--> RF_STAK/LT8920
  +--> ADC_INIT/ADC
  +--> _INIT_FILTER/ADC
  +--> PID_INIT/PID
  +--> MOTION_INIT/MOTION
  +--> PID_REGISTERS_DEFAULTS/PID
  +--> _INITIALUART1_TIMER3/UART
  +--> READEEPROM/WORK
  +--> PWM_INIT/WORK
  +--> BK2421_INITIALIZE/BK2421_INITIALIZE

INIT_IO/SYSTEM                            ----- -----  ----- -----

TIMER0INIT/SYSTEM                         ----- -----  ----- -----
LX51 LINKER/LOCATER V4.66.41.0                                                        03/26/2019  15:13:05  PAGE 8



TIMER1INIT/SYSTEM                         ----- -----  ----- -----

RF_STAK/LT8920                            21H.7 21H.7  01E9H 01EAH
  +--> _SPI_READREG/LT8920
  +--> SYSTIMER_PROCESS/SYSTEM
  +--> _SPI_WRITEREG/LT8920

_SPI_READREG/LT8920                       ----- -----  ----- -----

SYSTIMER_PROCESS/SYSTEM                   ----- -----  ----- -----

_SPI_WRITEREG/LT8920                      ----- -----  01EBH 01EBH

ADC_INIT/ADC                              ----- -----  ----- -----

_INIT_FILTER/ADC                          ----- -----  01E9H 01EBH

PID_INIT/PID                              ----- -----  ----- -----

MOTION_INIT/MOTION                        ----- -----  ----- -----
  +--> _CURVE_INIT/CURVE
  +--> MOTION_REGISTERS_RESET/MOTION

_CURVE_INIT/CURVE                         ----- -----  01EFH 0202H

MOTION_REGISTERS_RESET/MOTION             ----- -----  ----- -----

PID_REGISTERS_DEFAULTS/PID                ----- -----  ----- -----

_INITIALUART1_TIMER3/UART                 ----- -----  01E9H 01ECH

READEEPROM/WORK                           ----- -----  ----- -----
  +--> _READROM/EEPROM
  +--> PARAMETERRESET/WORK

_READROM/EEPROM                           ----- -----  01E9H 01EEH
  +--> _READDATA_ISP/EEPROM

_READDATA_ISP/EEPROM                      ----- -----  ----- -----
  +--> _READ_APROM_BYTE/EEPROM

_READ_APROM_BYTE/EEPROM                   ----- -----  ----- -----

PARAMETERRESET/WORK                       ----- -----  ----- -----
  +--> WRITEEEPROM/WORK
  +--> _READROM/EEPROM

WRITEEEPROM/WORK                          ----- -----  ----- -----
  +--> _WRITEROM/EEPROM

_WRITEROM/EEPROM                          ----- -----  01EBH 01EFH
  +--> _ERASE/EEPROM
  +--> _WRITEDATA_ISP/EEPROM

_ERASE/EEPROM                             ----- -----  ----- -----
  +--> ISP_OPEN/EEPROM
  +--> ISP_DIS/EEPROM

ISP_OPEN/EEPROM                           ----- -----  ----- -----

ISP_DIS/EEPROM                            ----- -----  ----- -----

_WRITEDATA_ISP/EEPROM                     ----- -----  01F0H 01F3H
  +--> _WRITE_ISP/EEPROM
LX51 LINKER/LOCATER V4.66.41.0                                                        03/26/2019  15:13:05  PAGE 9



_WRITE_ISP/EEPROM                         ----- -----  ----- -----
  +--> ISP_OPEN/EEPROM
  +--> ISP_DIS/EEPROM

PWM_INIT/WORK                             ----- -----  ----- -----

BK2421_INITIALIZE/BK2421_INITIALIZE       ----- -----  01E9H 01EEH
  +--> _DELAYMS/BK2421_INITIALIZE
  +--> _SWITCHCFG/BK2421_INITIALIZE
  +--> _SPI_READ_REG/BK2421_INITIALIZE
  +--> ?CO?BK2421_INITIALIZE
  +--> _SPI_WRITE_REG/BK2421_INITIALIZE
  +--> _SPI_WRITE_BUF/BK2421_INITIALIZE
  +--> SWITCHTORXMODE/BK2421_INITIALIZE

_DELAYMS/BK2421_INITIALIZE                ----- -----  ----- -----

_SWITCHCFG/BK2421_INITIALIZE              ----- -----  ----- -----
  +--> _SPI_READ_REG/BK2421_INITIALIZE
  +--> _SPI_WRITE_REG/BK2421_INITIALIZE

_SPI_READ_REG/BK2421_INITIALIZE           ----- -----  ----- -----
  +--> _SPI_RW/BK2421_INITIALIZE

_SPI_RW/BK2421_INITIALIZE                 ----- -----  ----- -----

_SPI_WRITE_REG/BK2421_INITIALIZE          ----- -----  ----- -----
  +--> _SPI_RW/BK2421_INITIALIZE

?CO?BK2421_INITIALIZE                     ----- -----  ----- -----

_SPI_WRITE_BUF/BK2421_INITIALIZE          ----- -----  01EFH 01F3H
  +--> _SPI_RW/BK2421_INITIALIZE

SWITCHTORXMODE/BK2421_INITIALIZE          ----- -----  ----- -----
  +--> _SPI_WRITE_REG/BK2421_INITIALIZE
  +--> _SPI_READ_REG/BK2421_INITIALIZE

_BEEP_CONTROL/WORK                        ----- -----  01EAH 01F0H

ADC_GO/ADC                                ----- -----  ----- -----

_MOTION_RESET/MOTION                      ----- -----  ----- -----
  +--> _INT_TO_FLOAT/MOTION
  +--> _CURVE_INIT/CURVE
  +--> MOTION_REGISTERS_RESET/MOTION

_INT_TO_FLOAT/MOTION                      ----- -----  ----- -----

RECEIVE_PACKET/BK2421_INITIALIZE          ----- -----  01E9H 01EAH
  +--> WORK_HOP/BK2421_INITIALIZE
  +--> _SPI_READ_REG/BK2421_INITIALIZE
  +--> _SPI_READ_BUF/BK2421_INITIALIZE
  +--> _SPI_WRITE_BUF/BK2421_INITIALIZE
  +--> WRITEEEPROM/WORK
  +--> SWITCHTORXMODE/BK2421_INITIALIZE
  +--> _LOAD_RF_DATE/BK2421_INITIALIZE
  +--> _SPI_WRITE_REG/BK2421_INITIALIZE

WORK_HOP/BK2421_INITIALIZE                ----- -----  ----- -----
  +--> ?CO?BK2421_INITIALIZE
  +--> _SPI_WRITE_REG/BK2421_INITIALIZE
  +--> SWITCHTORXMODE/BK2421_INITIALIZE

LX51 LINKER/LOCATER V4.66.41.0                                                        03/26/2019  15:13:05  PAGE 10


_SPI_READ_BUF/BK2421_INITIALIZE           ----- -----  01EBH 01F0H
  +--> _SPI_RW/BK2421_INITIALIZE

_LOAD_RF_DATE/BK2421_INITIALIZE           ----- -----  01EBH 01EEH

_MOTION_NEXT/MOTION                       ----- -----  01E9H 01ECH
  +--> CURVE_GET_DURATION/MOTION
  +--> _CURVE_INIT/CURVE
  +--> _CURVE_SOLVE/CURVE
  +--> _FLOAT_TO_INT/MOTION

CURVE_GET_DURATION/MOTION                 ----- -----  ----- -----

_CURVE_SOLVE/CURVE                        ----- -----  01EDH 0200H

_FLOAT_TO_INT/MOTION                      ----- -----  01EDH 01F0H

_PID_POSITION_TO_PWM/PID                  ----- -----  ----- -----
  +--> _FILTER_UPDATE/PID

_FILTER_UPDATE/PID                        ----- -----  ----- -----

_PWM_UPDATE/PWM                           ----- -----  01E9H 01F0H
  +--> _PWM_DIR_B/PWM
  +--> _PWM_DIR_A/PWM
  +--> PWM_STOP/PWM

_PWM_DIR_B/PWM                            ----- -----  01F1H 01F3H

_PWM_DIR_A/PWM                            ----- -----  01F1H 01F3H

PWM_STOP/PWM                              ----- -----  ----- -----

FORWARD_PWM_DIR/WORK                      ----- -----  01E9H 01ECH
  +--> _QIANJIN/WORK

_QIANJIN/WORK                             ----- -----  ----- -----

TEXT_VOLTAGE/WORK                         ----- -----  ----- -----

TEXT_CURRENT/WORK                         ----- -----  ----- -----
  +--> _SEND_WORD_TO_UART1/UART

_SEND_WORD_TO_UART1/UART                  ----- -----  ----- -----

LED_CONTROL/WORK                          ----- -----  ----- -----
  +--> _UP2_BEEP/WORK
  +--> _DOWN_BEEP/WORK
  +--> _UP_BEEP/WORK

_UP2_BEEP/WORK                            ----- -----  01E9H 01E9H
  +--> _BEEP_CONTROL/WORK

_DOWN_BEEP/WORK                           ----- -----  01E9H 01E9H
  +--> _BEEP_CONTROL/WORK

_UP_BEEP/WORK                             ----- -----  01E9H 01E9H
  +--> _BEEP_CONTROL/WORK

MOTION_TIME_LEFT/MAIN                     ----- -----  ----- -----

MOTION_APPEND/MOTION                      ----- -----  01E9H 01EEH
  +--> _INT_TO_FLOAT/MOTION
  +--> _FIXED_TO_FLOAT/MOTION
  +--> CURVE_GET_P1/MOTION
LX51 LINKER/LOCATER V4.66.41.0                                                        03/26/2019  15:13:05  PAGE 11


  +--> _CURVE_INIT/CURVE
  +--> MOTION_REGISTERS_RESET/MOTION

_FIXED_TO_FLOAT/MOTION                    ----- -----  ----- -----

CURVE_GET_P1/MOTION                       ----- -----  ----- -----

?C_INITSEG                                ----- -----  ----- -----

*** NEW ROOT ****************************

TIMER0_ISR/SYSTEM                         ----- -----  ----- -----
  +--> SYSTICK_HANDLER/SYSTEM

SYSTICK_HANDLER/SYSTEM                    ----- -----  ----- -----
  +--> SYSTICK_HANDLER2/SYSTEM

SYSTICK_HANDLER2/SYSTEM                   ----- -----  ----- -----

*** NEW ROOT ****************************

EXT1_ISR/SYSTEM                           ----- -----  ----- -----

*** NEW ROOT ****************************

TIMER1_ISR/SYSTEM                         ----- -----  ----- -----

*** NEW ROOT ****************************

TIMER2_ISR/SYSTEM                         ----- -----  ----- -----

*** NEW ROOT ****************************

ADC_ISR/ADC                               ----- -----  0203H 0204H
  +--> _FILTER/ADC

_FILTER/ADC                               ----- -----  0205H 020BH



PUBLIC SYMBOLS OF MODULE:  .\Output\PWM (?C_STARTUP)


      VALUE       CLASS    TYPE      PUBLIC SYMBOL NAME
      =================================================
      020001EFH   XDATA    BYTE      ?_curve_init?BYTE
      020001EDH   XDATA    BYTE      ?_curve_solve?BYTE
      0200024FH   XDATA    BYTE      ?_eeprom_read_block?BYTE
      02000256H   XDATA    BYTE      ?_eeprom_write_block?BYTE
      020001EBH   XDATA    BYTE      ?_SPI_Read_Buf?BYTE
      020001EFH   XDATA    BYTE      ?_SPI_Write_Buf?BYTE
      010003C4H   CODE     ---       ?C?CASTF
      01000581H   CODE     ---       ?C?CILDPTR
      01000554H   CODE     ---       ?C?CLDOPTR
      0100053BH   CODE     ---       ?C?CLDPTR
      00000000H   NUMBER   ---       ?C?CODESEG
      01000515H   CODE     ---       ?C?COPY
      010005B5H   CODE     ---       ?C?CSTOPTR
      010005A3H   CODE     ---       ?C?CSTPTR
      01000390H   CODE     ---       ?C?FCASTC
      0100038BH   CODE     ---       ?C?FCASTI
      01000386H   CODE     ---       ?C?FCASTL
      01000065H   CODE     ---       ?C?FPADD
      010002FEH   CODE     ---       ?C?FPCMP
      010002FCH   CODE     ---       ?C?FPCMP3
LX51 LINKER/LOCATER V4.66.41.0                                                        03/26/2019  15:13:05  PAGE 12


      0100025FH   CODE     ---       ?C?FPDIV
      010003FBH   CODE     ---       ?C?FPGETOPN2
      01000156H   CODE     ---       ?C?FPMUL
      01000430H   CODE     ---       ?C?FPNANRESULT
      01000375H   CODE     ---       ?C?FPNEG
      0100043AH   CODE     ---       ?C?FPOVERFLOW
      01000412H   CODE     ---       ?C?FPRESULT
      01000426H   CODE     ---       ?C?FPRESULT2
      01000061H   CODE     ---       ?C?FPSUB
      01000437H   CODE     ---       ?C?FPUNDERFLOW
      0100061FH   CODE     ---       ?C?ILDIX
      01000635H   CODE     ---       ?C?ILDOPTR
      010005D7H   CODE     ---       ?C?IMUL
      0100066DH   CODE     ---       ?C?ISTOPTR
      01000921H   CODE     ---       ?C?LIMUL
      01000890H   CODE     ---       ?C?LLDCODE
      010009EDH   CODE     ---       ?C?LLDCODE0
      010009A3H   CODE     ---       ?C?LLDIDATA
      010009C7H   CODE     ---       ?C?LLDIDATA0
      01000846H   CODE     ---       ?C?LLDOPTR
      010009BBH   CODE     ---       ?C?LLDPDATA
      010009E0H   CODE     ---       ?C?LLDPDATA0
      01000826H   CODE     ---       ?C?LLDPTR
      010008A0H   CODE     ---       ?C?LLDPTR0
      010009AFH   CODE     ---       ?C?LLDXDATA
      010009D4H   CODE     ---       ?C?LLDXDATA0
      0100069AH   CODE     ---       ?C?LMUL
      010007B7H   CODE     ---       ?C?LNEG
      01000813H   CODE     ---       ?C?LSHL
      010009FDH   CODE     ---       ?C?LSTIDATA
      01000A15H   CODE     ---       ?C?LSTKIDATA
      010008FDH   CODE     ---       ?C?LSTKOPTR
      01000A2EH   CODE     ---       ?C?LSTKPDATA
      010008CCH   CODE     ---       ?C?LSTKXDATA
      01000A09H   CODE     ---       ?C?LSTPDATA
      01000876H   CODE     ---       ?C?LSTPTR
      010008C0H   CODE     ---       ?C?LSTXDATA
      010005E9H   CODE     ---       ?C?SIDIV
      010007C5H   CODE     ---       ?C?SLCMP
      01000BFAH   CODE     ---       ?C?SLDIV
      010007FFH   CODE     ---       ?C?SLSHR
      0100094EH   CODE     ---       ?C?UIDIV
      010007DBH   CODE     ---       ?C?ULCMP
      01000725H   CODE     ---       ?C?ULDIV
      010007ECH   CODE     ---       ?C?ULSHR
      00000000H   NUMBER   ---       ?C?XDATASEG
      01000BB5H   CODE     ---       ?C_START
      01000000H   CODE     ---       ?C_STARTUP
      01003BC6H   CODE     ---       _Beep_Control
      01002502H   CODE     ---       _curve_init
      01002794H   CODE     ---       _curve_solve
      01001780H   CODE     ---       _DelayMs
      01003B7AH   CODE     ---       _Down_Beep
      01002427H   CODE     ---       _eeprom_read_block
      010023CBH   CODE     ---       _eeprom_write_block
      010021E1H   CODE     ---       _ERASE
      01001BD7H   CODE     ---       _Filter
      01001B76H   CODE     ---       _INIT_Filter
      01003FDAH   CODE     ---       _InitialUART0_Timer3
      0100407DH   CODE     ---       _InitialUART1_Timer3
      01001F8AH   CODE     ---       _Load_RF_Date
      01002B1CH   CODE     ---       _motion_next
      010026E6H   CODE     ---       _motion_reset
      010031A6H   CODE     ---       _pid_position_to_pwm
      01003EA7H   CODE     ---       _pwm_dir_a
LX51 LINKER/LOCATER V4.66.41.0                                                        03/26/2019  15:13:05  PAGE 13


      01003EFEH   CODE     ---       _pwm_dir_b
      01000CCFH   CODE     ---       _pwm_update
      010036BBH   CODE     ---       _QianJin
      0100231CH   CODE     ---       _Read_APROM_BYTE
      010022FAH   CODE     ---       _ReadDATA_ISP
      0100222CH   CODE     ---       _readrom
      0100405FH   CODE     ---       _Send_Data_To_UART0
      010040E4H   CODE     ---       _Send_Data_To_UART1
      01004067H   CODE     ---       _Send_Word_To_UART0
      01003DFBH   CODE     ---       _Send_Word_To_UART1
      010017C2H   CODE     ---       _SetChannelNum
      01001F4AH   CODE     ---       _SPI_Read_Buf
      010016ACH   CODE     ---       _SPI_Read_Reg
      01001407H   CODE     ---       _SPI_ReadReg
      01001708H   CODE     ---       _SPI_RW
      010016BCH   CODE     ---       _SPI_Write_Buf
      010016F8H   CODE     ---       _SPI_Write_Reg
      010012B3H   CODE     ---       _SPI_WriteReg
      0100174CH   CODE     ---       _SwitchCFG
      01003D45H   CODE     ---       _Up2_Beep
      01003CF7H   CODE     ---       _Up_Beep
      0100229EH   CODE     ---       _Write_ISP
      010022BDH   CODE     ---       _WriteDATA_ISP
      01002188H   CODE     ---       _writerom
*SFR* 000000C0H.2 DATA     BIT       AA
*SFR* 000000D0H.6 DATA     BIT       AC
*SFR* 000000E0H   DATA     BYTE      ACC
      02000008H   XDATA    ---       ADC_Filt
      0100001EH   CODE     ---       ADC_GO
      010017D1H   CODE     ---       adc_init
      01001D5FH   CODE     ---       ADC_ISR
      02000096H   XDATA    BYTE      adc_position_ready
      02000004H   XDATA    WORD      adc_position_value
      02000006H   XDATA    WORD      adc_seek_position_value
*SFR* 000000E8H   DATA     BYTE      ADCCON0
*SFR* 000000E1H   DATA     BYTE      ADCCON1
*SFR* 000000E2H   DATA     BYTE      ADCCON2
*SFR* 000000E3H   DATA     BYTE      ADCDLY
*SFR* 000000E8H.7 DATA     BIT       ADCF
*SFR* 000000E8H   DATA     BIT       ADCHS0
*SFR* 000000E8H.1 DATA     BIT       ADCHS1
*SFR* 000000E8H.2 DATA     BIT       ADCHS2
*SFR* 000000E8H.3 DATA     BIT       ADCHS3
*SFR* 000000CFH   DATA     BYTE      ADCMPH
*SFR* 000000CEH   DATA     BYTE      ADCMPL
*SFR* 000000C3H   DATA     BYTE      ADCRH
*SFR* 000000C2H   DATA     BYTE      ADCRL
*SFR* 000000E8H.6 DATA     BIT       ADCS
*SFR* 000000F6H   DATA     BYTE      AINDIDS
*SFR* 000000A2H   DATA     BYTE      AUXR1
*SFR* 000000F0H   DATA     BYTE      B
      00000020H.7 BIT      BIT       Back_f
      0200012FH   XDATA    WORD      Back_PWM
      01000C8BH   CONST    ---       Bank0_Reg
      01000C48H   CONST    ---       Bank1_Reg0_13
      01000C80H   CONST    ---       Bank1_Reg14
      00000021H.3 BIT      BIT       Bind_On
      00000021H.5 BIT      BIT       BIT_TMP
      0100149BH   CODE     ---       BK2421_Initialize
*SFR* 000000A3H   DATA     BYTE      BODCON0
*SFR* 000000ABH   DATA     BYTE      BODCON1
      00000020H.5 BIT      BIT       Brake_f
      02000131H   XDATA    BYTE      Brake_Mode
      02000134H   XDATA    WORD      brake_PWM
*SFR* 000000E5H   DATA     BYTE      C0H
LX51 LINKER/LOCATER V4.66.41.0                                                        03/26/2019  15:13:05  PAGE 14


*SFR* 000000E4H   DATA     BYTE      C0L
*SFR* 000000E7H   DATA     BYTE      C1H
*SFR* 000000E6H   DATA     BYTE      C1L
*SFR* 000000EEH   DATA     BYTE      C2H
*SFR* 000000EDH   DATA     BYTE      C2L
*SFR* 00000092H   DATA     BYTE      CAPCON0
*SFR* 00000093H   DATA     BYTE      CAPCON1
*SFR* 00000094H   DATA     BYTE      CAPCON2
*SFR* 000000F1H   DATA     BYTE      CAPCON3
*SFR* 000000F2H   DATA     BYTE      CAPCON4
      020001A3H   XDATA    BYTE      Channel_Number
*SFR* 0000009FH   DATA     BYTE      CHPCON
*SFR* 0000008EH   DATA     BYTE      CKCON
*SFR* 00000095H   DATA     BYTE      CKDIV
*SFR* 00000097H   DATA     BYTE      CKEN
*SFR* 00000096H   DATA     BYTE      CKSWT
*SFR* 000000D8H.4 DATA     BIT       CLRPWM
*SFR* 000000C8H   DATA     BIT       CM_RL2
      02000137H   XDATA    ---       Control
      0200014AH   XDATA    WORD      Current
      02000091H   XDATA    BYTE      Current_Conut
      02000000H   XDATA    DWORD     Current_Sum
      02000169H   XDATA    WORD      Curve_Delta
      02000181H   XDATA    WORD      curve_duration
      02000167H   XDATA    WORD      Curve_In_Velocity
      0200016BH   XDATA    WORD      Curve_Out_Velocity
      0200014FH   XDATA    FLOAT     curve_p0
      02000153H   XDATA    FLOAT     curve_p1
      02000165H   XDATA    WORD      Curve_Position
      02000159H   XDATA    WORD      Curve_Reserved
      02000157H   XDATA    WORD      curve_t0
      0200015BH   XDATA    WORD      curve_t1
      0200015DH   XDATA    FLOAT     curve_v0
      02000161H   XDATA    FLOAT     curve_v1
*SFR* 000000D0H.7 DATA     BIT       CY
      02000234H   XDATA    WORD      DelaymS
*SFR* 00000083H   DATA     BYTE      DPH
*SFR* 00000082H   DATA     BYTE      DPL
*SFR* 000000A8H.7 DATA     BIT       EA
*SFR* 000000A8H.6 DATA     BIT       EADC
*SFR* 000000A8H.5 DATA     BIT       EBOD
      02000123H   XDATA    ---       EEPROM_DATA
      010023A2H   CODE     ---       eeprom_erase
      01002324H   CODE     ---       eeprom_restore_registers
      010023ABH   CODE     ---       eeprom_save_registers
*SFR* 0000009BH   DATA     BYTE      EIE
*SFR* 0000009CH   DATA     BYTE      EIE1
*SFR* 000000EFH   DATA     BYTE      EIP
*SFR* 000000FEH   DATA     BYTE      EIP1
*SFR* 000000F7H   DATA     BYTE      EIPH
*SFR* 000000FFH   DATA     BYTE      EIPH1
*SFR* 000000A8H.4 DATA     BIT       ES
*SFR* 000000A8H.1 DATA     BIT       ET0
*SFR* 000000A8H.3 DATA     BIT       ET1
*SFR* 000000E8H.4 DATA     BIT       ETGSEL0
*SFR* 000000E8H.5 DATA     BIT       ETGSEL1
*SFR* 000000A8H   DATA     BIT       EX0
*SFR* 000000A8H.2 DATA     BIT       EX1
      0100000AH   CODE     ---       EXT1_ISR
*SFR* 000000D0H.5 DATA     BIT       F0
*SFR* 000000D7H   DATA     BYTE      FBD
*SFR* 00000098H.7 DATA     BIT       FE
*SFR* 000000F8H.7 DATA     BIT       FE_1
      00000020H.2 BIT      BIT       Forward_f
      02000121H   XDATA    WORD      Forward_PWM
LX51 LINKER/LOCATER V4.66.41.0                                                        03/26/2019  15:13:05  PAGE 15


      010037B1H   CODE     ---       Forward_PWM_Dir
      02000112H   XDATA    FLOAT     fposition
      00000021H.6 BIT      BIT       full
      0200010EH   XDATA    FLOAT     fvelocity
      0200023FH   XDATA    ---       gTimer
      00000021H.0 BIT      BIT       Hig_Cur_f
*SFR* 000000C1H   DATA     BYTE      I2ADDR
*SFR* 000000C0H.6 DATA     BIT       I2CEN
*SFR* 000000BEH   DATA     BYTE      I2CLK
*SFR* 000000C0H   DATA     BYTE      I2CON
*SFR* 000000C0H   DATA     BIT       I2CPX
*SFR* 000000BCH   DATA     BYTE      I2DAT
*SFR* 000000BDH   DATA     BYTE      I2STAT
*SFR* 000000BFH   DATA     BYTE      I2TOC
*SFR* 000000A7H   DATA     BYTE      IAPAH
*SFR* 000000A6H   DATA     BYTE      IAPAL
*SFR* 000000AFH   DATA     BYTE      IAPCN
*SFR* 000000AEH   DATA     BYTE      IAPFD
*SFR* 000000A4H   DATA     BYTE      IAPTRG
*SFR* 000000A5H   DATA     BYTE      IAPUEN
*SFR* 000000A8H   DATA     BYTE      IE
*SFR* 00000088H.1 DATA     BIT       IE0
*SFR* 00000088H.3 DATA     BIT       IE1
      0200020CH   XDATA    BYTE      index_state
      01001A5AH   CODE     ---       Init_IO
      0100146CH   CODE     ---       InitSystem
*SFR* 000000B0H   DATA     BIT       INT0
*SFR* 000000B8H   DATA     BYTE      IP
*SFR* 000000B7H   DATA     BYTE      IPH
      010021FDH   CODE     ---       ISP_DIS
      010022E7H   CODE     ---       ISP_OPEN
*SFR* 00000088H   DATA     BIT       IT0
*SFR* 00000088H.2 DATA     BIT       IT1
      0200009DH   XDATA    ---       keys
      01003AA1H   CODE     ---       LED_Control
*SFR* 000000D8H.6 DATA     BIT       LOAD
      00000021H.4 BIT      BIT       Lost_Signal_f
      020001A4H   XDATA    BYTE      Lost_time
      00000020H.0 BIT      BIT       Low_Val_f
      01001311H   CODE     ---       LT8900_Init
      01000E0EH   CODE     ---       main
      020001E1H   XDATA    INT       maximum_position
      020001CBH   XDATA    INT       minimum_position
      01002E11H   CODE     ---       motion_append
      010030FBH   CODE     ---       motion_buffer_left
      02000097H   XDATA    DWORD     motion_counter
      02000116H   XDATA    DWORD     motion_duration
      0200009BH   XDATA    BYTE      motion_head
      01002F98H   CODE     ---       motion_init
      0100276CH   CODE     ---       motion_registers_reset
      0200009CH   XDATA    BYTE      motion_tail
      0200014EH   XDATA    BYTE      Motor_Mode
      0200014CH   XDATA    WORD      Motor_PWM
      02000136H   XDATA    BYTE      Motor_Static
      0200010DH   XDATA    BYTE      next
      020001AFH   XDATA    BYTE      op_status
*SFR* 000000D0H.2 DATA     BIT       OV
*SFR* 000000D0H   DATA     BIT       P
*SFR* 00000080H   DATA     BYTE      P0
*SFR* 00000080H   DATA     BIT       P00
      0200023AH   XDATA    ---       P00_Address
*SFR* 00000080H.1 DATA     BIT       P01
*SFR* 00000080H.2 DATA     BIT       P02
*SFR* 00000080H.3 DATA     BIT       P03
*SFR* 00000080H.4 DATA     BIT       P04
LX51 LINKER/LOCATER V4.66.41.0                                                        03/26/2019  15:13:05  PAGE 16


*SFR* 00000080H.5 DATA     BIT       P05
*SFR* 00000080H.6 DATA     BIT       P06
*SFR* 00000080H.7 DATA     BIT       P07
*SFR* 000000B1H   DATA     BYTE      P0M1
*SFR* 000000B2H   DATA     BYTE      P0M2
*SFR* 000000B1H   DATA     BYTE      P0S
*SFR* 000000B2H   DATA     BYTE      P0SR
*SFR* 00000090H   DATA     BYTE      P1
*SFR* 00000090H   DATA     BIT       P10
*SFR* 00000090H.1 DATA     BIT       P11
*SFR* 00000090H.2 DATA     BIT       P12
*SFR* 00000090H.3 DATA     BIT       P13
*SFR* 00000090H.4 DATA     BIT       P14
*SFR* 00000090H.5 DATA     BIT       P15
*SFR* 00000090H.6 DATA     BIT       P16
*SFR* 00000090H.7 DATA     BIT       P17
*SFR* 000000B3H   DATA     BYTE      P1M1
*SFR* 000000B4H   DATA     BYTE      P1M2
*SFR* 000000B3H   DATA     BYTE      P1S
*SFR* 000000B4H   DATA     BYTE      P1SR
*SFR* 000000A0H   DATA     BYTE      P2
*SFR* 000000A0H   DATA     BIT       P20
*SFR* 000000B5H   DATA     BYTE      P2S
*SFR* 000000B0H   DATA     BYTE      P3
*SFR* 000000B0H   DATA     BIT       P30
*SFR* 000000ACH   DATA     BYTE      P3M1
*SFR* 000000ADH   DATA     BYTE      P3M2
*SFR* 000000ACH   DATA     BYTE      P3S
*SFR* 000000ADH   DATA     BYTE      P3SR
*SFR* 000000B8H.6 DATA     BIT       PADC
      01002210H   CODE     ---       ParameterReset
*SFR* 000000B8H.5 DATA     BIT       PBOD
*SFR* 00000087H   DATA     BYTE      PCON
*SFR* 000000FAH   DATA     BYTE      PDTCNT
*SFR* 000000F9H   DATA     BYTE      PDTEN
*SFR* 000000E9H   DATA     BYTE      PICON
      020001CDH   XDATA    ---       PID
      010017C8H   CODE     ---       pid_init
      010035DFH   CODE     ---       pid_registers_defaults
*SFR* 000000ECH   DATA     BYTE      PIF
*SFR* 000000EAH   DATA     BYTE      PINEN
*SFR* 000000DEH   DATA     BYTE      PIOCON0
*SFR* 000000C6H   DATA     BYTE      PIOCON1
*SFR* 000000EBH   DATA     BYTE      PIPEN
*SFR* 000000FCH   DATA     BYTE      PMD
*SFR* 000000FBH   DATA     BYTE      PMEN
*SFR* 000000D6H   DATA     BYTE      PNP
      00000020H.3 BIT      BIT       Pre_Bind_On
      00000020H.4 BIT      BIT       Pre_Forward_f
      00000021H.1 BIT      BIT       Pre_Hig_Cur_f
      00000020H.6 BIT      BIT       Pre_Lost_Signal_f
      00000020H.1 BIT      BIT       Pre_Low_Val_f
*SFR* 000000B8H.4 DATA     BIT       PS
*SFR* 000000D0H   DATA     BYTE      PSW
*SFR* 000000B8H.1 DATA     BIT       PT0
*SFR* 000000B8H.3 DATA     BIT       PT1
      0200024DH   XDATA    INT       pwm
*SFR* 000000D2H   DATA     BYTE      PWM0H
*SFR* 000000DAH   DATA     BYTE      PWM0L
*SFR* 000000D3H   DATA     BYTE      PWM1H
*SFR* 000000DBH   DATA     BYTE      PWM1L
*SFR* 000000D4H   DATA     BYTE      PWM2H
*SFR* 000000DCH   DATA     BYTE      PWM2L
*SFR* 000000D5H   DATA     BYTE      PWM3H
*SFR* 000000DDH   DATA     BYTE      PWM3L
LX51 LINKER/LOCATER V4.66.41.0                                                        03/26/2019  15:13:05  PAGE 17


*SFR* 000000C4H   DATA     BYTE      PWM4H
*SFR* 000000CCH   DATA     BYTE      PWM4L
*SFR* 000000C5H   DATA     BYTE      PWM5H
*SFR* 000000CDH   DATA     BYTE      PWM5L
      02000263H   XDATA    BYTE      pwm_a
      02000264H   XDATA    BYTE      pwm_b
      02000236H   XDATA    DWORD     PWM_Cycle
      0100368EH   CODE     ---       PWM_Init
      01000CB9H   CODE     ---       pwm_stop
*SFR* 000000D8H   DATA     BYTE      PWMCON0
*SFR* 000000DFH   DATA     BYTE      PWMCON1
*SFR* 000000D8H.5 DATA     BIT       PWMF
*SFR* 000000B7H   DATA     BYTE      PWMINTC
*SFR* 000000D1H   DATA     BYTE      PWMPH
*SFR* 000000D9H   DATA     BYTE      PWMPL
*SFR* 000000D8H.7 DATA     BIT       PWMRUN
*SFR* 000000B8H   DATA     BIT       PX0
*SFR* 000000B8H.2 DATA     BIT       PX1
*SFR* 00000098H.2 DATA     BIT       RB8
*SFR* 000000F8H.2 DATA     BIT       RB8_1
      0200020DH   XDATA    ---       RBUF
*SFR* 000000CBH   DATA     BYTE      RCMP2H
*SFR* 000000CAH   DATA     BYTE      RCMP2L
      01002346H   CODE     ---       ReadEeprom
      01004057H   CODE     ---       Receive_Data_From_UART0
      01002007H   CODE     ---       Receive_Packet
      0200022DH   XDATA    BYTE      RegH
      0200022EH   XDATA    BYTE      RegL
*SFR* 00000098H.4 DATA     BIT       REN
*SFR* 000000F8H.4 DATA     BIT       REN_1
      020001CAH   XDATA    BYTE      Reverse_Seek
      0100111DH   CODE     ---       RF_STAK
*SFR* 000000C6H   DATA     BYTE      RH3
*SFR* 00000098H   DATA     BIT       RI
*SFR* 000000F8H   DATA     BIT       RI_1
*SFR* 000000C5H   DATA     BYTE      RL3
*SFR* 000000D0H.3 DATA     BIT       RS0
*SFR* 000000D0H.4 DATA     BIT       RS1
      00000021H.2 BIT      BIT       Run_f
*SFR* 00000086H   DATA     BYTE      RWK
      02000183H   XDATA    ---       rx_buf
      01000C3EH   CONST    ---       RX_P0_Addr
      01000C43H   CONST    ---       RX_P1_Addr
*SFR* 000000A9H   DATA     BYTE      SADDR
*SFR* 000000BBH   DATA     BYTE      SADDR_1
*SFR* 000000B9H   DATA     BYTE      SADEN
*SFR* 000000BAH   DATA     BYTE      SADEN_1
*SFR* 00000099H   DATA     BYTE      SBUF
*SFR* 0000009AH   DATA     BYTE      SBUF_1
*SFR* 00000090H.3 DATA     BIT       SCL
*SFR* 00000098H   DATA     BYTE      SCON
*SFR* 000000F8H   DATA     BYTE      SCON_1
*SFR* 00000090H.4 DATA     BIT       SDA
      020001BDH   XDATA    INT       seek_position
      020001BBH   XDATA    INT       seek_velocity
*SFR* 00000091H   DATA     BYTE      SFRS
*SFR* 000000C0H.3 DATA     BIT       SI
*SFR* 00000098H.7 DATA     BIT       SM0
*SFR* 000000F8H.7 DATA     BIT       SM0_1
*SFR* 00000098H.6 DATA     BIT       SM1
*SFR* 000000F8H.6 DATA     BIT       SM1_1
*SFR* 00000098H.5 DATA     BIT       SM2
*SFR* 000000F8H.5 DATA     BIT       SM2_1
*SFR* 00000081H   DATA     BYTE      SP
*SFR* 000000F3H   DATA     BYTE      SPCR
LX51 LINKER/LOCATER V4.66.41.0                                                        03/26/2019  15:13:05  PAGE 18


*SFR* 000000F3H   DATA     BYTE      SPCR2
*SFR* 000000F5H   DATA     BYTE      SPDR
*SFR* 000000F4H   DATA     BYTE      SPSR
*SFR* 000000C0H.5 DATA     BIT       STA
*SFR* 000000C0H.4 DATA     BIT       STO
      0100172AH   CODE     ---       SwitchToRxMode
      01001768H   CODE     ---       SwitchToTxMode
      02000120H   XDATA    BYTE      system_state
      02000243H   XDATA    WORD      System_Timer
      01001078H   CODE     ---       SysTick_Handler
      01001044H   CODE     ---       SysTick_Handler2
      0100110FH   CODE     ---       SysTimer_Process
*SFR* 000000C8H   DATA     BYTE      T2CON
*SFR* 000000C9H   DATA     BYTE      T2MOD
*SFR* 000000C4H   DATA     BYTE      T3CON
*SFR* 000000C7H   DATA     BYTE      TA
      0200024BH   XDATA    WORD      Target_position
*SFR* 00000098H.3 DATA     BIT       TB8
*SFR* 000000F8H.3 DATA     BIT       TB8_1
*SFR* 00000088H   DATA     BYTE      TCON
      02000249H   XDATA    WORD      temp
      01003D98H   CODE     ---       Text_Current
      01003D72H   CODE     ---       Text_Voltage
*SFR* 00000088H.5 DATA     BIT       TF0
*SFR* 00000088H.7 DATA     BIT       TF1
*SFR* 000000C8H.7 DATA     BIT       TF2
*SFR* 0000008CH   DATA     BYTE      TH0
*SFR* 0000008DH   DATA     BYTE      TH1
*SFR* 000000CDH   DATA     BYTE      TH2
*SFR* 00000098H.1 DATA     BIT       TI
*SFR* 000000F8H.1 DATA     BIT       TI_1
      010010E4H   CODE     ---       Timer0_ISR
      010017E5H   CODE     ---       Timer0Init
      01001869H   CODE     ---       Timer1_ISR
      010017FBH   CODE     ---       Timer1Init
      0100000EH   CODE     ---       Timer2_ISR
      02000230H   XDATA    DWORD     Timer_1s
*SFR* 0000008AH   DATA     BYTE      TL0
*SFR* 0000008BH   DATA     BYTE      TL1
*SFR* 000000CCH   DATA     BYTE      TL2
*SFR* 00000089H   DATA     BYTE      TMOD
*SFR* 00000088H.4 DATA     BIT       TR0
*SFR* 00000088H.6 DATA     BIT       TR1
*SFR* 000000C8H.2 DATA     BIT       TR2
      020001B0H   XDATA    ---       Tx_Address
      02000132H   XDATA    WORD      Voltage
      02000090H   XDATA    BYTE      Voltage_Conut
      02000092H   XDATA    DWORD     Voltage_Sum
*SFR* 000000AAH   DATA     BYTE      WDCON
*SFR* 0000008FH   DATA     BYTE      WKCON
      020001AAH   XDATA    ---       Work_Address
      020001A5H   XDATA    ---       Work_Frequency
      01001799H   CODE     ---       Work_Hop
      01002136H   CODE     ---       WriteEeprom
      02000245H   XDATA    FLOAT     xishu



SYMBOL TABLE OF MODULE:  .\Output\PWM (?C_STARTUP)

      VALUE       REP       CLASS    TYPE      SYMBOL NAME
      ====================================================
      ---         MODULE    ---      ---       ?C_STARTUP
      01000000H   PUBLIC    CODE     ---       ?C_STARTUP
      000000E0H   SYMBOL    DATA     ---       ACC
LX51 LINKER/LOCATER V4.66.41.0                                                        03/26/2019  15:13:05  PAGE 19


      000000F0H   SYMBOL    DATA     ---       B
      00000083H   SYMBOL    DATA     ---       DPH
      00000082H   SYMBOL    DATA     ---       DPL
      00000000H   SYMBOL    NUMBER   ---       IBPSTACK
      00000100H   SYMBOL    NUMBER   ---       IBPSTACKTOP
      00000080H   SYMBOL    NUMBER   ---       IDATALEN
      01000B63H   SYMBOL    CODE     ---       IDATALOOP
      00000000H   SYMBOL    NUMBER   ---       PBPSTACK
      00000000H   SYMBOL    NUMBER   ---       PBPSTACKTOP
      00000000H   SYMBOL    NUMBER   ---       PDATALEN
      00000000H   SYMBOL    NUMBER   ---       PDATASTART
      00000000H   SYMBOL    NUMBER   ---       PPAGE
      00000000H   SYMBOL    NUMBER   ---       PPAGEENABLE
      000000A0H   SYMBOL    DATA     ---       PPAGE_SFR
      00000081H   SYMBOL    DATA     ---       SP
      01000B60H   SYMBOL    CODE     ---       STARTUP1
      00000000H   SYMBOL    NUMBER   ---       XBPSTACK
      00000000H   SYMBOL    NUMBER   ---       XBPSTACKTOP
      000002FFH   SYMBOL    NUMBER   ---       XDATALEN
      01000B6EH   SYMBOL    CODE     ---       XDATALOOP
      00000000H   SYMBOL    NUMBER   ---       XDATASTART
      01000000H   LINE      CODE     ---       #92
      01000B60H   LINE      CODE     ---       #99
      01000B62H   LINE      CODE     ---       #100
      01000B63H   LINE      CODE     ---       #101
      01000B64H   LINE      CODE     ---       #102
      01000B66H   LINE      CODE     ---       #106
      01000B69H   LINE      CODE     ---       #107
      01000B6BH   LINE      CODE     ---       #109
      01000B6DH   LINE      CODE     ---       #113
      01000B6EH   LINE      CODE     ---       #114
      01000B6FH   LINE      CODE     ---       #115
      01000B70H   LINE      CODE     ---       #116
      01000B72H   LINE      CODE     ---       #117
      01000B74H   LINE      CODE     ---       #151
      01000B77H   LINE      CODE     ---       #155

      ---         MODULE    ---      ---       SYSTEM
      02000243H   PUBLIC    XDATA    WORD      System_Timer
      0200023FH   PUBLIC    XDATA    ---       gTimer
      0200023AH   PUBLIC    XDATA    ---       P00_Address
      02000236H   PUBLIC    XDATA    DWORD     PWM_Cycle
      02000234H   PUBLIC    XDATA    WORD      DelaymS
      00000021H.5 PUBLIC    BIT      BIT       BIT_TMP
      02000230H   PUBLIC    XDATA    DWORD     Timer_1s
      0100146CH   PUBLIC    CODE     ---       InitSystem
      01001A5AH   PUBLIC    CODE     ---       Init_IO
      0100000EH   PUBLIC    CODE     ---       Timer2_ISR
      01001869H   PUBLIC    CODE     ---       Timer1_ISR
      0100000AH   PUBLIC    CODE     ---       EXT1_ISR
      010010E4H   PUBLIC    CODE     ---       Timer0_ISR
      010017FBH   PUBLIC    CODE     ---       Timer1Init
      010017E5H   PUBLIC    CODE     ---       Timer0Init
      0100110FH   PUBLIC    CODE     ---       SysTimer_Process
      01001078H   PUBLIC    CODE     ---       SysTick_Handler
      01001044H   PUBLIC    CODE     ---       SysTick_Handler2
      000000F6H   SFRSYM    DATA     BYTE      AINDIDS
      000000B1H   SFRSYM    DATA     BYTE      P0M1
      000000B3H   SFRSYM    DATA     BYTE      P1M1
      000000B2H   SFRSYM    DATA     BYTE      P0M2
      00000080H   SFRSYM    DATA     BYTE      P0
      000000BBH   SFRSYM    DATA     BYTE      SADDR_1
      000000B4H   SFRSYM    DATA     BYTE      P1M2
      00000090H   SFRSYM    DATA     BYTE      P1
      000000C0H.2 SFRSYM    DATA     BIT       AA
LX51 LINKER/LOCATER V4.66.41.0                                                        03/26/2019  15:13:05  PAGE 20


      000000ACH   SFRSYM    DATA     BYTE      P3M1
      000000A0H   SFRSYM    DATA     BYTE      P2
      000000B0H   SFRSYM    DATA     BYTE      P3
      000000ADH   SFRSYM    DATA     BYTE      P3M2
      000000D0H.6 SFRSYM    DATA     BIT       AC
      0000008FH   SFRSYM    DATA     BYTE      WKCON
      0000009CH   SFRSYM    DATA     BYTE      EIE1
      000000A8H.7 SFRSYM    DATA     BIT       EA
      000000D8H   SFRSYM    DATA     BYTE      PWMCON0
      000000DFH   SFRSYM    DATA     BYTE      PWMCON1
      00000098H.7 SFRSYM    DATA     BIT       FE
      000000A8H.6 SFRSYM    DATA     BIT       EADC
      000000D1H   SFRSYM    DATA     BYTE      PWMPH
      000000A8H   SFRSYM    DATA     BYTE      IE
      00000096H   SFRSYM    DATA     BYTE      CKSWT
      000000E8H.7 SFRSYM    DATA     BIT       ADCF
      000000FEH   SFRSYM    DATA     BYTE      EIP1
      000000D9H   SFRSYM    DATA     BYTE      PWMPL
      000000E8H   SFRSYM    DATA     BIT       ADCHS0
      000000C7H   SFRSYM    DATA     BYTE      TA
      000000E8H.1 SFRSYM    DATA     BIT       ADCHS1
      000000E8H.2 SFRSYM    DATA     BIT       ADCHS2
      000000E8H.3 SFRSYM    DATA     BIT       ADCHS3
      000000A8H.4 SFRSYM    DATA     BIT       ES
      000000C1H   SFRSYM    DATA     BYTE      I2ADDR
      000000B8H.6 SFRSYM    DATA     BIT       PADC
      000000B8H   SFRSYM    DATA     BYTE      IP
      000000A8H.5 SFRSYM    DATA     BIT       EBOD
      00000098H   SFRSYM    DATA     BIT       RI
      000000F8H.7 SFRSYM    DATA     BIT       FE_1
      000000E8H.6 SFRSYM    DATA     BIT       ADCS
      000000D0H.7 SFRSYM    DATA     BIT       CY
      000000C0H.3 SFRSYM    DATA     BIT       SI
      000000B0H   SFRSYM    DATA     BIT       INT0
      00000098H.1 SFRSYM    DATA     BIT       TI
      000000D8H.6 SFRSYM    DATA     BIT       LOAD
      00000097H   SFRSYM    DATA     BYTE      CKEN
      000000B8H.4 SFRSYM    DATA     BIT       PS
      00000081H   SFRSYM    DATA     BYTE      SP
      000000D0H.2 SFRSYM    DATA     BIT       OV
      000000B7H   SFRSYM    DATA     BYTE      PWMINTC
      000000B8H.5 SFRSYM    DATA     BIT       PBOD
      000000B2H   SFRSYM    DATA     BYTE      P0SR
      000000F7H   SFRSYM    DATA     BYTE      EIPH
      000000B4H   SFRSYM    DATA     BYTE      P1SR
      000000ADH   SFRSYM    DATA     BYTE      P3SR
      000000F8H   SFRSYM    DATA     BIT       RI_1
      000000F8H.1 SFRSYM    DATA     BIT       TI_1
      000000CBH   SFRSYM    DATA     BYTE      RCMP2H
      000000CFH   SFRSYM    DATA     BYTE      ADCMPH
      00000080H   SFRSYM    DATA     BIT       P00
      00000090H   SFRSYM    DATA     BIT       P10
      00000080H.1 SFRSYM    DATA     BIT       P01
      000000FBH   SFRSYM    DATA     BYTE      PMEN
      00000099H   SFRSYM    DATA     BYTE      SBUF
      00000087H   SFRSYM    DATA     BYTE      PCON
      000000A0H   SFRSYM    DATA     BIT       P20
      00000090H.1 SFRSYM    DATA     BIT       P11
      00000080H.2 SFRSYM    DATA     BIT       P02
      000000CAH   SFRSYM    DATA     BYTE      RCMP2L
      000000B0H   SFRSYM    DATA     BIT       P30
      00000090H.2 SFRSYM    DATA     BIT       P12
      00000080H.3 SFRSYM    DATA     BIT       P03
      000000E3H   SFRSYM    DATA     BYTE      ADCDLY
      000000CEH   SFRSYM    DATA     BYTE      ADCMPL
LX51 LINKER/LOCATER V4.66.41.0                                                        03/26/2019  15:13:05  PAGE 21


      00000090H.3 SFRSYM    DATA     BIT       P13
      00000080H.4 SFRSYM    DATA     BIT       P04
      00000098H   SFRSYM    DATA     BYTE      SCON
      00000090H.4 SFRSYM    DATA     BIT       P14
      00000080H.5 SFRSYM    DATA     BIT       P05
      00000089H   SFRSYM    DATA     BYTE      TMOD
      00000088H   SFRSYM    DATA     BYTE      TCON
      00000090H.5 SFRSYM    DATA     BIT       P15
      00000080H.6 SFRSYM    DATA     BIT       P06
      00000090H.6 SFRSYM    DATA     BIT       P16
      00000080H.7 SFRSYM    DATA     BIT       P07
      00000090H.7 SFRSYM    DATA     BIT       P17
      000000F3H   SFRSYM    DATA     BYTE      SPCR
      000000BDH   SFRSYM    DATA     BYTE      I2STAT
      000000F5H   SFRSYM    DATA     BYTE      SPDR
      000000D8H.5 SFRSYM    DATA     BIT       PWMF
      000000E5H   SFRSYM    DATA     BYTE      C0H
      000000E7H   SFRSYM    DATA     BYTE      C1H
      000000EEH   SFRSYM    DATA     BYTE      C2H
      0000009FH   SFRSYM    DATA     BYTE      CHPCON
      00000088H.1 SFRSYM    DATA     BIT       IE0
      00000088H.3 SFRSYM    DATA     BIT       IE1
      000000E4H   SFRSYM    DATA     BYTE      C0L
      00000091H   SFRSYM    DATA     BYTE      SFRS
      000000E6H   SFRSYM    DATA     BYTE      C1L
      000000C8H   SFRSYM    DATA     BIT       CM_RL2
      000000F0H   SFRSYM    DATA     BYTE      B
      000000EDH   SFRSYM    DATA     BYTE      C2L
      0000009AH   SFRSYM    DATA     BYTE      SBUF_1
      000000A5H   SFRSYM    DATA     BYTE      IAPUEN
      000000F8H   SFRSYM    DATA     BYTE      SCON_1
      000000E0H   SFRSYM    DATA     BYTE      ACC
      000000A8H.1 SFRSYM    DATA     BIT       ET0
      000000F4H   SFRSYM    DATA     BYTE      SPSR
      000000A4H   SFRSYM    DATA     BYTE      IAPTRG
      000000A8H.3 SFRSYM    DATA     BIT       ET1
      00000088H.5 SFRSYM    DATA     BIT       TF0
      00000088H.7 SFRSYM    DATA     BIT       TF1
      000000C8H.7 SFRSYM    DATA     BIT       TF2
      00000098H.2 SFRSYM    DATA     BIT       RB8
      000000D7H   SFRSYM    DATA     BYTE      FBD
      0000008CH   SFRSYM    DATA     BYTE      TH0
      000000A8H   SFRSYM    DATA     BIT       EX0
      00000088H   SFRSYM    DATA     BIT       IT0
      000000C6H   SFRSYM    DATA     BYTE      RH3
      0000008DH   SFRSYM    DATA     BYTE      TH1
      000000A8H.2 SFRSYM    DATA     BIT       EX1
      00000098H.3 SFRSYM    DATA     BIT       TB8
      00000088H.2 SFRSYM    DATA     BIT       IT1
      000000CDH   SFRSYM    DATA     BYTE      TH2
      000000D0H   SFRSYM    DATA     BIT       P
      000000FAH   SFRSYM    DATA     BYTE      PDTCNT
      00000098H.7 SFRSYM    DATA     BIT       SM0
      0000008AH   SFRSYM    DATA     BYTE      TL0
      00000098H.6 SFRSYM    DATA     BIT       SM1
      000000C5H   SFRSYM    DATA     BYTE      RL3
      0000008BH   SFRSYM    DATA     BYTE      TL1
      000000C0H.6 SFRSYM    DATA     BIT       I2CEN
      00000098H.5 SFRSYM    DATA     BIT       SM2
      000000CCH   SFRSYM    DATA     BYTE      TL2
      000000B1H   SFRSYM    DATA     BYTE      P0S
      0000009BH   SFRSYM    DATA     BYTE      EIE
      000000B8H.1 SFRSYM    DATA     BIT       PT0
      000000B3H   SFRSYM    DATA     BYTE      P1S
      000000D0H.3 SFRSYM    DATA     BIT       RS0
LX51 LINKER/LOCATER V4.66.41.0                                                        03/26/2019  15:13:05  PAGE 22


      000000B8H.3 SFRSYM    DATA     BIT       PT1
      000000BCH   SFRSYM    DATA     BYTE      I2DAT
      000000B5H   SFRSYM    DATA     BYTE      P2S
      000000D0H.4 SFRSYM    DATA     BIT       RS1
      00000088H.4 SFRSYM    DATA     BIT       TR0
      000000BEH   SFRSYM    DATA     BYTE      I2CLK
      000000ACH   SFRSYM    DATA     BYTE      P3S
      000000D8H.4 SFRSYM    DATA     BIT       CLRPWM
      00000088H.6 SFRSYM    DATA     BIT       TR1
      000000C8H.2 SFRSYM    DATA     BIT       TR2
      000000B8H   SFRSYM    DATA     BIT       PX0
      00000090H.4 SFRSYM    DATA     BIT       SDA
      000000FFH   SFRSYM    DATA     BYTE      EIPH1
      000000B8H.2 SFRSYM    DATA     BIT       PX1
      000000E8H   SFRSYM    DATA     BYTE      ADCCON0
      000000E1H   SFRSYM    DATA     BYTE      ADCCON1
      000000E2H   SFRSYM    DATA     BYTE      ADCCON2
      000000C0H   SFRSYM    DATA     BYTE      I2CON
      00000083H   SFRSYM    DATA     BYTE      DPH
      000000F8H.2 SFRSYM    DATA     BIT       RB8_1
      000000EFH   SFRSYM    DATA     BYTE      EIP
      000000F8H.3 SFRSYM    DATA     BIT       TB8_1
      000000ECH   SFRSYM    DATA     BYTE      PIF
      00000082H   SFRSYM    DATA     BYTE      DPL
      000000F8H.7 SFRSYM    DATA     BIT       SM0_1
      000000FCH   SFRSYM    DATA     BYTE      PMD
      000000B7H   SFRSYM    DATA     BYTE      IPH
      000000F8H.6 SFRSYM    DATA     BIT       SM1_1
      00000090H.3 SFRSYM    DATA     BIT       SCL
      000000BFH   SFRSYM    DATA     BYTE      I2TOC
      000000F8H.5 SFRSYM    DATA     BIT       SM2_1
      000000C3H   SFRSYM    DATA     BYTE      ADCRH
      000000A7H   SFRSYM    DATA     BYTE      IAPAH
      00000098H.4 SFRSYM    DATA     BIT       REN
      000000AEH   SFRSYM    DATA     BYTE      IAPFD
      00000092H   SFRSYM    DATA     BYTE      CAPCON0
      000000C0H   SFRSYM    DATA     BIT       I2CPX
      000000C9H   SFRSYM    DATA     BYTE      T2MOD
      000000C8H   SFRSYM    DATA     BYTE      T2CON
      000000C2H   SFRSYM    DATA     BYTE      ADCRL
      000000A3H   SFRSYM    DATA     BYTE      BODCON0
      00000093H   SFRSYM    DATA     BYTE      CAPCON1
      000000C0H.5 SFRSYM    DATA     BIT       STA
      000000C4H   SFRSYM    DATA     BYTE      T3CON
      000000ABH   SFRSYM    DATA     BYTE      BODCON1
      000000A6H   SFRSYM    DATA     BYTE      IAPAL
      00000094H   SFRSYM    DATA     BYTE      CAPCON2
      000000F1H   SFRSYM    DATA     BYTE      CAPCON3
      000000F2H   SFRSYM    DATA     BYTE      CAPCON4
      000000D8H.7 SFRSYM    DATA     BIT       PWMRUN
      000000F3H   SFRSYM    DATA     BYTE      SPCR2
      000000B9H   SFRSYM    DATA     BYTE      SADEN
      000000AFH   SFRSYM    DATA     BYTE      IAPCN
      000000D2H   SFRSYM    DATA     BYTE      PWM0H
      000000D6H   SFRSYM    DATA     BYTE      PNP
      000000D3H   SFRSYM    DATA     BYTE      PWM1H
      000000D4H   SFRSYM    DATA     BYTE      PWM2H
      000000A9H   SFRSYM    DATA     BYTE      SADDR
      0000008EH   SFRSYM    DATA     BYTE      CKCON
      000000D5H   SFRSYM    DATA     BYTE      PWM3H
      000000DAH   SFRSYM    DATA     BYTE      PWM0L
      000000C4H   SFRSYM    DATA     BYTE      PWM4H
      000000DBH   SFRSYM    DATA     BYTE      PWM1L
      000000C5H   SFRSYM    DATA     BYTE      PWM5H
      000000A2H   SFRSYM    DATA     BYTE      AUXR1
LX51 LINKER/LOCATER V4.66.41.0                                                        03/26/2019  15:13:05  PAGE 23


      00000095H   SFRSYM    DATA     BYTE      CKDIV
      000000DCH   SFRSYM    DATA     BYTE      PWM2L
      000000DDH   SFRSYM    DATA     BYTE      PWM3L
      00000086H   SFRSYM    DATA     BYTE      RWK
      000000D0H.5 SFRSYM    DATA     BIT       F0
      000000CCH   SFRSYM    DATA     BYTE      PWM4L
      000000F8H.4 SFRSYM    DATA     BIT       REN_1
      000000E8H.4 SFRSYM    DATA     BIT       ETGSEL0
      000000C0H.4 SFRSYM    DATA     BIT       STO
      000000CDH   SFRSYM    DATA     BYTE      PWM5L
      000000E8H.5 SFRSYM    DATA     BIT       ETGSEL1
      000000E9H   SFRSYM    DATA     BYTE      PICON
      000000DEH   SFRSYM    DATA     BYTE      PIOCON0
      000000D0H   SFRSYM    DATA     BYTE      PSW
      000000EAH   SFRSYM    DATA     BYTE      PINEN
      000000C6H   SFRSYM    DATA     BYTE      PIOCON1
      000000F9H   SFRSYM    DATA     BYTE      PDTEN
      000000AAH   SFRSYM    DATA     BYTE      WDCON
      000000EBH   SFRSYM    DATA     BYTE      PIPEN
      000000BAH   SFRSYM    DATA     BYTE      SADEN_1
      01000004H   SYMBOL    CODE     ---       pwm_disable
      01000FFFH   SYMBOL    CODE     ---       curve_get_duration
      01000003H   SYMBOL    CODE     ---       pwm_enable
      0100002DH   SYMBOL    CODE     ---       motion_time_left
      01001008H   SYMBOL    CODE     ---       curve_get_p0
      01001017H   SYMBOL    CODE     ---       curve_get_p1
      01000FEDH   SYMBOL    CODE     ---       curve_get_t0
      01000FF6H   SYMBOL    CODE     ---       curve_get_t1
      01001026H   SYMBOL    CODE     ---       curve_get_v0
      01001035H   SYMBOL    CODE     ---       curve_get_v1

      0100002DH   BLOCK     CODE     ---       LVL=0
      0100002DH   LINE      ---      ---       #28
      0100002DH   LINE      ---      ---       #31
      0100002DH   LINE      ---      ---       #34
      01000054H   LINE      ---      ---       #35
      ---         BLOCKEND  ---      ---       LVL=0

      01000003H   BLOCK     CODE     ---       LVL=0
      01000003H   LINE      ---      ---       #40
      01000003H   LINE      ---      ---       #41
      01000003H   LINE      ---      ---       #46
      ---         BLOCKEND  ---      ---       LVL=0

      01000004H   BLOCK     CODE     ---       LVL=0
      01000004H   LINE      ---      ---       #49
      01000004H   LINE      ---      ---       #50
      01000004H   LINE      ---      ---       #57
      ---         BLOCKEND  ---      ---       LVL=0

      01000FEDH   BLOCK     CODE     ---       LVL=0
      01000FEDH   LINE      ---      ---       #48
      ---         BLOCKEND  ---      ---       LVL=0

      01000FF6H   BLOCK     CODE     ---       LVL=0
      01000FF6H   LINE      ---      ---       #49
      ---         BLOCKEND  ---      ---       LVL=0

      01000FFFH   BLOCK     CODE     ---       LVL=0
      01000FFFH   LINE      ---      ---       #50
      ---         BLOCKEND  ---      ---       LVL=0

      01001008H   BLOCK     CODE     ---       LVL=0
      01001008H   LINE      ---      ---       #51
      ---         BLOCKEND  ---      ---       LVL=0
LX51 LINKER/LOCATER V4.66.41.0                                                        03/26/2019  15:13:05  PAGE 24



      01001017H   BLOCK     CODE     ---       LVL=0
      01001017H   LINE      ---      ---       #52
      ---         BLOCKEND  ---      ---       LVL=0

      01001026H   BLOCK     CODE     ---       LVL=0
      01001026H   LINE      ---      ---       #53
      ---         BLOCKEND  ---      ---       LVL=0

      01001035H   BLOCK     CODE     ---       LVL=0
      01001035H   LINE      ---      ---       #54
      ---         BLOCKEND  ---      ---       LVL=0

      01001044H   BLOCK     CODE     ---       LVL=0
      01001044H   LINE      ---      ---       #18
      01001044H   LINE      ---      ---       #19
      01001044H   LINE      ---      ---       #20
      0100104AH   LINE      ---      ---       #21
      01001053H   LINE      ---      ---       #22
      01001053H   LINE      ---      ---       #23
      01001058H   LINE      ---      ---       #24
      01001058H   LINE      ---      ---       #25
      01001064H   LINE      ---      ---       #26
      01001064H   LINE      ---      ---       #27
      01001069H   LINE      ---      ---       #28
      01001069H   LINE      ---      ---       #29
      01001070H   LINE      ---      ---       #30
      01001072H   LINE      ---      ---       #31
      01001077H   LINE      ---      ---       #32
      01001077H   LINE      ---      ---       #33
      ---         BLOCKEND  ---      ---       LVL=0

      01001078H   BLOCK     CODE     ---       LVL=0
      01001078H   LINE      ---      ---       #34
      01001078H   LINE      ---      ---       #35
      01001078H   LINE      ---      ---       #36
      0100107FH   LINE      ---      ---       #37
      01001085H   LINE      ---      ---       #38
      01001089H   LINE      ---      ---       #39
      01001089H   LINE      ---      ---       #40
      01001090H   LINE      ---      ---       #41
      01001090H   LINE      ---      ---       #42
      0100109CH   LINE      ---      ---       #43
      0100109CH   LINE      ---      ---       #44
      010010A3H   LINE      ---      ---       #45
      010010A3H   LINE      ---      ---       #46
      010010AFH   LINE      ---      ---       #47
      010010AFH   LINE      ---      ---       #48
      010010B6H   LINE      ---      ---       #49
      010010B6H   LINE      ---      ---       #50
      010010BDH   LINE      ---      ---       #51
      010010BDH   LINE      ---      ---       #52
      010010BFH   LINE      ---      ---       #53
      010010C6H   LINE      ---      ---       #54
      010010C8H   LINE      ---      ---       #55
      010010C8H   LINE      ---      ---       #56
      010010D7H   LINE      ---      ---       #57
      010010D7H   LINE      ---      ---       #58
      010010E3H   LINE      ---      ---       #59
      010010E3H   LINE      ---      ---       #61
      ---         BLOCKEND  ---      ---       LVL=0

      0100110FH   BLOCK     CODE     ---       LVL=0
      0100110FH   LINE      ---      ---       #63
      0100110FH   LINE      ---      ---       #64
LX51 LINKER/LOCATER V4.66.41.0                                                        03/26/2019  15:13:05  PAGE 25


      0100110FH   LINE      ---      ---       #66
      01001115H   LINE      ---      ---       #68
      0100111AH   LINE      ---      ---       #69
      0100111AH   LINE      ---      ---       #70
      0100111CH   LINE      ---      ---       #72
      0100111CH   LINE      ---      ---       #80
      ---         BLOCKEND  ---      ---       LVL=0

      010017E5H   BLOCK     CODE     ---       LVL=0
      010017E5H   LINE      ---      ---       #86
      010017E5H   LINE      ---      ---       #87
      010017E5H   LINE      ---      ---       #88
      010017EBH   LINE      ---      ---       #89
      010017EEH   LINE      ---      ---       #90
      010017F1H   LINE      ---      ---       #91
      010017F4H   LINE      ---      ---       #92
      010017F6H   LINE      ---      ---       #93
      010017F8H   LINE      ---      ---       #94
      010017FAH   LINE      ---      ---       #95
      ---         BLOCKEND  ---      ---       LVL=0

      010017FBH   BLOCK     CODE     ---       LVL=0
      010017FBH   LINE      ---      ---       #101
      010017FBH   LINE      ---      ---       #102
      010017FBH   LINE      ---      ---       #103
      01001801H   LINE      ---      ---       #104
      01001804H   LINE      ---      ---       #105
      0100182BH   LINE      ---      ---       #106
      01001862H   LINE      ---      ---       #107
      01001864H   LINE      ---      ---       #108
      01001866H   LINE      ---      ---       #109
      01001868H   LINE      ---      ---       #110
      ---         BLOCKEND  ---      ---       LVL=0

      010010E4H   BLOCK     CODE     ---       LVL=0
      010010EEH   LINE      ---      ---       #116
      010010EEH   LINE      ---      ---       #118
      010010F1H   LINE      ---      ---       #119
      010010F4H   LINE      ---      ---       #120
      010010F6H   LINE      ---      ---       #121
      01001104H   LINE      ---      ---       #123
      ---         BLOCKEND  ---      ---       LVL=0

      0100000AH   BLOCK     CODE     ---       LVL=0
      0100000AH   LINE      ---      ---       #124
      0100000AH   LINE      ---      ---       #130
      ---         BLOCKEND  ---      ---       LVL=0

      01001869H   BLOCK     CODE     ---       LVL=0
      01001886H   LINE      ---      ---       #137
      01001886H   BLOCK     CODE     NEAR LAB  LVL=1
      01001886H   LINE      ---      ---       #139
      01001889H   LINE      ---      ---       #141
      01001898H   LINE      ---      ---       #142
      01001898H   LINE      ---      ---       #143
      0100189FH   LINE      ---      ---       #144
      0100189FH   LINE      ---      ---       #145
      010018D4H   LINE      ---      ---       #146
      010018D6H   LINE      ---      ---       #147
      010018D8H   LINE      ---      ---       #148
      010018DFH   LINE      ---      ---       #149
      010018DFH   LINE      ---      ---       #150
      01001914H   LINE      ---      ---       #151
      01001916H   LINE      ---      ---       #152
      01001918H   LINE      ---      ---       #154
LX51 LINKER/LOCATER V4.66.41.0                                                        03/26/2019  15:13:05  PAGE 26


      01001941H   LINE      ---      ---       #155
      01001947H   LINE      ---      ---       #156
      01001949H   LINE      ---      ---       #157
      01001949H   LINE      ---      ---       #158
      01001950H   LINE      ---      ---       #159
      01001950H   LINE      ---      ---       #160
      010019A6H   LINE      ---      ---       #161
      010019A8H   LINE      ---      ---       #162
      010019AAH   LINE      ---      ---       #163
      010019B1H   LINE      ---      ---       #164
      010019B1H   LINE      ---      ---       #165
      01001A07H   LINE      ---      ---       #166
      01001A09H   LINE      ---      ---       #167
      01001A0BH   LINE      ---      ---       #169
      01001A34H   LINE      ---      ---       #170
      01001A3AH   LINE      ---      ---       #171
      01001A3AH   LINE      ---      ---       #173
      01001A3AH   LINE      ---      ---       #175
      01001A3CH   LINE      ---      ---       #176
      01001A3FH   LINE      ---      ---       #178
      0200022FH   SYMBOL    XDATA    BYTE      step
      00000004H   SYMBOL    DATA     WORD      T1_Reload
      ---         BLOCKEND  CODE     ---       LVL=1
      ---         BLOCKEND  CODE     ---       LVL=0

      0100000EH   BLOCK     CODE     ---       LVL=0
      0100000EH   LINE      ---      ---       #179
      0100000EH   LINE      ---      ---       #181
      01000010H   LINE      ---      ---       #182
      ---         BLOCKEND  ---      ---       LVL=0

      01001A5AH   BLOCK     CODE     ---       LVL=0
      01001A5AH   LINE      ---      ---       #249
      01001A5AH   LINE      ---      ---       #250
      01001A5AH   LINE      ---      ---       #251
      01001A5DH   LINE      ---      ---       #252
      01001A60H   LINE      ---      ---       #253
      01001A63H   LINE      ---      ---       #255
      01001A66H   LINE      ---      ---       #256
      01001A69H   LINE      ---      ---       #257
      01001A6CH   LINE      ---      ---       #259
      01001A6FH   LINE      ---      ---       #261
      01001A72H   LINE      ---      ---       #262
      01001A74H   LINE      ---      ---       #263
      01001A77H   LINE      ---      ---       #265
      ---         BLOCKEND  ---      ---       LVL=0

      0100146CH   BLOCK     CODE     ---       LVL=0
      0100146CH   LINE      ---      ---       #276
      0100146CH   LINE      ---      ---       #277
      0100146CH   LINE      ---      ---       #278
      0100146FH   LINE      ---      ---       #279
      01001471H   LINE      ---      ---       #280
      01001473H   LINE      ---      ---       #281
      01001475H   LINE      ---      ---       #286
      01001477H   LINE      ---      ---       #287
      01001482H   LINE      ---      ---       #288
      01001484H   LINE      ---      ---       #289
      01001487H   LINE      ---      ---       #290
      0100148AH   LINE      ---      ---       #292
      01001495H   LINE      ---      ---       #294
      01001498H   LINE      ---      ---       #295
      ---         BLOCKEND  ---      ---       LVL=0

      ---         MODULE    ---      ---       MAIN
LX51 LINKER/LOCATER V4.66.41.0                                                        03/26/2019  15:13:05  PAGE 27


      0200024DH   PUBLIC    XDATA    INT       pwm
      0200024BH   PUBLIC    XDATA    WORD      Target_position
      02000249H   PUBLIC    XDATA    WORD      temp
      02000245H   PUBLIC    XDATA    FLOAT     xishu
      01000E0EH   PUBLIC    CODE     ---       main
      000000F6H   SFRSYM    DATA     BYTE      AINDIDS
      000000B1H   SFRSYM    DATA     BYTE      P0M1
      000000B3H   SFRSYM    DATA     BYTE      P1M1
      000000B2H   SFRSYM    DATA     BYTE      P0M2
      00000080H   SFRSYM    DATA     BYTE      P0
      000000BBH   SFRSYM    DATA     BYTE      SADDR_1
      000000B4H   SFRSYM    DATA     BYTE      P1M2
      00000090H   SFRSYM    DATA     BYTE      P1
      000000C0H.2 SFRSYM    DATA     BIT       AA
      000000ACH   SFRSYM    DATA     BYTE      P3M1
      000000A0H   SFRSYM    DATA     BYTE      P2
      000000B0H   SFRSYM    DATA     BYTE      P3
      000000ADH   SFRSYM    DATA     BYTE      P3M2
      000000D0H.6 SFRSYM    DATA     BIT       AC
      0000008FH   SFRSYM    DATA     BYTE      WKCON
      0000009CH   SFRSYM    DATA     BYTE      EIE1
      000000A8H.7 SFRSYM    DATA     BIT       EA
      000000D8H   SFRSYM    DATA     BYTE      PWMCON0
      000000DFH   SFRSYM    DATA     BYTE      PWMCON1
      00000098H.7 SFRSYM    DATA     BIT       FE
      000000A8H.6 SFRSYM    DATA     BIT       EADC
      000000D1H   SFRSYM    DATA     BYTE      PWMPH
      000000A8H   SFRSYM    DATA     BYTE      IE
      00000096H   SFRSYM    DATA     BYTE      CKSWT
      000000E8H.7 SFRSYM    DATA     BIT       ADCF
      000000FEH   SFRSYM    DATA     BYTE      EIP1
      000000D9H   SFRSYM    DATA     BYTE      PWMPL
      000000E8H   SFRSYM    DATA     BIT       ADCHS0
      000000C7H   SFRSYM    DATA     BYTE      TA
      000000E8H.1 SFRSYM    DATA     BIT       ADCHS1
      000000E8H.2 SFRSYM    DATA     BIT       ADCHS2
      000000E8H.3 SFRSYM    DATA     BIT       ADCHS3
      000000A8H.4 SFRSYM    DATA     BIT       ES
      000000C1H   SFRSYM    DATA     BYTE      I2ADDR
      000000B8H.6 SFRSYM    DATA     BIT       PADC
      000000B8H   SFRSYM    DATA     BYTE      IP
      000000A8H.5 SFRSYM    DATA     BIT       EBOD
      00000098H   SFRSYM    DATA     BIT       RI
      000000F8H.7 SFRSYM    DATA     BIT       FE_1
      000000E8H.6 SFRSYM    DATA     BIT       ADCS
      000000D0H.7 SFRSYM    DATA     BIT       CY
      000000C0H.3 SFRSYM    DATA     BIT       SI
      000000B0H   SFRSYM    DATA     BIT       INT0
      00000098H.1 SFRSYM    DATA     BIT       TI
      000000D8H.6 SFRSYM    DATA     BIT       LOAD
      00000097H   SFRSYM    DATA     BYTE      CKEN
      000000B8H.4 SFRSYM    DATA     BIT       PS
      00000081H   SFRSYM    DATA     BYTE      SP
      000000D0H.2 SFRSYM    DATA     BIT       OV
      000000B7H   SFRSYM    DATA     BYTE      PWMINTC
      000000B8H.5 SFRSYM    DATA     BIT       PBOD
      000000B2H   SFRSYM    DATA     BYTE      P0SR
      000000F7H   SFRSYM    DATA     BYTE      EIPH
      000000B4H   SFRSYM    DATA     BYTE      P1SR
      000000ADH   SFRSYM    DATA     BYTE      P3SR
      000000F8H   SFRSYM    DATA     BIT       RI_1
      000000F8H.1 SFRSYM    DATA     BIT       TI_1
      000000CBH   SFRSYM    DATA     BYTE      RCMP2H
      000000CFH   SFRSYM    DATA     BYTE      ADCMPH
      00000080H   SFRSYM    DATA     BIT       P00
LX51 LINKER/LOCATER V4.66.41.0                                                        03/26/2019  15:13:05  PAGE 28


      00000090H   SFRSYM    DATA     BIT       P10
      00000080H.1 SFRSYM    DATA     BIT       P01
      000000FBH   SFRSYM    DATA     BYTE      PMEN
      00000099H   SFRSYM    DATA     BYTE      SBUF
      00000087H   SFRSYM    DATA     BYTE      PCON
      000000A0H   SFRSYM    DATA     BIT       P20
      00000090H.1 SFRSYM    DATA     BIT       P11
      00000080H.2 SFRSYM    DATA     BIT       P02
      000000CAH   SFRSYM    DATA     BYTE      RCMP2L
      000000B0H   SFRSYM    DATA     BIT       P30
      00000090H.2 SFRSYM    DATA     BIT       P12
      00000080H.3 SFRSYM    DATA     BIT       P03
      000000E3H   SFRSYM    DATA     BYTE      ADCDLY
      000000CEH   SFRSYM    DATA     BYTE      ADCMPL
      00000090H.3 SFRSYM    DATA     BIT       P13
      00000080H.4 SFRSYM    DATA     BIT       P04
      00000098H   SFRSYM    DATA     BYTE      SCON
      00000090H.4 SFRSYM    DATA     BIT       P14
      00000080H.5 SFRSYM    DATA     BIT       P05
      00000089H   SFRSYM    DATA     BYTE      TMOD
      00000088H   SFRSYM    DATA     BYTE      TCON
      00000090H.5 SFRSYM    DATA     BIT       P15
      00000080H.6 SFRSYM    DATA     BIT       P06
      00000090H.6 SFRSYM    DATA     BIT       P16
      00000080H.7 SFRSYM    DATA     BIT       P07
      00000090H.7 SFRSYM    DATA     BIT       P17
      000000F3H   SFRSYM    DATA     BYTE      SPCR
      000000BDH   SFRSYM    DATA     BYTE      I2STAT
      000000F5H   SFRSYM    DATA     BYTE      SPDR
      000000D8H.5 SFRSYM    DATA     BIT       PWMF
      000000E5H   SFRSYM    DATA     BYTE      C0H
      000000E7H   SFRSYM    DATA     BYTE      C1H
      000000EEH   SFRSYM    DATA     BYTE      C2H
      0000009FH   SFRSYM    DATA     BYTE      CHPCON
      00000088H.1 SFRSYM    DATA     BIT       IE0
      00000088H.3 SFRSYM    DATA     BIT       IE1
      000000E4H   SFRSYM    DATA     BYTE      C0L
      00000091H   SFRSYM    DATA     BYTE      SFRS
      000000E6H   SFRSYM    DATA     BYTE      C1L
      000000C8H   SFRSYM    DATA     BIT       CM_RL2
      000000F0H   SFRSYM    DATA     BYTE      B
      000000EDH   SFRSYM    DATA     BYTE      C2L
      0000009AH   SFRSYM    DATA     BYTE      SBUF_1
      000000A5H   SFRSYM    DATA     BYTE      IAPUEN
      000000F8H   SFRSYM    DATA     BYTE      SCON_1
      000000E0H   SFRSYM    DATA     BYTE      ACC
      000000A8H.1 SFRSYM    DATA     BIT       ET0
      000000F4H   SFRSYM    DATA     BYTE      SPSR
      000000A4H   SFRSYM    DATA     BYTE      IAPTRG
      000000A8H.3 SFRSYM    DATA     BIT       ET1
      00000088H.5 SFRSYM    DATA     BIT       TF0
      00000088H.7 SFRSYM    DATA     BIT       TF1
      000000C8H.7 SFRSYM    DATA     BIT       TF2
      00000098H.2 SFRSYM    DATA     BIT       RB8
      000000D7H   SFRSYM    DATA     BYTE      FBD
      0000008CH   SFRSYM    DATA     BYTE      TH0
      000000A8H   SFRSYM    DATA     BIT       EX0
      00000088H   SFRSYM    DATA     BIT       IT0
      000000C6H   SFRSYM    DATA     BYTE      RH3
      0000008DH   SFRSYM    DATA     BYTE      TH1
      000000A8H.2 SFRSYM    DATA     BIT       EX1
      00000098H.3 SFRSYM    DATA     BIT       TB8
      00000088H.2 SFRSYM    DATA     BIT       IT1
      000000CDH   SFRSYM    DATA     BYTE      TH2
      000000D0H   SFRSYM    DATA     BIT       P
LX51 LINKER/LOCATER V4.66.41.0                                                        03/26/2019  15:13:05  PAGE 29


      000000FAH   SFRSYM    DATA     BYTE      PDTCNT
      00000098H.7 SFRSYM    DATA     BIT       SM0
      0000008AH   SFRSYM    DATA     BYTE      TL0
      00000098H.6 SFRSYM    DATA     BIT       SM1
      000000C5H   SFRSYM    DATA     BYTE      RL3
      0000008BH   SFRSYM    DATA     BYTE      TL1
      000000C0H.6 SFRSYM    DATA     BIT       I2CEN
      00000098H.5 SFRSYM    DATA     BIT       SM2
      000000CCH   SFRSYM    DATA     BYTE      TL2
      000000B1H   SFRSYM    DATA     BYTE      P0S
      0000009BH   SFRSYM    DATA     BYTE      EIE
      000000B8H.1 SFRSYM    DATA     BIT       PT0
      000000B3H   SFRSYM    DATA     BYTE      P1S
      000000D0H.3 SFRSYM    DATA     BIT       RS0
      000000B8H.3 SFRSYM    DATA     BIT       PT1
      000000BCH   SFRSYM    DATA     BYTE      I2DAT
      000000B5H   SFRSYM    DATA     BYTE      P2S
      000000D0H.4 SFRSYM    DATA     BIT       RS1
      00000088H.4 SFRSYM    DATA     BIT       TR0
      000000BEH   SFRSYM    DATA     BYTE      I2CLK
      000000ACH   SFRSYM    DATA     BYTE      P3S
      000000D8H.4 SFRSYM    DATA     BIT       CLRPWM
      00000088H.6 SFRSYM    DATA     BIT       TR1
      000000C8H.2 SFRSYM    DATA     BIT       TR2
      000000B8H   SFRSYM    DATA     BIT       PX0
      00000090H.4 SFRSYM    DATA     BIT       SDA
      000000FFH   SFRSYM    DATA     BYTE      EIPH1
      000000B8H.2 SFRSYM    DATA     BIT       PX1
      000000E8H   SFRSYM    DATA     BYTE      ADCCON0
      000000E1H   SFRSYM    DATA     BYTE      ADCCON1
      000000E2H   SFRSYM    DATA     BYTE      ADCCON2
      000000C0H   SFRSYM    DATA     BYTE      I2CON
      00000083H   SFRSYM    DATA     BYTE      DPH
      000000F8H.2 SFRSYM    DATA     BIT       RB8_1
      000000EFH   SFRSYM    DATA     BYTE      EIP
      000000F8H.3 SFRSYM    DATA     BIT       TB8_1
      000000ECH   SFRSYM    DATA     BYTE      PIF
      00000082H   SFRSYM    DATA     BYTE      DPL
      000000F8H.7 SFRSYM    DATA     BIT       SM0_1
      000000FCH   SFRSYM    DATA     BYTE      PMD
      000000B7H   SFRSYM    DATA     BYTE      IPH
      000000F8H.6 SFRSYM    DATA     BIT       SM1_1
      00000090H.3 SFRSYM    DATA     BIT       SCL
      000000BFH   SFRSYM    DATA     BYTE      I2TOC
      000000F8H.5 SFRSYM    DATA     BIT       SM2_1
      000000C3H   SFRSYM    DATA     BYTE      ADCRH
      000000A7H   SFRSYM    DATA     BYTE      IAPAH
      00000098H.4 SFRSYM    DATA     BIT       REN
      000000AEH   SFRSYM    DATA     BYTE      IAPFD
      00000092H   SFRSYM    DATA     BYTE      CAPCON0
      000000C0H   SFRSYM    DATA     BIT       I2CPX
      000000C9H   SFRSYM    DATA     BYTE      T2MOD
      000000C8H   SFRSYM    DATA     BYTE      T2CON
      000000C2H   SFRSYM    DATA     BYTE      ADCRL
      000000A3H   SFRSYM    DATA     BYTE      BODCON0
      00000093H   SFRSYM    DATA     BYTE      CAPCON1
      000000C0H.5 SFRSYM    DATA     BIT       STA
      000000C4H   SFRSYM    DATA     BYTE      T3CON
      000000ABH   SFRSYM    DATA     BYTE      BODCON1
      000000A6H   SFRSYM    DATA     BYTE      IAPAL
      00000094H   SFRSYM    DATA     BYTE      CAPCON2
      000000F1H   SFRSYM    DATA     BYTE      CAPCON3
      000000F2H   SFRSYM    DATA     BYTE      CAPCON4
      000000D8H.7 SFRSYM    DATA     BIT       PWMRUN
      000000F3H   SFRSYM    DATA     BYTE      SPCR2
LX51 LINKER/LOCATER V4.66.41.0                                                        03/26/2019  15:13:05  PAGE 30


      000000B9H   SFRSYM    DATA     BYTE      SADEN
      000000AFH   SFRSYM    DATA     BYTE      IAPCN
      000000D2H   SFRSYM    DATA     BYTE      PWM0H
      000000D6H   SFRSYM    DATA     BYTE      PNP
      000000D3H   SFRSYM    DATA     BYTE      PWM1H
      000000D4H   SFRSYM    DATA     BYTE      PWM2H
      000000A9H   SFRSYM    DATA     BYTE      SADDR
      0000008EH   SFRSYM    DATA     BYTE      CKCON
      000000D5H   SFRSYM    DATA     BYTE      PWM3H
      000000DAH   SFRSYM    DATA     BYTE      PWM0L
      000000C4H   SFRSYM    DATA     BYTE      PWM4H
      000000DBH   SFRSYM    DATA     BYTE      PWM1L
      000000C5H   SFRSYM    DATA     BYTE      PWM5H
      000000A2H   SFRSYM    DATA     BYTE      AUXR1
      00000095H   SFRSYM    DATA     BYTE      CKDIV
      000000DCH   SFRSYM    DATA     BYTE      PWM2L
      000000DDH   SFRSYM    DATA     BYTE      PWM3L
      00000086H   SFRSYM    DATA     BYTE      RWK
      000000D0H.5 SFRSYM    DATA     BIT       F0
      000000CCH   SFRSYM    DATA     BYTE      PWM4L
      000000F8H.4 SFRSYM    DATA     BIT       REN_1
      000000E8H.4 SFRSYM    DATA     BIT       ETGSEL0
      000000C0H.4 SFRSYM    DATA     BIT       STO
      000000CDH   SFRSYM    DATA     BYTE      PWM5L
      000000E8H.5 SFRSYM    DATA     BIT       ETGSEL1
      000000E9H   SFRSYM    DATA     BYTE      PICON
      000000DEH   SFRSYM    DATA     BYTE      PIOCON0
      000000D0H   SFRSYM    DATA     BYTE      PSW
      000000EAH   SFRSYM    DATA     BYTE      PINEN
      000000C6H   SFRSYM    DATA     BYTE      PIOCON1
      000000F9H   SFRSYM    DATA     BYTE      PDTEN
      000000AAH   SFRSYM    DATA     BYTE      WDCON
      000000EBH   SFRSYM    DATA     BYTE      PIPEN
      000000BAH   SFRSYM    DATA     BYTE      SADEN_1
      01000007H   SYMBOL    CODE     ---       pwm_disable
      01001AB2H   SYMBOL    CODE     ---       curve_get_duration
      01000011H   SYMBOL    CODE     ---       pwm_enable
      01001A78H   SYMBOL    CODE     ---       motion_time_left
      01001ABBH   SYMBOL    CODE     ---       curve_get_p0
      01001ACAH   SYMBOL    CODE     ---       curve_get_p1
      01001AA0H   SYMBOL    CODE     ---       curve_get_t0
      01001AA9H   SYMBOL    CODE     ---       curve_get_t1
      01001AD9H   SYMBOL    CODE     ---       curve_get_v0
      01001AE8H   SYMBOL    CODE     ---       curve_get_v1

      01001A78H   BLOCK     CODE     ---       LVL=0
      01001A78H   LINE      ---      ---       #28
      01001A78H   LINE      ---      ---       #31
      01001A78H   LINE      ---      ---       #34
      01001A9FH   LINE      ---      ---       #35
      ---         BLOCKEND  ---      ---       LVL=0

      01000011H   BLOCK     CODE     ---       LVL=0
      01000011H   LINE      ---      ---       #40
      01000011H   LINE      ---      ---       #41
      01000011H   LINE      ---      ---       #46
      ---         BLOCKEND  ---      ---       LVL=0

      01000007H   BLOCK     CODE     ---       LVL=0
      01000007H   LINE      ---      ---       #49
      01000007H   LINE      ---      ---       #50
      01000007H   LINE      ---      ---       #57
      ---         BLOCKEND  ---      ---       LVL=0

      01001AA0H   BLOCK     CODE     ---       LVL=0
LX51 LINKER/LOCATER V4.66.41.0                                                        03/26/2019  15:13:05  PAGE 31


      01001AA0H   LINE      ---      ---       #48
      ---         BLOCKEND  ---      ---       LVL=0

      01001AA9H   BLOCK     CODE     ---       LVL=0
      01001AA9H   LINE      ---      ---       #49
      ---         BLOCKEND  ---      ---       LVL=0

      01001AB2H   BLOCK     CODE     ---       LVL=0
      01001AB2H   LINE      ---      ---       #50
      ---         BLOCKEND  ---      ---       LVL=0

      01001ABBH   BLOCK     CODE     ---       LVL=0
      01001ABBH   LINE      ---      ---       #51
      ---         BLOCKEND  ---      ---       LVL=0

      01001ACAH   BLOCK     CODE     ---       LVL=0
      01001ACAH   LINE      ---      ---       #52
      ---         BLOCKEND  ---      ---       LVL=0

      01001AD9H   BLOCK     CODE     ---       LVL=0
      01001AD9H   LINE      ---      ---       #53
      ---         BLOCKEND  ---      ---       LVL=0

      01001AE8H   BLOCK     CODE     ---       LVL=0
      01001AE8H   LINE      ---      ---       #54
      ---         BLOCKEND  ---      ---       LVL=0

      01000E0EH   BLOCK     CODE     ---       LVL=0
      01000E0EH   LINE      ---      ---       #10
      01000E0EH   LINE      ---      ---       #11
      01000E0EH   BLOCK     CODE     NEAR LAB  LVL=1
      01000E0EH   LINE      ---      ---       #12
      01000E15H   LINE      ---      ---       #15
      01000E18H   LINE      ---      ---       #17
      01000E1EH   LINE      ---      ---       #18
      01000E22H   LINE      ---      ---       #19
      01000E2FH   LINE      ---      ---       #20
      01000E34H   LINE      ---      ---       #30
      01000E3DH   LINE      ---      ---       #31
      01000E46H   LINE      ---      ---       #32
      01000E4FH   LINE      ---      ---       #33
      01000E58H   LINE      ---      ---       #34
      01000E61H   LINE      ---      ---       #35
      01000E6AH   LINE      ---      ---       #36
      01000E73H   LINE      ---      ---       #38
      01000E75H   LINE      ---      ---       #40
      01000E78H   LINE      ---      ---       #41
      01000E7EH   LINE      ---      ---       #42
      01000E83H   LINE      ---      ---       #43
      01000E8BH   LINE      ---      ---       #44
      01000E8EH   LINE      ---      ---       #45
      01000E97H   LINE      ---      ---       #46
      01000E9EH   LINE      ---      ---       #47
      01000EA6H   LINE      ---      ---       #48
      01000EADH   LINE      ---      ---       #49
      01000EB7H   LINE      ---      ---       #50
      01000EC1H   LINE      ---      ---       #51
      01000EC1H   LINE      ---      ---       #52
      020001E3H   SYMBOL    XDATA    INT       Bias
      00000006H   SYMBOL    DATA     INT       position
      01000EC1H   BLOCK     CODE     NEAR LAB  LVL=2
      01000EC1H   LINE      ---      ---       #55
      01000EC8H   LINE      ---      ---       #56
      01000EEBH   LINE      ---      ---       #58
      01000EEEH   LINE      ---      ---       #59
LX51 LINKER/LOCATER V4.66.41.0                                                        03/26/2019  15:13:05  PAGE 32


      01000EF5H   LINE      ---      ---       #60
      01000EF8H   LINE      ---      ---       #61
      01000EFBH   LINE      ---      ---       #62
      01000EFBH   LINE      ---      ---       #63
      01000EFEH   LINE      ---      ---       #64
      01000EFEH   LINE      ---      ---       #66
      01000EFEH   LINE      ---      ---       #67
      01000F05H   LINE      ---      ---       #68
      01000F05H   LINE      ---      ---       #71
      01000F0CH   LINE      ---      ---       #72
      01000F1BH   LINE      ---      ---       #73
      01000F32H   LINE      ---      ---       #76
      01000F3CH   LINE      ---      ---       #77
      01000F3FH   LINE      ---      ---       #79
      01000F42H   LINE      ---      ---       #80
      01000F45H   LINE      ---      ---       #81
      01000F48H   LINE      ---      ---       #82
      01000F48H   LINE      ---      ---       #85
      01000F58H   LINE      ---      ---       #86
      01000F58H   LINE      ---      ---       #88
      01000F62H   LINE      ---      ---       #89
      01000F6CH   LINE      ---      ---       #92
      01000F8EH   LINE      ---      ---       #95
      01000FDEH   LINE      ---      ---       #97
      01000FE7H   LINE      ---      ---       #98
      01000FEAH   LINE      ---      ---       #108
      01000FEAH   LINE      ---      ---       #109
      020001E5H   SYMBOL    XDATA    INT       position
      020001E7H   SYMBOL    XDATA    INT       Bias
      ---         BLOCKEND  CODE     ---       LVL=2
      ---         BLOCKEND  CODE     ---       LVL=1
      ---         BLOCKEND  CODE     ---       LVL=0

      ---         MODULE    ---      ---       ADC
      02000096H   PUBLIC    XDATA    BYTE      adc_position_ready
      02000092H   PUBLIC    XDATA    DWORD     Voltage_Sum
      02000091H   PUBLIC    XDATA    BYTE      Current_Conut
      02000090H   PUBLIC    XDATA    BYTE      Voltage_Conut
      02000008H   PUBLIC    XDATA    ---       ADC_Filt
      00000021H.6 PUBLIC    BIT      BIT       full
      02000006H   PUBLIC    XDATA    WORD      adc_seek_position_value
      02000004H   PUBLIC    XDATA    WORD      adc_position_value
      02000000H   PUBLIC    XDATA    DWORD     Current_Sum
      01001D5FH   PUBLIC    CODE     ---       ADC_ISR
      01001BD7H   PUBLIC    CODE     ---       _Filter
      01001B76H   PUBLIC    CODE     ---       _INIT_Filter
      0100001EH   PUBLIC    CODE     ---       ADC_GO
      010017D1H   PUBLIC    CODE     ---       adc_init
      000000F6H   SFRSYM    DATA     BYTE      AINDIDS
      000000B1H   SFRSYM    DATA     BYTE      P0M1
      000000B3H   SFRSYM    DATA     BYTE      P1M1
      000000B2H   SFRSYM    DATA     BYTE      P0M2
      00000080H   SFRSYM    DATA     BYTE      P0
      000000BBH   SFRSYM    DATA     BYTE      SADDR_1
      000000B4H   SFRSYM    DATA     BYTE      P1M2
      00000090H   SFRSYM    DATA     BYTE      P1
      000000C0H.2 SFRSYM    DATA     BIT       AA
      000000ACH   SFRSYM    DATA     BYTE      P3M1
      000000A0H   SFRSYM    DATA     BYTE      P2
      000000B0H   SFRSYM    DATA     BYTE      P3
      000000ADH   SFRSYM    DATA     BYTE      P3M2
      000000D0H.6 SFRSYM    DATA     BIT       AC
      0000008FH   SFRSYM    DATA     BYTE      WKCON
      0000009CH   SFRSYM    DATA     BYTE      EIE1
      000000A8H.7 SFRSYM    DATA     BIT       EA
LX51 LINKER/LOCATER V4.66.41.0                                                        03/26/2019  15:13:05  PAGE 33


      000000D8H   SFRSYM    DATA     BYTE      PWMCON0
      000000DFH   SFRSYM    DATA     BYTE      PWMCON1
      00000098H.7 SFRSYM    DATA     BIT       FE
      000000A8H.6 SFRSYM    DATA     BIT       EADC
      000000D1H   SFRSYM    DATA     BYTE      PWMPH
      000000A8H   SFRSYM    DATA     BYTE      IE
      00000096H   SFRSYM    DATA     BYTE      CKSWT
      000000E8H.7 SFRSYM    DATA     BIT       ADCF
      000000FEH   SFRSYM    DATA     BYTE      EIP1
      000000D9H   SFRSYM    DATA     BYTE      PWMPL
      000000E8H   SFRSYM    DATA     BIT       ADCHS0
      000000C7H   SFRSYM    DATA     BYTE      TA
      000000E8H.1 SFRSYM    DATA     BIT       ADCHS1
      000000E8H.2 SFRSYM    DATA     BIT       ADCHS2
      000000E8H.3 SFRSYM    DATA     BIT       ADCHS3
      000000A8H.4 SFRSYM    DATA     BIT       ES
      000000C1H   SFRSYM    DATA     BYTE      I2ADDR
      000000B8H.6 SFRSYM    DATA     BIT       PADC
      000000B8H   SFRSYM    DATA     BYTE      IP
      000000A8H.5 SFRSYM    DATA     BIT       EBOD
      00000098H   SFRSYM    DATA     BIT       RI
      000000F8H.7 SFRSYM    DATA     BIT       FE_1
      000000E8H.6 SFRSYM    DATA     BIT       ADCS
      000000D0H.7 SFRSYM    DATA     BIT       CY
      000000C0H.3 SFRSYM    DATA     BIT       SI
      000000B0H   SFRSYM    DATA     BIT       INT0
      00000098H.1 SFRSYM    DATA     BIT       TI
      000000D8H.6 SFRSYM    DATA     BIT       LOAD
      00000097H   SFRSYM    DATA     BYTE      CKEN
      000000B8H.4 SFRSYM    DATA     BIT       PS
      00000081H   SFRSYM    DATA     BYTE      SP
      000000D0H.2 SFRSYM    DATA     BIT       OV
      000000B7H   SFRSYM    DATA     BYTE      PWMINTC
      000000B8H.5 SFRSYM    DATA     BIT       PBOD
      000000B2H   SFRSYM    DATA     BYTE      P0SR
      000000F7H   SFRSYM    DATA     BYTE      EIPH
      000000B4H   SFRSYM    DATA     BYTE      P1SR
      000000ADH   SFRSYM    DATA     BYTE      P3SR
      000000F8H   SFRSYM    DATA     BIT       RI_1
      000000F8H.1 SFRSYM    DATA     BIT       TI_1
      000000CBH   SFRSYM    DATA     BYTE      RCMP2H
      000000CFH   SFRSYM    DATA     BYTE      ADCMPH
      00000080H   SFRSYM    DATA     BIT       P00
      00000090H   SFRSYM    DATA     BIT       P10
      00000080H.1 SFRSYM    DATA     BIT       P01
      000000FBH   SFRSYM    DATA     BYTE      PMEN
      00000099H   SFRSYM    DATA     BYTE      SBUF
      00000087H   SFRSYM    DATA     BYTE      PCON
      000000A0H   SFRSYM    DATA     BIT       P20
      00000090H.1 SFRSYM    DATA     BIT       P11
      00000080H.2 SFRSYM    DATA     BIT       P02
      000000CAH   SFRSYM    DATA     BYTE      RCMP2L
      000000B0H   SFRSYM    DATA     BIT       P30
      00000090H.2 SFRSYM    DATA     BIT       P12
      00000080H.3 SFRSYM    DATA     BIT       P03
      000000E3H   SFRSYM    DATA     BYTE      ADCDLY
      000000CEH   SFRSYM    DATA     BYTE      ADCMPL
      00000090H.3 SFRSYM    DATA     BIT       P13
      00000080H.4 SFRSYM    DATA     BIT       P04
      00000098H   SFRSYM    DATA     BYTE      SCON
      00000090H.4 SFRSYM    DATA     BIT       P14
      00000080H.5 SFRSYM    DATA     BIT       P05
      00000089H   SFRSYM    DATA     BYTE      TMOD
      00000088H   SFRSYM    DATA     BYTE      TCON
      00000090H.5 SFRSYM    DATA     BIT       P15
LX51 LINKER/LOCATER V4.66.41.0                                                        03/26/2019  15:13:05  PAGE 34


      00000080H.6 SFRSYM    DATA     BIT       P06
      00000090H.6 SFRSYM    DATA     BIT       P16
      00000080H.7 SFRSYM    DATA     BIT       P07
      00000090H.7 SFRSYM    DATA     BIT       P17
      000000F3H   SFRSYM    DATA     BYTE      SPCR
      000000BDH   SFRSYM    DATA     BYTE      I2STAT
      000000F5H   SFRSYM    DATA     BYTE      SPDR
      000000D8H.5 SFRSYM    DATA     BIT       PWMF
      000000E5H   SFRSYM    DATA     BYTE      C0H
      000000E7H   SFRSYM    DATA     BYTE      C1H
      000000EEH   SFRSYM    DATA     BYTE      C2H
      0000009FH   SFRSYM    DATA     BYTE      CHPCON
      00000088H.1 SFRSYM    DATA     BIT       IE0
      00000088H.3 SFRSYM    DATA     BIT       IE1
      000000E4H   SFRSYM    DATA     BYTE      C0L
      00000091H   SFRSYM    DATA     BYTE      SFRS
      000000E6H   SFRSYM    DATA     BYTE      C1L
      000000C8H   SFRSYM    DATA     BIT       CM_RL2
      000000F0H   SFRSYM    DATA     BYTE      B
      000000EDH   SFRSYM    DATA     BYTE      C2L
      0000009AH   SFRSYM    DATA     BYTE      SBUF_1
      000000A5H   SFRSYM    DATA     BYTE      IAPUEN
      000000F8H   SFRSYM    DATA     BYTE      SCON_1
      000000E0H   SFRSYM    DATA     BYTE      ACC
      000000A8H.1 SFRSYM    DATA     BIT       ET0
      000000F4H   SFRSYM    DATA     BYTE      SPSR
      000000A4H   SFRSYM    DATA     BYTE      IAPTRG
      000000A8H.3 SFRSYM    DATA     BIT       ET1
      00000088H.5 SFRSYM    DATA     BIT       TF0
      00000088H.7 SFRSYM    DATA     BIT       TF1
      000000C8H.7 SFRSYM    DATA     BIT       TF2
      00000098H.2 SFRSYM    DATA     BIT       RB8
      000000D7H   SFRSYM    DATA     BYTE      FBD
      0000008CH   SFRSYM    DATA     BYTE      TH0
      000000A8H   SFRSYM    DATA     BIT       EX0
      00000088H   SFRSYM    DATA     BIT       IT0
      000000C6H   SFRSYM    DATA     BYTE      RH3
      0000008DH   SFRSYM    DATA     BYTE      TH1
      000000A8H.2 SFRSYM    DATA     BIT       EX1
      00000098H.3 SFRSYM    DATA     BIT       TB8
      00000088H.2 SFRSYM    DATA     BIT       IT1
      000000CDH   SFRSYM    DATA     BYTE      TH2
      000000D0H   SFRSYM    DATA     BIT       P
      000000FAH   SFRSYM    DATA     BYTE      PDTCNT
      00000098H.7 SFRSYM    DATA     BIT       SM0
      0000008AH   SFRSYM    DATA     BYTE      TL0
      00000098H.6 SFRSYM    DATA     BIT       SM1
      000000C5H   SFRSYM    DATA     BYTE      RL3
      0000008BH   SFRSYM    DATA     BYTE      TL1
      000000C0H.6 SFRSYM    DATA     BIT       I2CEN
      00000098H.5 SFRSYM    DATA     BIT       SM2
      000000CCH   SFRSYM    DATA     BYTE      TL2
      000000B1H   SFRSYM    DATA     BYTE      P0S
      0000009BH   SFRSYM    DATA     BYTE      EIE
      000000B8H.1 SFRSYM    DATA     BIT       PT0
      000000B3H   SFRSYM    DATA     BYTE      P1S
      000000D0H.3 SFRSYM    DATA     BIT       RS0
      000000B8H.3 SFRSYM    DATA     BIT       PT1
      000000BCH   SFRSYM    DATA     BYTE      I2DAT
      000000B5H   SFRSYM    DATA     BYTE      P2S
      000000D0H.4 SFRSYM    DATA     BIT       RS1
      00000088H.4 SFRSYM    DATA     BIT       TR0
      000000BEH   SFRSYM    DATA     BYTE      I2CLK
      000000ACH   SFRSYM    DATA     BYTE      P3S
      000000D8H.4 SFRSYM    DATA     BIT       CLRPWM
LX51 LINKER/LOCATER V4.66.41.0                                                        03/26/2019  15:13:05  PAGE 35


      00000088H.6 SFRSYM    DATA     BIT       TR1
      000000C8H.2 SFRSYM    DATA     BIT       TR2
      000000B8H   SFRSYM    DATA     BIT       PX0
      00000090H.4 SFRSYM    DATA     BIT       SDA
      000000FFH   SFRSYM    DATA     BYTE      EIPH1
      000000B8H.2 SFRSYM    DATA     BIT       PX1
      000000E8H   SFRSYM    DATA     BYTE      ADCCON0
      000000E1H   SFRSYM    DATA     BYTE      ADCCON1
      000000E2H   SFRSYM    DATA     BYTE      ADCCON2
      000000C0H   SFRSYM    DATA     BYTE      I2CON
      00000083H   SFRSYM    DATA     BYTE      DPH
      000000F8H.2 SFRSYM    DATA     BIT       RB8_1
      000000EFH   SFRSYM    DATA     BYTE      EIP
      000000F8H.3 SFRSYM    DATA     BIT       TB8_1
      000000ECH   SFRSYM    DATA     BYTE      PIF
      00000082H   SFRSYM    DATA     BYTE      DPL
      000000F8H.7 SFRSYM    DATA     BIT       SM0_1
      000000FCH   SFRSYM    DATA     BYTE      PMD
      000000B7H   SFRSYM    DATA     BYTE      IPH
      000000F8H.6 SFRSYM    DATA     BIT       SM1_1
      00000090H.3 SFRSYM    DATA     BIT       SCL
      000000BFH   SFRSYM    DATA     BYTE      I2TOC
      000000F8H.5 SFRSYM    DATA     BIT       SM2_1
      000000C3H   SFRSYM    DATA     BYTE      ADCRH
      000000A7H   SFRSYM    DATA     BYTE      IAPAH
      00000098H.4 SFRSYM    DATA     BIT       REN
      000000AEH   SFRSYM    DATA     BYTE      IAPFD
      00000092H   SFRSYM    DATA     BYTE      CAPCON0
      000000C0H   SFRSYM    DATA     BIT       I2CPX
      000000C9H   SFRSYM    DATA     BYTE      T2MOD
      000000C8H   SFRSYM    DATA     BYTE      T2CON
      000000C2H   SFRSYM    DATA     BYTE      ADCRL
      000000A3H   SFRSYM    DATA     BYTE      BODCON0
      00000093H   SFRSYM    DATA     BYTE      CAPCON1
      000000C0H.5 SFRSYM    DATA     BIT       STA
      000000C4H   SFRSYM    DATA     BYTE      T3CON
      000000ABH   SFRSYM    DATA     BYTE      BODCON1
      000000A6H   SFRSYM    DATA     BYTE      IAPAL
      00000094H   SFRSYM    DATA     BYTE      CAPCON2
      000000F1H   SFRSYM    DATA     BYTE      CAPCON3
      000000F2H   SFRSYM    DATA     BYTE      CAPCON4
      000000D8H.7 SFRSYM    DATA     BIT       PWMRUN
      000000F3H   SFRSYM    DATA     BYTE      SPCR2
      000000B9H   SFRSYM    DATA     BYTE      SADEN
      000000AFH   SFRSYM    DATA     BYTE      IAPCN
      000000D2H   SFRSYM    DATA     BYTE      PWM0H
      000000D6H   SFRSYM    DATA     BYTE      PNP
      000000D3H   SFRSYM    DATA     BYTE      PWM1H
      000000D4H   SFRSYM    DATA     BYTE      PWM2H
      000000A9H   SFRSYM    DATA     BYTE      SADDR
      0000008EH   SFRSYM    DATA     BYTE      CKCON
      000000D5H   SFRSYM    DATA     BYTE      PWM3H
      000000DAH   SFRSYM    DATA     BYTE      PWM0L
      000000C4H   SFRSYM    DATA     BYTE      PWM4H
      000000DBH   SFRSYM    DATA     BYTE      PWM1L
      000000C5H   SFRSYM    DATA     BYTE      PWM5H
      000000A2H   SFRSYM    DATA     BYTE      AUXR1
      00000095H   SFRSYM    DATA     BYTE      CKDIV
      000000DCH   SFRSYM    DATA     BYTE      PWM2L
      000000DDH   SFRSYM    DATA     BYTE      PWM3L
      00000086H   SFRSYM    DATA     BYTE      RWK
      000000D0H.5 SFRSYM    DATA     BIT       F0
      000000CCH   SFRSYM    DATA     BYTE      PWM4L
      000000F8H.4 SFRSYM    DATA     BIT       REN_1
      000000E8H.4 SFRSYM    DATA     BIT       ETGSEL0
LX51 LINKER/LOCATER V4.66.41.0                                                        03/26/2019  15:13:05  PAGE 36


      000000C0H.4 SFRSYM    DATA     BIT       STO
      000000CDH   SFRSYM    DATA     BYTE      PWM5L
      000000E8H.5 SFRSYM    DATA     BIT       ETGSEL1
      000000E9H   SFRSYM    DATA     BYTE      PICON
      000000DEH   SFRSYM    DATA     BYTE      PIOCON0
      000000D0H   SFRSYM    DATA     BYTE      PSW
      000000EAH   SFRSYM    DATA     BYTE      PINEN
      000000C6H   SFRSYM    DATA     BYTE      PIOCON1
      000000F9H   SFRSYM    DATA     BYTE      PDTEN
      000000AAH   SFRSYM    DATA     BYTE      WDCON
      000000EBH   SFRSYM    DATA     BYTE      PIPEN
      000000BAH   SFRSYM    DATA     BYTE      SADEN_1
      01000015H   SYMBOL    CODE     ---       pwm_disable
      01001B31H   SYMBOL    CODE     ---       curve_get_duration
      01000012H   SYMBOL    CODE     ---       pwm_enable
      01001AF7H   SYMBOL    CODE     ---       motion_time_left
      01001B3AH   SYMBOL    CODE     ---       curve_get_p0
      01001B49H   SYMBOL    CODE     ---       curve_get_p1
      01001B1FH   SYMBOL    CODE     ---       curve_get_t0
      01001B28H   SYMBOL    CODE     ---       curve_get_t1
      01001B58H   SYMBOL    CODE     ---       curve_get_v0
      01001B67H   SYMBOL    CODE     ---       curve_get_v1

      01001AF7H   BLOCK     CODE     ---       LVL=0
      01001AF7H   LINE      ---      ---       #28
      01001AF7H   LINE      ---      ---       #31
      01001AF7H   LINE      ---      ---       #34
      01001B1EH   LINE      ---      ---       #35
      ---         BLOCKEND  ---      ---       LVL=0

      01000012H   BLOCK     CODE     ---       LVL=0
      01000012H   LINE      ---      ---       #40
      01000012H   LINE      ---      ---       #41
      01000012H   LINE      ---      ---       #46
      ---         BLOCKEND  ---      ---       LVL=0

      01000015H   BLOCK     CODE     ---       LVL=0
      01000015H   LINE      ---      ---       #49
      01000015H   LINE      ---      ---       #50
      01000015H   LINE      ---      ---       #57
      ---         BLOCKEND  ---      ---       LVL=0

      01001B1FH   BLOCK     CODE     ---       LVL=0
      01001B1FH   LINE      ---      ---       #48
      ---         BLOCKEND  ---      ---       LVL=0

      01001B28H   BLOCK     CODE     ---       LVL=0
      01001B28H   LINE      ---      ---       #49
      ---         BLOCKEND  ---      ---       LVL=0

      01001B31H   BLOCK     CODE     ---       LVL=0
      01001B31H   LINE      ---      ---       #50
      ---         BLOCKEND  ---      ---       LVL=0

      01001B3AH   BLOCK     CODE     ---       LVL=0
      01001B3AH   LINE      ---      ---       #51
      ---         BLOCKEND  ---      ---       LVL=0

      01001B49H   BLOCK     CODE     ---       LVL=0
      01001B49H   LINE      ---      ---       #52
      ---         BLOCKEND  ---      ---       LVL=0

      01001B58H   BLOCK     CODE     ---       LVL=0
      01001B58H   LINE      ---      ---       #53
      ---         BLOCKEND  ---      ---       LVL=0
LX51 LINKER/LOCATER V4.66.41.0                                                        03/26/2019  15:13:05  PAGE 37



      01001B67H   BLOCK     CODE     ---       LVL=0
      01001B67H   LINE      ---      ---       #54
      ---         BLOCKEND  ---      ---       LVL=0

      010017D1H   BLOCK     CODE     ---       LVL=0
      010017D1H   LINE      ---      ---       #15
      010017D1H   LINE      ---      ---       #16
      010017D1H   LINE      ---      ---       #18
      010017D6H   LINE      ---      ---       #19
      010017DCH   LINE      ---      ---       #20
      010017DFH   LINE      ---      ---       #21
      010017E2H   LINE      ---      ---       #22
      010017E4H   LINE      ---      ---       #23
      ---         BLOCKEND  ---      ---       LVL=0

      0100001EH   BLOCK     CODE     ---       LVL=0
      0100001EH   LINE      ---      ---       #29
      0100001EH   LINE      ---      ---       #30
      0100001EH   LINE      ---      ---       #31
      01000021H   LINE      ---      ---       #32
      01000023H   LINE      ---      ---       #33
      01000025H   LINE      ---      ---       #34
      ---         BLOCKEND  ---      ---       LVL=0

      01001B76H   BLOCK     CODE     ---       LVL=0
      01001B76H   LINE      ---      ---       #37
      01001B81H   LINE      ---      ---       #38
      020001E9H   SYMBOL    XDATA    ---       Filt_Dev
      00000005H   SYMBOL    DATA     BYTE      Depth
      01001B81H   BLOCK     CODE     NEAR LAB  LVL=1
      01001B83H   LINE      ---      ---       #40
      01001B86H   LINE      ---      ---       #41
      01001B98H   LINE      ---      ---       #42
      01001B9EH   LINE      ---      ---       #43
      01001B9EH   LINE      ---      ---       #44
      01001BBEH   LINE      ---      ---       #45
      01001BC1H   LINE      ---      ---       #46
      01001BD6H   LINE      ---      ---       #48
      00000007H   SYMBOL    DATA     BYTE      i
      ---         BLOCKEND  CODE     ---       LVL=1
      ---         BLOCKEND  CODE     ---       LVL=0

      01001BD7H   BLOCK     CODE     ---       LVL=0
      01001BD7H   LINE      ---      ---       #56
      01001BE8H   LINE      ---      ---       #57
      02000205H   SYMBOL    XDATA    ---       Filt_Dev
      02000208H   SYMBOL    XDATA    WORD      date
      01001BE8H   BLOCK     CODE     NEAR LAB  LVL=1
      01001BEDH   LINE      ---      ---       #59
      01001C5DH   LINE      ---      ---       #60
      01001C99H   LINE      ---      ---       #61
      01001CD2H   LINE      ---      ---       #62
      01001CE2H   LINE      ---      ---       #63
      01001CF7H   LINE      ---      ---       #64
      01001D03H   LINE      ---      ---       #65
      01001D05H   LINE      ---      ---       #66
      01001D05H   LINE      ---      ---       #67
      01001D08H   LINE      ---      ---       #68
      01001D49H   LINE      ---      ---       #70
      01001D56H   LINE      ---      ---       #71
      01001D5EH   LINE      ---      ---       #72
      0200020AH   SYMBOL    XDATA    WORD      Aver_date
      ---         BLOCKEND  CODE     ---       LVL=1
      ---         BLOCKEND  CODE     ---       LVL=0
LX51 LINKER/LOCATER V4.66.41.0                                                        03/26/2019  15:13:05  PAGE 38



      01001D5FH   BLOCK     CODE     ---       LVL=0
      01001D7CH   LINE      ---      ---       #82
      01001D7CH   BLOCK     CODE     NEAR LAB  LVL=1
      01001D7CH   LINE      ---      ---       #84
      01001D96H   LINE      ---      ---       #85
      01001D98H   LINE      ---      ---       #86
      01001D9AH   LINE      ---      ---       #87
      01001D9AH   LINE      ---      ---       #88
      01001D9CH   LINE      ---      ---       #89
      01001DAFH   LINE      ---      ---       #90
      01001DAFH   LINE      ---      ---       #92
      01001DAFH   LINE      ---      ---       #93
      01001DC7H   LINE      ---      ---       #94
      01001DCDH   LINE      ---      ---       #96
      01001DCFH   LINE      ---      ---       #97
      01001DD1H   LINE      ---      ---       #101
      01001DD1H   LINE      ---      ---       #103
      01001DD7H   LINE      ---      ---       #104
      01001E02H   LINE      ---      ---       #105
      01001E09H   LINE      ---      ---       #106
      01001E24H   LINE      ---      ---       #107
      01001E2EH   LINE      ---      ---       #108
      01001E33H   LINE      ---      ---       #109
      01001E42H   LINE      ---      ---       #110
      01001E45H   LINE      ---      ---       #111
      01001E47H   LINE      ---      ---       #113
      01001E49H   LINE      ---      ---       #114
      01001E49H   LINE      ---      ---       #115
      01001E4FH   LINE      ---      ---       #116
      01001E7AH   LINE      ---      ---       #117
      01001E81H   LINE      ---      ---       #118
      01001E9CH   LINE      ---      ---       #119
      01001EA6H   LINE      ---      ---       #120
      01001EABH   LINE      ---      ---       #122
      01001EAEH   LINE      ---      ---       #123
      01001EB0H   LINE      ---      ---       #124
      01001EB0H   LINE      ---      ---       #126
      01001EB0H   LINE      ---      ---       #128
      02000203H   SYMBOL    XDATA    WORD      new_value
      ---         BLOCKEND  CODE     ---       LVL=1
      ---         BLOCKEND  CODE     ---       LVL=0

      ---         MODULE    ---      ---       BK2421_INITIALIZE
      020001B0H   PUBLIC    XDATA    ---       Tx_Address
      020001AFH   PUBLIC    XDATA    BYTE      op_status
      020001AAH   PUBLIC    XDATA    ---       Work_Address
      020001A5H   PUBLIC    XDATA    ---       Work_Frequency
      020001A4H   PUBLIC    XDATA    BYTE      Lost_time
      00000021H.4 PUBLIC    BIT      BIT       Lost_Signal_f
      00000021H.3 PUBLIC    BIT      BIT       Bind_On
      020001A3H   PUBLIC    XDATA    BYTE      Channel_Number
      02000183H   PUBLIC    XDATA    ---       rx_buf
      01000C8BH   PUBLIC    CONST    ---       Bank0_Reg
      01000C80H   PUBLIC    CONST    ---       Bank1_Reg14
      01000C48H   PUBLIC    CONST    ---       Bank1_Reg0_13
      01000C43H   PUBLIC    CONST    ---       RX_P1_Addr
      01000C3EH   PUBLIC    CONST    ---       RX_P0_Addr
      01002007H   PUBLIC    CODE     ---       Receive_Packet
      01001799H   PUBLIC    CODE     ---       Work_Hop
      01001F8AH   PUBLIC    CODE     ---       _Load_RF_Date
      0100149BH   PUBLIC    CODE     ---       BK2421_Initialize
      010017C2H   PUBLIC    CODE     ---       _SetChannelNum
      0100174CH   PUBLIC    CODE     ---       _SwitchCFG
      01001768H   PUBLIC    CODE     ---       SwitchToTxMode
LX51 LINKER/LOCATER V4.66.41.0                                                        03/26/2019  15:13:05  PAGE 39


      0100172AH   PUBLIC    CODE     ---       SwitchToRxMode
      020001EFH   PUBLIC    XDATA    BYTE      ?_SPI_Write_Buf?BYTE
      010016BCH   PUBLIC    CODE     ---       _SPI_Write_Buf
      020001EBH   PUBLIC    XDATA    BYTE      ?_SPI_Read_Buf?BYTE
      01001F4AH   PUBLIC    CODE     ---       _SPI_Read_Buf
      010016ACH   PUBLIC    CODE     ---       _SPI_Read_Reg
      010016F8H   PUBLIC    CODE     ---       _SPI_Write_Reg
      01001708H   PUBLIC    CODE     ---       _SPI_RW
      01001780H   PUBLIC    CODE     ---       _DelayMs
      000000F6H   SFRSYM    DATA     BYTE      AINDIDS
      000000B1H   SFRSYM    DATA     BYTE      P0M1
      000000B3H   SFRSYM    DATA     BYTE      P1M1
      000000B2H   SFRSYM    DATA     BYTE      P0M2
      00000080H   SFRSYM    DATA     BYTE      P0
      000000BBH   SFRSYM    DATA     BYTE      SADDR_1
      000000B4H   SFRSYM    DATA     BYTE      P1M2
      00000090H   SFRSYM    DATA     BYTE      P1
      000000C0H.2 SFRSYM    DATA     BIT       AA
      000000ACH   SFRSYM    DATA     BYTE      P3M1
      000000A0H   SFRSYM    DATA     BYTE      P2
      000000B0H   SFRSYM    DATA     BYTE      P3
      000000ADH   SFRSYM    DATA     BYTE      P3M2
      000000D0H.6 SFRSYM    DATA     BIT       AC
      0000008FH   SFRSYM    DATA     BYTE      WKCON
      0000009CH   SFRSYM    DATA     BYTE      EIE1
      000000A8H.7 SFRSYM    DATA     BIT       EA
      000000D8H   SFRSYM    DATA     BYTE      PWMCON0
      000000DFH   SFRSYM    DATA     BYTE      PWMCON1
      00000098H.7 SFRSYM    DATA     BIT       FE
      000000A8H.6 SFRSYM    DATA     BIT       EADC
      000000D1H   SFRSYM    DATA     BYTE      PWMPH
      000000A8H   SFRSYM    DATA     BYTE      IE
      00000096H   SFRSYM    DATA     BYTE      CKSWT
      000000E8H.7 SFRSYM    DATA     BIT       ADCF
      000000FEH   SFRSYM    DATA     BYTE      EIP1
      000000D9H   SFRSYM    DATA     BYTE      PWMPL
      000000E8H   SFRSYM    DATA     BIT       ADCHS0
      000000C7H   SFRSYM    DATA     BYTE      TA
      000000E8H.1 SFRSYM    DATA     BIT       ADCHS1
      000000E8H.2 SFRSYM    DATA     BIT       ADCHS2
      000000E8H.3 SFRSYM    DATA     BIT       ADCHS3
      000000A8H.4 SFRSYM    DATA     BIT       ES
      000000C1H   SFRSYM    DATA     BYTE      I2ADDR
      000000B8H.6 SFRSYM    DATA     BIT       PADC
      000000B8H   SFRSYM    DATA     BYTE      IP
      000000A8H.5 SFRSYM    DATA     BIT       EBOD
      00000098H   SFRSYM    DATA     BIT       RI
      000000F8H.7 SFRSYM    DATA     BIT       FE_1
      000000E8H.6 SFRSYM    DATA     BIT       ADCS
      000000D0H.7 SFRSYM    DATA     BIT       CY
      000000C0H.3 SFRSYM    DATA     BIT       SI
      000000B0H   SFRSYM    DATA     BIT       INT0
      00000098H.1 SFRSYM    DATA     BIT       TI
      000000D8H.6 SFRSYM    DATA     BIT       LOAD
      00000097H   SFRSYM    DATA     BYTE      CKEN
      000000B8H.4 SFRSYM    DATA     BIT       PS
      00000081H   SFRSYM    DATA     BYTE      SP
      000000D0H.2 SFRSYM    DATA     BIT       OV
      000000B7H   SFRSYM    DATA     BYTE      PWMINTC
      000000B8H.5 SFRSYM    DATA     BIT       PBOD
      000000B2H   SFRSYM    DATA     BYTE      P0SR
      000000F7H   SFRSYM    DATA     BYTE      EIPH
      000000B4H   SFRSYM    DATA     BYTE      P1SR
      000000ADH   SFRSYM    DATA     BYTE      P3SR
      000000F8H   SFRSYM    DATA     BIT       RI_1
LX51 LINKER/LOCATER V4.66.41.0                                                        03/26/2019  15:13:05  PAGE 40


      000000F8H.1 SFRSYM    DATA     BIT       TI_1
      000000CBH   SFRSYM    DATA     BYTE      RCMP2H
      000000CFH   SFRSYM    DATA     BYTE      ADCMPH
      00000080H   SFRSYM    DATA     BIT       P00
      00000090H   SFRSYM    DATA     BIT       P10
      00000080H.1 SFRSYM    DATA     BIT       P01
      000000FBH   SFRSYM    DATA     BYTE      PMEN
      00000099H   SFRSYM    DATA     BYTE      SBUF
      00000087H   SFRSYM    DATA     BYTE      PCON
      000000A0H   SFRSYM    DATA     BIT       P20
      00000090H.1 SFRSYM    DATA     BIT       P11
      00000080H.2 SFRSYM    DATA     BIT       P02
      000000CAH   SFRSYM    DATA     BYTE      RCMP2L
      000000B0H   SFRSYM    DATA     BIT       P30
      00000090H.2 SFRSYM    DATA     BIT       P12
      00000080H.3 SFRSYM    DATA     BIT       P03
      000000E3H   SFRSYM    DATA     BYTE      ADCDLY
      000000CEH   SFRSYM    DATA     BYTE      ADCMPL
      00000090H.3 SFRSYM    DATA     BIT       P13
      00000080H.4 SFRSYM    DATA     BIT       P04
      00000098H   SFRSYM    DATA     BYTE      SCON
      00000090H.4 SFRSYM    DATA     BIT       P14
      00000080H.5 SFRSYM    DATA     BIT       P05
      00000089H   SFRSYM    DATA     BYTE      TMOD
      00000088H   SFRSYM    DATA     BYTE      TCON
      00000090H.5 SFRSYM    DATA     BIT       P15
      00000080H.6 SFRSYM    DATA     BIT       P06
      00000090H.6 SFRSYM    DATA     BIT       P16
      00000080H.7 SFRSYM    DATA     BIT       P07
      00000090H.7 SFRSYM    DATA     BIT       P17
      000000F3H   SFRSYM    DATA     BYTE      SPCR
      000000BDH   SFRSYM    DATA     BYTE      I2STAT
      000000F5H   SFRSYM    DATA     BYTE      SPDR
      000000D8H.5 SFRSYM    DATA     BIT       PWMF
      000000E5H   SFRSYM    DATA     BYTE      C0H
      000000E7H   SFRSYM    DATA     BYTE      C1H
      000000EEH   SFRSYM    DATA     BYTE      C2H
      0000009FH   SFRSYM    DATA     BYTE      CHPCON
      00000088H.1 SFRSYM    DATA     BIT       IE0
      00000088H.3 SFRSYM    DATA     BIT       IE1
      000000E4H   SFRSYM    DATA     BYTE      C0L
      00000091H   SFRSYM    DATA     BYTE      SFRS
      000000E6H   SFRSYM    DATA     BYTE      C1L
      000000C8H   SFRSYM    DATA     BIT       CM_RL2
      000000F0H   SFRSYM    DATA     BYTE      B
      000000EDH   SFRSYM    DATA     BYTE      C2L
      0000009AH   SFRSYM    DATA     BYTE      SBUF_1
      000000A5H   SFRSYM    DATA     BYTE      IAPUEN
      000000F8H   SFRSYM    DATA     BYTE      SCON_1
      000000E0H   SFRSYM    DATA     BYTE      ACC
      000000A8H.1 SFRSYM    DATA     BIT       ET0
      000000F4H   SFRSYM    DATA     BYTE      SPSR
      000000A4H   SFRSYM    DATA     BYTE      IAPTRG
      000000A8H.3 SFRSYM    DATA     BIT       ET1
      00000088H.5 SFRSYM    DATA     BIT       TF0
      00000088H.7 SFRSYM    DATA     BIT       TF1
      000000C8H.7 SFRSYM    DATA     BIT       TF2
      00000098H.2 SFRSYM    DATA     BIT       RB8
      000000D7H   SFRSYM    DATA     BYTE      FBD
      0000008CH   SFRSYM    DATA     BYTE      TH0
      000000A8H   SFRSYM    DATA     BIT       EX0
      00000088H   SFRSYM    DATA     BIT       IT0
      000000C6H   SFRSYM    DATA     BYTE      RH3
      0000008DH   SFRSYM    DATA     BYTE      TH1
      000000A8H.2 SFRSYM    DATA     BIT       EX1
LX51 LINKER/LOCATER V4.66.41.0                                                        03/26/2019  15:13:05  PAGE 41


      00000098H.3 SFRSYM    DATA     BIT       TB8
      00000088H.2 SFRSYM    DATA     BIT       IT1
      000000CDH   SFRSYM    DATA     BYTE      TH2
      000000D0H   SFRSYM    DATA     BIT       P
      000000FAH   SFRSYM    DATA     BYTE      PDTCNT
      00000098H.7 SFRSYM    DATA     BIT       SM0
      0000008AH   SFRSYM    DATA     BYTE      TL0
      00000098H.6 SFRSYM    DATA     BIT       SM1
      000000C5H   SFRSYM    DATA     BYTE      RL3
      0000008BH   SFRSYM    DATA     BYTE      TL1
      000000C0H.6 SFRSYM    DATA     BIT       I2CEN
      00000098H.5 SFRSYM    DATA     BIT       SM2
      000000CCH   SFRSYM    DATA     BYTE      TL2
      000000B1H   SFRSYM    DATA     BYTE      P0S
      0000009BH   SFRSYM    DATA     BYTE      EIE
      000000B8H.1 SFRSYM    DATA     BIT       PT0
      000000B3H   SFRSYM    DATA     BYTE      P1S
      000000D0H.3 SFRSYM    DATA     BIT       RS0
      000000B8H.3 SFRSYM    DATA     BIT       PT1
      000000BCH   SFRSYM    DATA     BYTE      I2DAT
      000000B5H   SFRSYM    DATA     BYTE      P2S
      000000D0H.4 SFRSYM    DATA     BIT       RS1
      00000088H.4 SFRSYM    DATA     BIT       TR0
      000000BEH   SFRSYM    DATA     BYTE      I2CLK
      000000ACH   SFRSYM    DATA     BYTE      P3S
      000000D8H.4 SFRSYM    DATA     BIT       CLRPWM
      00000088H.6 SFRSYM    DATA     BIT       TR1
      000000C8H.2 SFRSYM    DATA     BIT       TR2
      000000B8H   SFRSYM    DATA     BIT       PX0
      00000090H.4 SFRSYM    DATA     BIT       SDA
      000000FFH   SFRSYM    DATA     BYTE      EIPH1
      000000B8H.2 SFRSYM    DATA     BIT       PX1
      000000E8H   SFRSYM    DATA     BYTE      ADCCON0
      000000E1H   SFRSYM    DATA     BYTE      ADCCON1
      000000E2H   SFRSYM    DATA     BYTE      ADCCON2
      000000C0H   SFRSYM    DATA     BYTE      I2CON
      00000083H   SFRSYM    DATA     BYTE      DPH
      000000F8H.2 SFRSYM    DATA     BIT       RB8_1
      000000EFH   SFRSYM    DATA     BYTE      EIP
      000000F8H.3 SFRSYM    DATA     BIT       TB8_1
      000000ECH   SFRSYM    DATA     BYTE      PIF
      00000082H   SFRSYM    DATA     BYTE      DPL
      000000F8H.7 SFRSYM    DATA     BIT       SM0_1
      000000FCH   SFRSYM    DATA     BYTE      PMD
      000000B7H   SFRSYM    DATA     BYTE      IPH
      000000F8H.6 SFRSYM    DATA     BIT       SM1_1
      00000090H.3 SFRSYM    DATA     BIT       SCL
      000000BFH   SFRSYM    DATA     BYTE      I2TOC
      000000F8H.5 SFRSYM    DATA     BIT       SM2_1
      000000C3H   SFRSYM    DATA     BYTE      ADCRH
      000000A7H   SFRSYM    DATA     BYTE      IAPAH
      00000098H.4 SFRSYM    DATA     BIT       REN
      000000AEH   SFRSYM    DATA     BYTE      IAPFD
      00000092H   SFRSYM    DATA     BYTE      CAPCON0
      000000C0H   SFRSYM    DATA     BIT       I2CPX
      000000C9H   SFRSYM    DATA     BYTE      T2MOD
      000000C8H   SFRSYM    DATA     BYTE      T2CON
      000000C2H   SFRSYM    DATA     BYTE      ADCRL
      000000A3H   SFRSYM    DATA     BYTE      BODCON0
      00000093H   SFRSYM    DATA     BYTE      CAPCON1
      000000C0H.5 SFRSYM    DATA     BIT       STA
      000000C4H   SFRSYM    DATA     BYTE      T3CON
      000000ABH   SFRSYM    DATA     BYTE      BODCON1
      000000A6H   SFRSYM    DATA     BYTE      IAPAL
      00000094H   SFRSYM    DATA     BYTE      CAPCON2
LX51 LINKER/LOCATER V4.66.41.0                                                        03/26/2019  15:13:05  PAGE 42


      000000F1H   SFRSYM    DATA     BYTE      CAPCON3
      000000F2H   SFRSYM    DATA     BYTE      CAPCON4
      000000D8H.7 SFRSYM    DATA     BIT       PWMRUN
      000000F3H   SFRSYM    DATA     BYTE      SPCR2
      000000B9H   SFRSYM    DATA     BYTE      SADEN
      000000AFH   SFRSYM    DATA     BYTE      IAPCN
      000000D2H   SFRSYM    DATA     BYTE      PWM0H
      000000D6H   SFRSYM    DATA     BYTE      PNP
      000000D3H   SFRSYM    DATA     BYTE      PWM1H
      000000D4H   SFRSYM    DATA     BYTE      PWM2H
      000000A9H   SFRSYM    DATA     BYTE      SADDR
      0000008EH   SFRSYM    DATA     BYTE      CKCON
      000000D5H   SFRSYM    DATA     BYTE      PWM3H
      000000DAH   SFRSYM    DATA     BYTE      PWM0L
      000000C4H   SFRSYM    DATA     BYTE      PWM4H
      000000DBH   SFRSYM    DATA     BYTE      PWM1L
      000000C5H   SFRSYM    DATA     BYTE      PWM5H
      000000A2H   SFRSYM    DATA     BYTE      AUXR1
      00000095H   SFRSYM    DATA     BYTE      CKDIV
      000000DCH   SFRSYM    DATA     BYTE      PWM2L
      000000DDH   SFRSYM    DATA     BYTE      PWM3L
      00000086H   SFRSYM    DATA     BYTE      RWK
      000000D0H.5 SFRSYM    DATA     BIT       F0
      000000CCH   SFRSYM    DATA     BYTE      PWM4L
      000000F8H.4 SFRSYM    DATA     BIT       REN_1
      000000E8H.4 SFRSYM    DATA     BIT       ETGSEL0
      000000C0H.4 SFRSYM    DATA     BIT       STO
      000000CDH   SFRSYM    DATA     BYTE      PWM5L
      000000E8H.5 SFRSYM    DATA     BIT       ETGSEL1
      000000E9H   SFRSYM    DATA     BYTE      PICON
      000000DEH   SFRSYM    DATA     BYTE      PIOCON0
      000000D0H   SFRSYM    DATA     BYTE      PSW
      000000EAH   SFRSYM    DATA     BYTE      PINEN
      000000C6H   SFRSYM    DATA     BYTE      PIOCON1
      000000F9H   SFRSYM    DATA     BYTE      PDTEN
      000000AAH   SFRSYM    DATA     BYTE      WDCON
      000000EBH   SFRSYM    DATA     BYTE      PIPEN
      000000BAH   SFRSYM    DATA     BYTE      SADEN_1
      01000026H   SYMBOL    CODE     ---       pwm_disable
      01001F05H   SYMBOL    CODE     ---       curve_get_duration
      01000018H   SYMBOL    CODE     ---       pwm_enable
      01001ECBH   SYMBOL    CODE     ---       motion_time_left
      01001F0EH   SYMBOL    CODE     ---       curve_get_p0
      01001F1DH   SYMBOL    CODE     ---       curve_get_p1
      01001EF3H   SYMBOL    CODE     ---       curve_get_t0
      01001EFCH   SYMBOL    CODE     ---       curve_get_t1
      01001F2CH   SYMBOL    CODE     ---       curve_get_v0
      01001F3BH   SYMBOL    CODE     ---       curve_get_v1

      01001ECBH   BLOCK     CODE     ---       LVL=0
      01001ECBH   LINE      ---      ---       #28
      01001ECBH   LINE      ---      ---       #31
      01001ECBH   LINE      ---      ---       #34
      01001EF2H   LINE      ---      ---       #35
      ---         BLOCKEND  ---      ---       LVL=0

      01000018H   BLOCK     CODE     ---       LVL=0
      01000018H   LINE      ---      ---       #40
      01000018H   LINE      ---      ---       #41
      01000018H   LINE      ---      ---       #46
      ---         BLOCKEND  ---      ---       LVL=0

      01000026H   BLOCK     CODE     ---       LVL=0
      01000026H   LINE      ---      ---       #49
      01000026H   LINE      ---      ---       #50
LX51 LINKER/LOCATER V4.66.41.0                                                        03/26/2019  15:13:05  PAGE 43


      01000026H   LINE      ---      ---       #57
      ---         BLOCKEND  ---      ---       LVL=0

      01001EF3H   BLOCK     CODE     ---       LVL=0
      01001EF3H   LINE      ---      ---       #48
      ---         BLOCKEND  ---      ---       LVL=0

      01001EFCH   BLOCK     CODE     ---       LVL=0
      01001EFCH   LINE      ---      ---       #49
      ---         BLOCKEND  ---      ---       LVL=0

      01001F05H   BLOCK     CODE     ---       LVL=0
      01001F05H   LINE      ---      ---       #50
      ---         BLOCKEND  ---      ---       LVL=0

      01001F0EH   BLOCK     CODE     ---       LVL=0
      01001F0EH   LINE      ---      ---       #51
      ---         BLOCKEND  ---      ---       LVL=0

      01001F1DH   BLOCK     CODE     ---       LVL=0
      01001F1DH   LINE      ---      ---       #52
      ---         BLOCKEND  ---      ---       LVL=0

      01001F2CH   BLOCK     CODE     ---       LVL=0
      01001F2CH   LINE      ---      ---       #53
      ---         BLOCKEND  ---      ---       LVL=0

      01001F3BH   BLOCK     CODE     ---       LVL=0
      01001F3BH   LINE      ---      ---       #54
      ---         BLOCKEND  ---      ---       LVL=0

      01001780H   BLOCK     CODE     ---       LVL=0
      01001780H   LINE      ---      ---       #85
      01001780H   LINE      ---      ---       #86
      00000006H   SYMBOL    DATA     WORD      ms
      01001780H   BLOCK     CODE     NEAR LAB  LVL=1
      01001780H   LINE      ---      ---       #88
      01001789H   LINE      ---      ---       #89
      01001789H   LINE      ---      ---       #90
      0100178BH   LINE      ---      ---       #91
      0100178DH   LINE      ---      ---       #93
      0100178DH   LINE      ---      ---       #94
      0100178FH   LINE      ---      ---       #95
      01001791H   LINE      ---      ---       #96
      01001798H   LINE      ---      ---       #97
      00000005H   SYMBOL    DATA     BYTE      i
      00000004H   SYMBOL    DATA     BYTE      j
      ---         BLOCKEND  CODE     ---       LVL=1
      ---         BLOCKEND  CODE     ---       LVL=0

      01001708H   BLOCK     CODE     ---       LVL=0
      01001708H   LINE      ---      ---       #108
      01001708H   LINE      ---      ---       #109
      00000007H   SYMBOL    DATA     BYTE      value
      01001708H   BLOCK     CODE     NEAR LAB  LVL=1
      01001708H   LINE      ---      ---       #111
      0100170AH   LINE      ---      ---       #112
      0100170CH   LINE      ---      ---       #113
      0100170CH   LINE      ---      ---       #114
      01001710H   LINE      ---      ---       #115
      01001710H   LINE      ---      ---       #116
      01001712H   LINE      ---      ---       #117
      01001714H   LINE      ---      ---       #119
      01001714H   LINE      ---      ---       #120
      01001716H   LINE      ---      ---       #121
LX51 LINKER/LOCATER V4.66.41.0                                                        03/26/2019  15:13:05  PAGE 44


      01001716H   LINE      ---      ---       #123
      0100171AH   LINE      ---      ---       #124
      0100171CH   LINE      ---      ---       #125
      0100171FH   LINE      ---      ---       #126
      01001722H   LINE      ---      ---       #127
      01001724H   LINE      ---      ---       #128
      01001729H   LINE      ---      ---       #129
      01001729H   LINE      ---      ---       #130
      00000006H   SYMBOL    DATA     BYTE      bit_ctr
      ---         BLOCKEND  CODE     ---       LVL=1
      ---         BLOCKEND  CODE     ---       LVL=0

      010016F8H   BLOCK     CODE     ---       LVL=0
      010016F8H   LINE      ---      ---       #139
      010016F8H   LINE      ---      ---       #140
      010016F8H   LINE      ---      ---       #141
      010016FAH   LINE      ---      ---       #142
      01001701H   LINE      ---      ---       #143
      01001705H   LINE      ---      ---       #144
      01001707H   LINE      ---      ---       #145
      00000007H   SYMBOL    DATA     BYTE      reg
      00000005H   SYMBOL    DATA     BYTE      value
      ---         BLOCKEND  ---      ---       LVL=0

      010016ACH   BLOCK     CODE     ---       LVL=0
      010016ACH   LINE      ---      ---       #154
      010016ACH   LINE      ---      ---       #155
      00000007H   SYMBOL    DATA     BYTE      reg
      010016ACH   BLOCK     CODE     NEAR LAB  LVL=1
      010016ACH   LINE      ---      ---       #157
      010016AEH   LINE      ---      ---       #158
      010016B5H   LINE      ---      ---       #159
      010016B9H   LINE      ---      ---       #160
      010016BBH   LINE      ---      ---       #161
      010016BBH   LINE      ---      ---       #162
      00000007H   SYMBOL    DATA     BYTE      value
      ---         BLOCKEND  CODE     ---       LVL=1
      ---         BLOCKEND  CODE     ---       LVL=0

      01001F4AH   BLOCK     CODE     ---       LVL=0
      01001F4AH   LINE      ---      ---       #170
      01001F55H   LINE      ---      ---       #171
      00000007H   SYMBOL    DATA     BYTE      reg
      020001ECH   SYMBOL    XDATA    ---       pBuf
      020001EFH   SYMBOL    XDATA    BYTE      length
      01001F55H   BLOCK     CODE     NEAR LAB  LVL=1
      01001F55H   LINE      ---      ---       #174
      01001F57H   LINE      ---      ---       #175
      01001F5FH   LINE      ---      ---       #177
      01001F6BH   LINE      ---      ---       #178
      01001F87H   LINE      ---      ---       #180
      01001F89H   LINE      ---      ---       #182
      020001F0H   SYMBOL    XDATA    BYTE      status
      00000005H   SYMBOL    DATA     BYTE      byte_ctr
      ---         BLOCKEND  CODE     ---       LVL=1
      ---         BLOCKEND  CODE     ---       LVL=0

      010016BCH   BLOCK     CODE     ---       LVL=0
      010016BCH   LINE      ---      ---       #191
      010016C7H   LINE      ---      ---       #192
      00000007H   SYMBOL    DATA     BYTE      reg
      020001F0H   SYMBOL    XDATA    ---       pBuf
      020001F3H   SYMBOL    XDATA    BYTE      length
      010016C7H   BLOCK     CODE     NEAR LAB  LVL=1
      010016C7H   LINE      ---      ---       #195
LX51 LINKER/LOCATER V4.66.41.0                                                        03/26/2019  15:13:05  PAGE 45


      010016C9H   LINE      ---      ---       #196
      010016D0H   LINE      ---      ---       #197
      010016DCH   LINE      ---      ---       #198
      010016F5H   LINE      ---      ---       #199
      010016F7H   LINE      ---      ---       #201
      00000005H   SYMBOL    DATA     BYTE      byte_ctr
      ---         BLOCKEND  CODE     ---       LVL=1
      ---         BLOCKEND  CODE     ---       LVL=0

      0100172AH   BLOCK     CODE     ---       LVL=0
      0100172AH   LINE      ---      ---       #210
      0100172AH   LINE      ---      ---       #211
      0100172AH   BLOCK     CODE     NEAR LAB  LVL=1
      0100172AH   LINE      ---      ---       #214
      01001730H   LINE      ---      ---       #216
      01001734H   LINE      ---      ---       #217
      0100173AH   LINE      ---      ---       #219
      0100173CH   LINE      ---      ---       #221
      01001740H   LINE      ---      ---       #223
      01001744H   LINE      ---      ---       #224
      01001749H   LINE      ---      ---       #226
      0100174BH   LINE      ---      ---       #227
      00000007H   SYMBOL    DATA     BYTE      value
      ---         BLOCKEND  CODE     ---       LVL=1
      ---         BLOCKEND  CODE     ---       LVL=0

      01001768H   BLOCK     CODE     ---       LVL=0
      01001768H   LINE      ---      ---       #234
      01001768H   LINE      ---      ---       #235
      01001768H   BLOCK     CODE     NEAR LAB  LVL=1
      01001768H   LINE      ---      ---       #237
      0100176EH   LINE      ---      ---       #239
      01001770H   LINE      ---      ---       #240
      01001774H   LINE      ---      ---       #242
      01001778H   LINE      ---      ---       #243
      0100177DH   LINE      ---      ---       #245
      0100177FH   LINE      ---      ---       #246
      00000007H   SYMBOL    DATA     BYTE      value
      ---         BLOCKEND  CODE     ---       LVL=1
      ---         BLOCKEND  CODE     ---       LVL=0

      0100174CH   BLOCK     CODE     ---       LVL=0
      0100174CH   LINE      ---      ---       #260
      0100174EH   LINE      ---      ---       #261
      00000005H   SYMBOL    DATA     CHAR      _cfg
      0100174EH   BLOCK     CODE     NEAR LAB  LVL=1
      0100174EH   LINE      ---      ---       #264
      01001752H   LINE      ---      ---       #265
      01001756H   LINE      ---      ---       #267
      01001761H   LINE      ---      ---       #269
      01001761H   LINE      ---      ---       #270
      01001767H   LINE      ---      ---       #271
      01001767H   LINE      ---      ---       #272
      00000007H   SYMBOL    DATA     BYTE      Tmp
      ---         BLOCKEND  CODE     ---       LVL=1
      ---         BLOCKEND  CODE     ---       LVL=0

      010017C2H   BLOCK     CODE     ---       LVL=0
      010017C2H   LINE      ---      ---       #280
      010017C2H   LINE      ---      ---       #281
      010017C2H   LINE      ---      ---       #282
      00000007H   SYMBOL    DATA     BYTE      ch
      ---         BLOCKEND  ---      ---       LVL=0

      0100149BH   BLOCK     CODE     ---       LVL=0
LX51 LINKER/LOCATER V4.66.41.0                                                        03/26/2019  15:13:05  PAGE 46


      0100149BH   LINE      ---      ---       #294
      0100149BH   LINE      ---      ---       #295
      0100149BH   BLOCK     CODE     NEAR LAB  LVL=1
      0100149BH   LINE      ---      ---       #298
      0100149DH   LINE      ---      ---       #299
      0100149FH   LINE      ---      ---       #300
      010014A1H   LINE      ---      ---       #302
      010014A7H   LINE      ---      ---       #303
      010014ABH   LINE      ---      ---       #305
      010014B4H   LINE      ---      ---       #307
      010014C3H   LINE      ---      ---       #308
      010014F5H   LINE      ---      ---       #309
      010014FEH   LINE      ---      ---       #311
      0100150EH   LINE      ---      ---       #312
      0100151EH   LINE      ---      ---       #314
      0100152EH   LINE      ---      ---       #322
      01001537H   LINE      ---      ---       #324
      01001539H   LINE      ---      ---       #325
      0100153FH   LINE      ---      ---       #327
      01001551H   LINE      ---      ---       #328
      01001583H   LINE      ---      ---       #331
      01001587H   LINE      ---      ---       #333
      0100158DH   LINE      ---      ---       #334
      0100158DH   LINE      ---      ---       #335
      0100159EH   LINE      ---      ---       #336
      010015E3H   LINE      ---      ---       #338
      010015F8H   LINE      ---      ---       #339
      01001606H   LINE      ---      ---       #343
      0100160CH   LINE      ---      ---       #344
      0100160CH   LINE      ---      ---       #345
      01001611H   LINE      ---      ---       #346
      01001660H   LINE      ---      ---       #348
      01001675H   LINE      ---      ---       #349
      01001683H   LINE      ---      ---       #353
      01001693H   LINE      ---      ---       #366
      01001699H   LINE      ---      ---       #368
      0100169DH   LINE      ---      ---       #369
      0100169FH   LINE      ---      ---       #372
      010016A8H   LINE      ---      ---       #373
      010016ABH   LINE      ---      ---       #374
      020001E9H   SYMBOL    XDATA    CHAR      i
      020001EAH   SYMBOL    XDATA    CHAR      j
      020001EBH   SYMBOL    XDATA    ---       WriteArr
      ---         BLOCKEND  CODE     ---       LVL=1
      ---         BLOCKEND  CODE     ---       LVL=0

      01001F8AH   BLOCK     CODE     ---       LVL=0
      01001F8AH   LINE      ---      ---       #376
      020001EBH   SYMBOL    XDATA    ---       pBuf
      00000005H   SYMBOL    DATA     BYTE      length
      01001F95H   BLOCK     CODE     NEAR LAB  LVL=1
      01001F95H   LINE      ---      ---       #377
      01001F98H   LINE      ---      ---       #379
      01001F99H   LINE      ---      ---       #381
      01001FA2H   LINE      ---      ---       #382
      01001FB7H   LINE      ---      ---       #384
      01001FBAH   LINE      ---      ---       #385
      01001FD7H   LINE      ---      ---       #386
      01001FDCH   LINE      ---      ---       #387
      01001FF0H   LINE      ---      ---       #388
      01001FF2H   LINE      ---      ---       #389
      01001FF7H   LINE      ---      ---       #390
      01001FF9H   LINE      ---      ---       #391
      01001FFBH   LINE      ---      ---       #393
      01002001H   LINE      ---      ---       #394
LX51 LINKER/LOCATER V4.66.41.0                                                        03/26/2019  15:13:05  PAGE 47


      01002006H   LINE      ---      ---       #395
      00000006H   SYMBOL    DATA     BYTE      i
      00000004H   SYMBOL    DATA     BYTE      sum
      020001EEH   SYMBOL    XDATA    BYTE      cnt
      ---         BLOCKEND  CODE     ---       LVL=1
      ---         BLOCKEND  CODE     ---       LVL=0

      01001799H   BLOCK     CODE     ---       LVL=0
      01001799H   LINE      ---      ---       #397
      01001799H   LINE      ---      ---       #398
      01001799H   LINE      ---      ---       #399
      0100179FH   LINE      ---      ---       #400
      010017A5H   LINE      ---      ---       #401
      010017A7H   LINE      ---      ---       #403
      010017C0H   LINE      ---      ---       #404
      ---         BLOCKEND  ---      ---       LVL=0

      01002007H   BLOCK     CODE     ---       LVL=0
      01002007H   LINE      ---      ---       #406
      01002007H   LINE      ---      ---       #407
      01002007H   BLOCK     CODE     NEAR LAB  LVL=1
      01002007H   LINE      ---      ---       #411
      0100200DH   LINE      ---      ---       #412
      0100201AH   LINE      ---      ---       #413
      0100201DH   LINE      ---      ---       #415
      01002026H   LINE      ---      ---       #416
      01002030H   LINE      ---      ---       #417
      0100203AH   LINE      ---      ---       #418
      0100203CH   LINE      ---      ---       #419
      0100203CH   LINE      ---      ---       #420
      01002041H   LINE      ---      ---       #421
      01002048H   LINE      ---      ---       #422
      01002048H   LINE      ---      ---       #423
      01002057H   LINE      ---      ---       #424
      01002057H   LINE      ---      ---       #425
      0100205CH   LINE      ---      ---       #426
      01002066H   LINE      ---      ---       #427
      01002075H   LINE      ---      ---       #428
      0100208CH   LINE      ---      ---       #429
      0100209DH   LINE      ---      ---       #430
      010020AEH   LINE      ---      ---       #431
      010020BFH   LINE      ---      ---       #432
      010020D2H   LINE      ---      ---       #433
      010020D8H   LINE      ---      ---       #434
      010020DCH   LINE      ---      ---       #435
      010020E9H   LINE      ---      ---       #436
      010020EEH   LINE      ---      ---       #437
      010020F0H   LINE      ---      ---       #438
      010020F3H   LINE      ---      ---       #439
      010020F3H   LINE      ---      ---       #441
      010020F5H   LINE      ---      ---       #442
      010020FBH   LINE      ---      ---       #443
      01002100H   LINE      ---      ---       #444
      0100210AH   LINE      ---      ---       #445
      01002119H   LINE      ---      ---       #446
      01002127H   LINE      ---      ---       #449
      01002127H   LINE      ---      ---       #450
      01002127H   LINE      ---      ---       #452
      0100212EH   LINE      ---      ---       #453
      01002135H   LINE      ---      ---       #455
      01002135H   LINE      ---      ---       #457
      020001E9H   SYMBOL    XDATA    BYTE      len
      00000007H   SYMBOL    DATA     BYTE      sta
      020001EAH   SYMBOL    XDATA    BYTE      fifo_sta
      ---         BLOCKEND  CODE     ---       LVL=1
LX51 LINKER/LOCATER V4.66.41.0                                                        03/26/2019  15:13:05  PAGE 48


      ---         BLOCKEND  CODE     ---       LVL=0

      ---         MODULE    ---      ---       CURVE
      02000181H   PUBLIC    XDATA    WORD      curve_duration
      0200016BH   PUBLIC    XDATA    WORD      Curve_Out_Velocity
      02000169H   PUBLIC    XDATA    WORD      Curve_Delta
      02000167H   PUBLIC    XDATA    WORD      Curve_In_Velocity
      02000165H   PUBLIC    XDATA    WORD      Curve_Position
      02000161H   PUBLIC    XDATA    FLOAT     curve_v1
      0200015DH   PUBLIC    XDATA    FLOAT     curve_v0
      0200015BH   PUBLIC    XDATA    WORD      curve_t1
      02000159H   PUBLIC    XDATA    WORD      Curve_Reserved
      02000157H   PUBLIC    XDATA    WORD      curve_t0
      02000153H   PUBLIC    XDATA    FLOAT     curve_p1
      0200014FH   PUBLIC    XDATA    FLOAT     curve_p0
      020001EDH   PUBLIC    XDATA    BYTE      ?_curve_solve?BYTE
      01002794H   PUBLIC    CODE     ---       _curve_solve
      020001EFH   PUBLIC    XDATA    BYTE      ?_curve_init?BYTE
      01002502H   PUBLIC    CODE     ---       _curve_init
      000000F6H   SFRSYM    DATA     BYTE      AINDIDS
      000000B1H   SFRSYM    DATA     BYTE      P0M1
      000000B3H   SFRSYM    DATA     BYTE      P1M1
      000000B2H   SFRSYM    DATA     BYTE      P0M2
      00000080H   SFRSYM    DATA     BYTE      P0
      000000BBH   SFRSYM    DATA     BYTE      SADDR_1
      000000B4H   SFRSYM    DATA     BYTE      P1M2
      00000090H   SFRSYM    DATA     BYTE      P1
      000000C0H.2 SFRSYM    DATA     BIT       AA
      000000ACH   SFRSYM    DATA     BYTE      P3M1
      000000A0H   SFRSYM    DATA     BYTE      P2
      000000B0H   SFRSYM    DATA     BYTE      P3
      000000ADH   SFRSYM    DATA     BYTE      P3M2
      000000D0H.6 SFRSYM    DATA     BIT       AC
      0000008FH   SFRSYM    DATA     BYTE      WKCON
      0000009CH   SFRSYM    DATA     BYTE      EIE1
      000000A8H.7 SFRSYM    DATA     BIT       EA
      000000D8H   SFRSYM    DATA     BYTE      PWMCON0
      000000DFH   SFRSYM    DATA     BYTE      PWMCON1
      00000098H.7 SFRSYM    DATA     BIT       FE
      000000A8H.6 SFRSYM    DATA     BIT       EADC
      000000D1H   SFRSYM    DATA     BYTE      PWMPH
      000000A8H   SFRSYM    DATA     BYTE      IE
      00000096H   SFRSYM    DATA     BYTE      CKSWT
      000000E8H.7 SFRSYM    DATA     BIT       ADCF
      000000FEH   SFRSYM    DATA     BYTE      EIP1
      000000D9H   SFRSYM    DATA     BYTE      PWMPL
      000000E8H   SFRSYM    DATA     BIT       ADCHS0
      000000C7H   SFRSYM    DATA     BYTE      TA
      000000E8H.1 SFRSYM    DATA     BIT       ADCHS1
      000000E8H.2 SFRSYM    DATA     BIT       ADCHS2
      000000E8H.3 SFRSYM    DATA     BIT       ADCHS3
      000000A8H.4 SFRSYM    DATA     BIT       ES
      000000C1H   SFRSYM    DATA     BYTE      I2ADDR
      000000B8H.6 SFRSYM    DATA     BIT       PADC
      000000B8H   SFRSYM    DATA     BYTE      IP
      000000A8H.5 SFRSYM    DATA     BIT       EBOD
      00000098H   SFRSYM    DATA     BIT       RI
      000000F8H.7 SFRSYM    DATA     BIT       FE_1
      000000E8H.6 SFRSYM    DATA     BIT       ADCS
      000000D0H.7 SFRSYM    DATA     BIT       CY
      000000C0H.3 SFRSYM    DATA     BIT       SI
      000000B0H   SFRSYM    DATA     BIT       INT0
      00000098H.1 SFRSYM    DATA     BIT       TI
      000000D8H.6 SFRSYM    DATA     BIT       LOAD
      00000097H   SFRSYM    DATA     BYTE      CKEN
LX51 LINKER/LOCATER V4.66.41.0                                                        03/26/2019  15:13:05  PAGE 49


      000000B8H.4 SFRSYM    DATA     BIT       PS
      00000081H   SFRSYM    DATA     BYTE      SP
      000000D0H.2 SFRSYM    DATA     BIT       OV
      000000B7H   SFRSYM    DATA     BYTE      PWMINTC
      000000B8H.5 SFRSYM    DATA     BIT       PBOD
      000000B2H   SFRSYM    DATA     BYTE      P0SR
      000000F7H   SFRSYM    DATA     BYTE      EIPH
      000000B4H   SFRSYM    DATA     BYTE      P1SR
      000000ADH   SFRSYM    DATA     BYTE      P3SR
      000000F8H   SFRSYM    DATA     BIT       RI_1
      000000F8H.1 SFRSYM    DATA     BIT       TI_1
      000000CBH   SFRSYM    DATA     BYTE      RCMP2H
      000000CFH   SFRSYM    DATA     BYTE      ADCMPH
      00000080H   SFRSYM    DATA     BIT       P00
      00000090H   SFRSYM    DATA     BIT       P10
      00000080H.1 SFRSYM    DATA     BIT       P01
      000000FBH   SFRSYM    DATA     BYTE      PMEN
      00000099H   SFRSYM    DATA     BYTE      SBUF
      00000087H   SFRSYM    DATA     BYTE      PCON
      000000A0H   SFRSYM    DATA     BIT       P20
      00000090H.1 SFRSYM    DATA     BIT       P11
      00000080H.2 SFRSYM    DATA     BIT       P02
      000000CAH   SFRSYM    DATA     BYTE      RCMP2L
      000000B0H   SFRSYM    DATA     BIT       P30
      00000090H.2 SFRSYM    DATA     BIT       P12
      00000080H.3 SFRSYM    DATA     BIT       P03
      000000E3H   SFRSYM    DATA     BYTE      ADCDLY
      000000CEH   SFRSYM    DATA     BYTE      ADCMPL
      00000090H.3 SFRSYM    DATA     BIT       P13
      00000080H.4 SFRSYM    DATA     BIT       P04
      00000098H   SFRSYM    DATA     BYTE      SCON
      00000090H.4 SFRSYM    DATA     BIT       P14
      00000080H.5 SFRSYM    DATA     BIT       P05
      00000089H   SFRSYM    DATA     BYTE      TMOD
      00000088H   SFRSYM    DATA     BYTE      TCON
      00000090H.5 SFRSYM    DATA     BIT       P15
      00000080H.6 SFRSYM    DATA     BIT       P06
      00000090H.6 SFRSYM    DATA     BIT       P16
      00000080H.7 SFRSYM    DATA     BIT       P07
      00000090H.7 SFRSYM    DATA     BIT       P17
      000000F3H   SFRSYM    DATA     BYTE      SPCR
      000000BDH   SFRSYM    DATA     BYTE      I2STAT
      000000F5H   SFRSYM    DATA     BYTE      SPDR
      000000D8H.5 SFRSYM    DATA     BIT       PWMF
      000000E5H   SFRSYM    DATA     BYTE      C0H
      000000E7H   SFRSYM    DATA     BYTE      C1H
      000000EEH   SFRSYM    DATA     BYTE      C2H
      0000009FH   SFRSYM    DATA     BYTE      CHPCON
      00000088H.1 SFRSYM    DATA     BIT       IE0
      00000088H.3 SFRSYM    DATA     BIT       IE1
      000000E4H   SFRSYM    DATA     BYTE      C0L
      00000091H   SFRSYM    DATA     BYTE      SFRS
      000000E6H   SFRSYM    DATA     BYTE      C1L
      000000C8H   SFRSYM    DATA     BIT       CM_RL2
      000000F0H   SFRSYM    DATA     BYTE      B
      000000EDH   SFRSYM    DATA     BYTE      C2L
      0000009AH   SFRSYM    DATA     BYTE      SBUF_1
      000000A5H   SFRSYM    DATA     BYTE      IAPUEN
      000000F8H   SFRSYM    DATA     BYTE      SCON_1
      000000E0H   SFRSYM    DATA     BYTE      ACC
      000000A8H.1 SFRSYM    DATA     BIT       ET0
      000000F4H   SFRSYM    DATA     BYTE      SPSR
      000000A4H   SFRSYM    DATA     BYTE      IAPTRG
      000000A8H.3 SFRSYM    DATA     BIT       ET1
      00000088H.5 SFRSYM    DATA     BIT       TF0
LX51 LINKER/LOCATER V4.66.41.0                                                        03/26/2019  15:13:05  PAGE 50


      00000088H.7 SFRSYM    DATA     BIT       TF1
      000000C8H.7 SFRSYM    DATA     BIT       TF2
      00000098H.2 SFRSYM    DATA     BIT       RB8
      000000D7H   SFRSYM    DATA     BYTE      FBD
      0000008CH   SFRSYM    DATA     BYTE      TH0
      000000A8H   SFRSYM    DATA     BIT       EX0
      00000088H   SFRSYM    DATA     BIT       IT0
      000000C6H   SFRSYM    DATA     BYTE      RH3
      0000008DH   SFRSYM    DATA     BYTE      TH1
      000000A8H.2 SFRSYM    DATA     BIT       EX1
      00000098H.3 SFRSYM    DATA     BIT       TB8
      00000088H.2 SFRSYM    DATA     BIT       IT1
      000000CDH   SFRSYM    DATA     BYTE      TH2
      000000D0H   SFRSYM    DATA     BIT       P
      000000FAH   SFRSYM    DATA     BYTE      PDTCNT
      00000098H.7 SFRSYM    DATA     BIT       SM0
      0000008AH   SFRSYM    DATA     BYTE      TL0
      00000098H.6 SFRSYM    DATA     BIT       SM1
      000000C5H   SFRSYM    DATA     BYTE      RL3
      0000008BH   SFRSYM    DATA     BYTE      TL1
      000000C0H.6 SFRSYM    DATA     BIT       I2CEN
      00000098H.5 SFRSYM    DATA     BIT       SM2
      000000CCH   SFRSYM    DATA     BYTE      TL2
      000000B1H   SFRSYM    DATA     BYTE      P0S
      0000009BH   SFRSYM    DATA     BYTE      EIE
      000000B8H.1 SFRSYM    DATA     BIT       PT0
      000000B3H   SFRSYM    DATA     BYTE      P1S
      000000D0H.3 SFRSYM    DATA     BIT       RS0
      000000B8H.3 SFRSYM    DATA     BIT       PT1
      000000BCH   SFRSYM    DATA     BYTE      I2DAT
      000000B5H   SFRSYM    DATA     BYTE      P2S
      000000D0H.4 SFRSYM    DATA     BIT       RS1
      00000088H.4 SFRSYM    DATA     BIT       TR0
      000000BEH   SFRSYM    DATA     BYTE      I2CLK
      000000ACH   SFRSYM    DATA     BYTE      P3S
      000000D8H.4 SFRSYM    DATA     BIT       CLRPWM
      00000088H.6 SFRSYM    DATA     BIT       TR1
      000000C8H.2 SFRSYM    DATA     BIT       TR2
      000000B8H   SFRSYM    DATA     BIT       PX0
      00000090H.4 SFRSYM    DATA     BIT       SDA
      000000FFH   SFRSYM    DATA     BYTE      EIPH1
      000000B8H.2 SFRSYM    DATA     BIT       PX1
      000000E8H   SFRSYM    DATA     BYTE      ADCCON0
      000000E1H   SFRSYM    DATA     BYTE      ADCCON1
      000000E2H   SFRSYM    DATA     BYTE      ADCCON2
      000000C0H   SFRSYM    DATA     BYTE      I2CON
      00000083H   SFRSYM    DATA     BYTE      DPH
      000000F8H.2 SFRSYM    DATA     BIT       RB8_1
      000000EFH   SFRSYM    DATA     BYTE      EIP
      000000F8H.3 SFRSYM    DATA     BIT       TB8_1
      000000ECH   SFRSYM    DATA     BYTE      PIF
      00000082H   SFRSYM    DATA     BYTE      DPL
      000000F8H.7 SFRSYM    DATA     BIT       SM0_1
      000000FCH   SFRSYM    DATA     BYTE      PMD
      000000B7H   SFRSYM    DATA     BYTE      IPH
      000000F8H.6 SFRSYM    DATA     BIT       SM1_1
      00000090H.3 SFRSYM    DATA     BIT       SCL
      000000BFH   SFRSYM    DATA     BYTE      I2TOC
      000000F8H.5 SFRSYM    DATA     BIT       SM2_1
      000000C3H   SFRSYM    DATA     BYTE      ADCRH
      000000A7H   SFRSYM    DATA     BYTE      IAPAH
      00000098H.4 SFRSYM    DATA     BIT       REN
      000000AEH   SFRSYM    DATA     BYTE      IAPFD
      00000092H   SFRSYM    DATA     BYTE      CAPCON0
      000000C0H   SFRSYM    DATA     BIT       I2CPX
LX51 LINKER/LOCATER V4.66.41.0                                                        03/26/2019  15:13:05  PAGE 51


      000000C9H   SFRSYM    DATA     BYTE      T2MOD
      000000C8H   SFRSYM    DATA     BYTE      T2CON
      000000C2H   SFRSYM    DATA     BYTE      ADCRL
      000000A3H   SFRSYM    DATA     BYTE      BODCON0
      00000093H   SFRSYM    DATA     BYTE      CAPCON1
      000000C0H.5 SFRSYM    DATA     BIT       STA
      000000C4H   SFRSYM    DATA     BYTE      T3CON
      000000ABH   SFRSYM    DATA     BYTE      BODCON1
      000000A6H   SFRSYM    DATA     BYTE      IAPAL
      00000094H   SFRSYM    DATA     BYTE      CAPCON2
      000000F1H   SFRSYM    DATA     BYTE      CAPCON3
      000000F2H   SFRSYM    DATA     BYTE      CAPCON4
      000000D8H.7 SFRSYM    DATA     BIT       PWMRUN
      000000F3H   SFRSYM    DATA     BYTE      SPCR2
      000000B9H   SFRSYM    DATA     BYTE      SADEN
      000000AFH   SFRSYM    DATA     BYTE      IAPCN
      000000D2H   SFRSYM    DATA     BYTE      PWM0H
      000000D6H   SFRSYM    DATA     BYTE      PNP
      000000D3H   SFRSYM    DATA     BYTE      PWM1H
      000000D4H   SFRSYM    DATA     BYTE      PWM2H
      000000A9H   SFRSYM    DATA     BYTE      SADDR
      0000008EH   SFRSYM    DATA     BYTE      CKCON
      000000D5H   SFRSYM    DATA     BYTE      PWM3H
      000000DAH   SFRSYM    DATA     BYTE      PWM0L
      000000C4H   SFRSYM    DATA     BYTE      PWM4H
      000000DBH   SFRSYM    DATA     BYTE      PWM1L
      000000C5H   SFRSYM    DATA     BYTE      PWM5H
      000000A2H   SFRSYM    DATA     BYTE      AUXR1
      00000095H   SFRSYM    DATA     BYTE      CKDIV
      000000DCH   SFRSYM    DATA     BYTE      PWM2L
      000000DDH   SFRSYM    DATA     BYTE      PWM3L
      00000086H   SFRSYM    DATA     BYTE      RWK
      000000D0H.5 SFRSYM    DATA     BIT       F0
      000000CCH   SFRSYM    DATA     BYTE      PWM4L
      000000F8H.4 SFRSYM    DATA     BIT       REN_1
      000000E8H.4 SFRSYM    DATA     BIT       ETGSEL0
      000000C0H.4 SFRSYM    DATA     BIT       STO
      000000CDH   SFRSYM    DATA     BYTE      PWM5L
      000000E8H.5 SFRSYM    DATA     BIT       ETGSEL1
      000000E9H   SFRSYM    DATA     BYTE      PICON
      000000DEH   SFRSYM    DATA     BYTE      PIOCON0
      000000D0H   SFRSYM    DATA     BYTE      PSW
      000000EAH   SFRSYM    DATA     BYTE      PINEN
      000000C6H   SFRSYM    DATA     BYTE      PIOCON1
      000000F9H   SFRSYM    DATA     BYTE      PDTEN
      000000AAH   SFRSYM    DATA     BYTE      WDCON
      000000EBH   SFRSYM    DATA     BYTE      PIPEN
      000000BAH   SFRSYM    DATA     BYTE      SADEN_1
      01000055H   SYMBOL    CODE     ---       pwm_disable
      010024BDH   SYMBOL    CODE     ---       curve_get_duration
      01000019H   SYMBOL    CODE     ---       pwm_enable
      01002483H   SYMBOL    CODE     ---       motion_time_left
      010024C6H   SYMBOL    CODE     ---       curve_get_p0
      010024D5H   SYMBOL    CODE     ---       curve_get_p1
      010024ABH   SYMBOL    CODE     ---       curve_get_t0
      010024B4H   SYMBOL    CODE     ---       curve_get_t1
      010024E4H   SYMBOL    CODE     ---       curve_get_v0
      010024F3H   SYMBOL    CODE     ---       curve_get_v1
      0200016DH   SYMBOL    XDATA    FLOAT     curve_a
      02000171H   SYMBOL    XDATA    FLOAT     curve_b
      02000175H   SYMBOL    XDATA    FLOAT     curve_c
      02000179H   SYMBOL    XDATA    FLOAT     curve_d
      0200017DH   SYMBOL    XDATA    FLOAT     curve_duration_float

      01002483H   BLOCK     CODE     ---       LVL=0
LX51 LINKER/LOCATER V4.66.41.0                                                        03/26/2019  15:13:05  PAGE 52


      01002483H   LINE      ---      ---       #28
      01002483H   LINE      ---      ---       #31
      01002483H   LINE      ---      ---       #34
      010024AAH   LINE      ---      ---       #35
      ---         BLOCKEND  ---      ---       LVL=0

      01000019H   BLOCK     CODE     ---       LVL=0
      01000019H   LINE      ---      ---       #40
      01000019H   LINE      ---      ---       #41
      01000019H   LINE      ---      ---       #46
      ---         BLOCKEND  ---      ---       LVL=0

      01000055H   BLOCK     CODE     ---       LVL=0
      01000055H   LINE      ---      ---       #49
      01000055H   LINE      ---      ---       #50
      01000055H   LINE      ---      ---       #57
      ---         BLOCKEND  ---      ---       LVL=0

      010024ABH   BLOCK     CODE     ---       LVL=0
      010024ABH   LINE      ---      ---       #48
      ---         BLOCKEND  ---      ---       LVL=0

      010024B4H   BLOCK     CODE     ---       LVL=0
      010024B4H   LINE      ---      ---       #49
      ---         BLOCKEND  ---      ---       LVL=0

      010024BDH   BLOCK     CODE     ---       LVL=0
      010024BDH   LINE      ---      ---       #50
      ---         BLOCKEND  ---      ---       LVL=0

      010024C6H   BLOCK     CODE     ---       LVL=0
      010024C6H   LINE      ---      ---       #51
      ---         BLOCKEND  ---      ---       LVL=0

      010024D5H   BLOCK     CODE     ---       LVL=0
      010024D5H   LINE      ---      ---       #52
      ---         BLOCKEND  ---      ---       LVL=0

      010024E4H   BLOCK     CODE     ---       LVL=0
      010024E4H   LINE      ---      ---       #53
      ---         BLOCKEND  ---      ---       LVL=0

      010024F3H   BLOCK     CODE     ---       LVL=0
      010024F3H   LINE      ---      ---       #54
      ---         BLOCKEND  ---      ---       LVL=0

      01002502H   BLOCK     CODE     ---       LVL=0
      01002502H   LINE      ---      ---       #28
      01002502H   LINE      ---      ---       #29
      01002502H   LINE      ---      ---       #31
      0100250AH   LINE      ---      ---       #32
      01002512H   LINE      ---      ---       #33
      0100251FH   LINE      ---      ---       #34
      0100252CH   LINE      ---      ---       #40
      01002551H   LINE      ---      ---       #41
      01002576H   LINE      ---      ---       #44
      0100258AH   LINE      ---      ---       #45
      0100259EH   LINE      ---      ---       #46
      010025B2H   LINE      ---      ---       #47
      010025C6H   LINE      ---      ---       #62
      0100262FH   LINE      ---      ---       #63
      010026BEH   LINE      ---      ---       #64
      010026D2H   LINE      ---      ---       #65
      00000006H   SYMBOL    DATA     WORD      t0
      00000004H   SYMBOL    DATA     WORD      t1
LX51 LINKER/LOCATER V4.66.41.0                                                        03/26/2019  15:13:05  PAGE 53


      020001F3H   SYMBOL    XDATA    FLOAT     p0
      020001F7H   SYMBOL    XDATA    FLOAT     p1
      020001FBH   SYMBOL    XDATA    FLOAT     v0
      020001FFH   SYMBOL    XDATA    FLOAT     v1
      ---         BLOCKEND  ---      ---       LVL=0

      01002794H   BLOCK     CODE     ---       LVL=0
      01002794H   LINE      ---      ---       #69
      010027A7H   LINE      ---      ---       #70
      010027A7H   LINE      ---      ---       #72
      010027B4H   LINE      ---      ---       #73
      010027B4H   LINE      ---      ---       #75
      010027D0H   LINE      ---      ---       #76
      01002808H   LINE      ---      ---       #77
      01002808H   LINE      ---      ---       #78
      0100281DH   LINE      ---      ---       #79
      0100281DH   LINE      ---      ---       #81
      01002839H   LINE      ---      ---       #82
      01002871H   LINE      ---      ---       #83
      01002871H   LINE      ---      ---       #85
      020001EDH   SYMBOL    XDATA    WORD      t
      020001EFH   SYMBOL    XDATA    ---       x
      020001F2H   SYMBOL    XDATA    ---       dx
      01002871H   BLOCK     CODE     NEAR LAB  LVL=1
      01002871H   LINE      ---      ---       #87
      010028A1H   LINE      ---      ---       #88
      010028BFH   LINE      ---      ---       #89
      010028E2H   LINE      ---      ---       #93
      01002984H   LINE      ---      ---       #97
      01002A07H   LINE      ---      ---       #102
      020001F5H   SYMBOL    XDATA    FLOAT     t1
      020001F9H   SYMBOL    XDATA    FLOAT     t2
      020001FDH   SYMBOL    XDATA    FLOAT     t3
      ---         BLOCKEND  CODE     ---       LVL=1
      ---         BLOCKEND  CODE     ---       LVL=0

      ---         MODULE    ---      ---       EEPROM
      010023ABH   PUBLIC    CODE     ---       eeprom_save_registers
      01002324H   PUBLIC    CODE     ---       eeprom_restore_registers
      010023A2H   PUBLIC    CODE     ---       eeprom_erase
      0100222CH   PUBLIC    CODE     ---       _readrom
      01002188H   PUBLIC    CODE     ---       _writerom
      02000256H   PUBLIC    XDATA    BYTE      ?_eeprom_write_block?BYTE
      010023CBH   PUBLIC    CODE     ---       _eeprom_write_block
      0200024FH   PUBLIC    XDATA    BYTE      ?_eeprom_read_block?BYTE
      01002427H   PUBLIC    CODE     ---       _eeprom_read_block
      010022BDH   PUBLIC    CODE     ---       _WriteDATA_ISP
      0100229EH   PUBLIC    CODE     ---       _Write_ISP
      010022FAH   PUBLIC    CODE     ---       _ReadDATA_ISP
      0100231CH   PUBLIC    CODE     ---       _Read_APROM_BYTE
      010021E1H   PUBLIC    CODE     ---       _ERASE
      010022E7H   PUBLIC    CODE     ---       ISP_OPEN
      010021FDH   PUBLIC    CODE     ---       ISP_DIS
      000000F6H   SFRSYM    DATA     BYTE      AINDIDS
      000000B1H   SFRSYM    DATA     BYTE      P0M1
      000000B3H   SFRSYM    DATA     BYTE      P1M1
      000000B2H   SFRSYM    DATA     BYTE      P0M2
      00000080H   SFRSYM    DATA     BYTE      P0
      000000BBH   SFRSYM    DATA     BYTE      SADDR_1
      000000B4H   SFRSYM    DATA     BYTE      P1M2
      00000090H   SFRSYM    DATA     BYTE      P1
      000000C0H.2 SFRSYM    DATA     BIT       AA
      000000ACH   SFRSYM    DATA     BYTE      P3M1
      000000A0H   SFRSYM    DATA     BYTE      P2
      000000B0H   SFRSYM    DATA     BYTE      P3
LX51 LINKER/LOCATER V4.66.41.0                                                        03/26/2019  15:13:05  PAGE 54


      000000ADH   SFRSYM    DATA     BYTE      P3M2
      000000D0H.6 SFRSYM    DATA     BIT       AC
      0000008FH   SFRSYM    DATA     BYTE      WKCON
      0000009CH   SFRSYM    DATA     BYTE      EIE1
      000000A8H.7 SFRSYM    DATA     BIT       EA
      000000D8H   SFRSYM    DATA     BYTE      PWMCON0
      000000DFH   SFRSYM    DATA     BYTE      PWMCON1
      00000098H.7 SFRSYM    DATA     BIT       FE
      000000A8H.6 SFRSYM    DATA     BIT       EADC
      000000D1H   SFRSYM    DATA     BYTE      PWMPH
      000000A8H   SFRSYM    DATA     BYTE      IE
      00000096H   SFRSYM    DATA     BYTE      CKSWT
      000000E8H.7 SFRSYM    DATA     BIT       ADCF
      000000FEH   SFRSYM    DATA     BYTE      EIP1
      000000D9H   SFRSYM    DATA     BYTE      PWMPL
      000000E8H   SFRSYM    DATA     BIT       ADCHS0
      000000C7H   SFRSYM    DATA     BYTE      TA
      000000E8H.1 SFRSYM    DATA     BIT       ADCHS1
      000000E8H.2 SFRSYM    DATA     BIT       ADCHS2
      000000E8H.3 SFRSYM    DATA     BIT       ADCHS3
      000000A8H.4 SFRSYM    DATA     BIT       ES
      000000C1H   SFRSYM    DATA     BYTE      I2ADDR
      000000B8H.6 SFRSYM    DATA     BIT       PADC
      000000B8H   SFRSYM    DATA     BYTE      IP
      000000A8H.5 SFRSYM    DATA     BIT       EBOD
      00000098H   SFRSYM    DATA     BIT       RI
      000000F8H.7 SFRSYM    DATA     BIT       FE_1
      000000E8H.6 SFRSYM    DATA     BIT       ADCS
      000000D0H.7 SFRSYM    DATA     BIT       CY
      000000C0H.3 SFRSYM    DATA     BIT       SI
      000000B0H   SFRSYM    DATA     BIT       INT0
      00000098H.1 SFRSYM    DATA     BIT       TI
      000000D8H.6 SFRSYM    DATA     BIT       LOAD
      00000097H   SFRSYM    DATA     BYTE      CKEN
      000000B8H.4 SFRSYM    DATA     BIT       PS
      00000081H   SFRSYM    DATA     BYTE      SP
      000000D0H.2 SFRSYM    DATA     BIT       OV
      000000B7H   SFRSYM    DATA     BYTE      PWMINTC
      000000B8H.5 SFRSYM    DATA     BIT       PBOD
      000000B2H   SFRSYM    DATA     BYTE      P0SR
      000000F7H   SFRSYM    DATA     BYTE      EIPH
      000000B4H   SFRSYM    DATA     BYTE      P1SR
      000000ADH   SFRSYM    DATA     BYTE      P3SR
      000000F8H   SFRSYM    DATA     BIT       RI_1
      000000F8H.1 SFRSYM    DATA     BIT       TI_1
      000000CBH   SFRSYM    DATA     BYTE      RCMP2H
      000000CFH   SFRSYM    DATA     BYTE      ADCMPH
      00000080H   SFRSYM    DATA     BIT       P00
      00000090H   SFRSYM    DATA     BIT       P10
      00000080H.1 SFRSYM    DATA     BIT       P01
      000000FBH   SFRSYM    DATA     BYTE      PMEN
      00000099H   SFRSYM    DATA     BYTE      SBUF
      00000087H   SFRSYM    DATA     BYTE      PCON
      000000A0H   SFRSYM    DATA     BIT       P20
      00000090H.1 SFRSYM    DATA     BIT       P11
      00000080H.2 SFRSYM    DATA     BIT       P02
      000000CAH   SFRSYM    DATA     BYTE      RCMP2L
      000000B0H   SFRSYM    DATA     BIT       P30
      00000090H.2 SFRSYM    DATA     BIT       P12
      00000080H.3 SFRSYM    DATA     BIT       P03
      000000E3H   SFRSYM    DATA     BYTE      ADCDLY
      000000CEH   SFRSYM    DATA     BYTE      ADCMPL
      00000090H.3 SFRSYM    DATA     BIT       P13
      00000080H.4 SFRSYM    DATA     BIT       P04
      00000098H   SFRSYM    DATA     BYTE      SCON
LX51 LINKER/LOCATER V4.66.41.0                                                        03/26/2019  15:13:05  PAGE 55


      00000090H.4 SFRSYM    DATA     BIT       P14
      00000080H.5 SFRSYM    DATA     BIT       P05
      00000089H   SFRSYM    DATA     BYTE      TMOD
      00000088H   SFRSYM    DATA     BYTE      TCON
      00000090H.5 SFRSYM    DATA     BIT       P15
      00000080H.6 SFRSYM    DATA     BIT       P06
      00000090H.6 SFRSYM    DATA     BIT       P16
      00000080H.7 SFRSYM    DATA     BIT       P07
      00000090H.7 SFRSYM    DATA     BIT       P17
      000000F3H   SFRSYM    DATA     BYTE      SPCR
      000000BDH   SFRSYM    DATA     BYTE      I2STAT
      000000F5H   SFRSYM    DATA     BYTE      SPDR
      000000D8H.5 SFRSYM    DATA     BIT       PWMF
      000000E5H   SFRSYM    DATA     BYTE      C0H
      000000E7H   SFRSYM    DATA     BYTE      C1H
      000000EEH   SFRSYM    DATA     BYTE      C2H
      0000009FH   SFRSYM    DATA     BYTE      CHPCON
      00000088H.1 SFRSYM    DATA     BIT       IE0
      00000088H.3 SFRSYM    DATA     BIT       IE1
      000000E4H   SFRSYM    DATA     BYTE      C0L
      00000091H   SFRSYM    DATA     BYTE      SFRS
      000000E6H   SFRSYM    DATA     BYTE      C1L
      000000C8H   SFRSYM    DATA     BIT       CM_RL2
      000000F0H   SFRSYM    DATA     BYTE      B
      000000EDH   SFRSYM    DATA     BYTE      C2L
      0000009AH   SFRSYM    DATA     BYTE      SBUF_1
      000000A5H   SFRSYM    DATA     BYTE      IAPUEN
      000000F8H   SFRSYM    DATA     BYTE      SCON_1
      000000E0H   SFRSYM    DATA     BYTE      ACC
      000000A8H.1 SFRSYM    DATA     BIT       ET0
      000000F4H   SFRSYM    DATA     BYTE      SPSR
      000000A4H   SFRSYM    DATA     BYTE      IAPTRG
      000000A8H.3 SFRSYM    DATA     BIT       ET1
      00000088H.5 SFRSYM    DATA     BIT       TF0
      00000088H.7 SFRSYM    DATA     BIT       TF1
      000000C8H.7 SFRSYM    DATA     BIT       TF2
      00000098H.2 SFRSYM    DATA     BIT       RB8
      000000D7H   SFRSYM    DATA     BYTE      FBD
      0000008CH   SFRSYM    DATA     BYTE      TH0
      000000A8H   SFRSYM    DATA     BIT       EX0
      00000088H   SFRSYM    DATA     BIT       IT0
      000000C6H   SFRSYM    DATA     BYTE      RH3
      0000008DH   SFRSYM    DATA     BYTE      TH1
      000000A8H.2 SFRSYM    DATA     BIT       EX1
      00000098H.3 SFRSYM    DATA     BIT       TB8
      00000088H.2 SFRSYM    DATA     BIT       IT1
      000000CDH   SFRSYM    DATA     BYTE      TH2
      000000D0H   SFRSYM    DATA     BIT       P
      000000FAH   SFRSYM    DATA     BYTE      PDTCNT
      00000098H.7 SFRSYM    DATA     BIT       SM0
      0000008AH   SFRSYM    DATA     BYTE      TL0
      00000098H.6 SFRSYM    DATA     BIT       SM1
      000000C5H   SFRSYM    DATA     BYTE      RL3
      0000008BH   SFRSYM    DATA     BYTE      TL1
      000000C0H.6 SFRSYM    DATA     BIT       I2CEN
      00000098H.5 SFRSYM    DATA     BIT       SM2
      000000CCH   SFRSYM    DATA     BYTE      TL2
      000000B1H   SFRSYM    DATA     BYTE      P0S
      0000009BH   SFRSYM    DATA     BYTE      EIE
      000000B8H.1 SFRSYM    DATA     BIT       PT0
      000000B3H   SFRSYM    DATA     BYTE      P1S
      000000D0H.3 SFRSYM    DATA     BIT       RS0
      000000B8H.3 SFRSYM    DATA     BIT       PT1
      000000BCH   SFRSYM    DATA     BYTE      I2DAT
      000000B5H   SFRSYM    DATA     BYTE      P2S
LX51 LINKER/LOCATER V4.66.41.0                                                        03/26/2019  15:13:05  PAGE 56


      000000D0H.4 SFRSYM    DATA     BIT       RS1
      00000088H.4 SFRSYM    DATA     BIT       TR0
      000000BEH   SFRSYM    DATA     BYTE      I2CLK
      000000ACH   SFRSYM    DATA     BYTE      P3S
      000000D8H.4 SFRSYM    DATA     BIT       CLRPWM
      00000088H.6 SFRSYM    DATA     BIT       TR1
      000000C8H.2 SFRSYM    DATA     BIT       TR2
      000000B8H   SFRSYM    DATA     BIT       PX0
      00000090H.4 SFRSYM    DATA     BIT       SDA
      000000FFH   SFRSYM    DATA     BYTE      EIPH1
      000000B8H.2 SFRSYM    DATA     BIT       PX1
      000000E8H   SFRSYM    DATA     BYTE      ADCCON0
      000000E1H   SFRSYM    DATA     BYTE      ADCCON1
      000000E2H   SFRSYM    DATA     BYTE      ADCCON2
      000000C0H   SFRSYM    DATA     BYTE      I2CON
      00000083H   SFRSYM    DATA     BYTE      DPH
      000000F8H.2 SFRSYM    DATA     BIT       RB8_1
      000000EFH   SFRSYM    DATA     BYTE      EIP
      000000F8H.3 SFRSYM    DATA     BIT       TB8_1
      000000ECH   SFRSYM    DATA     BYTE      PIF
      00000082H   SFRSYM    DATA     BYTE      DPL
      000000F8H.7 SFRSYM    DATA     BIT       SM0_1
      000000FCH   SFRSYM    DATA     BYTE      PMD
      000000B7H   SFRSYM    DATA     BYTE      IPH
      000000F8H.6 SFRSYM    DATA     BIT       SM1_1
      00000090H.3 SFRSYM    DATA     BIT       SCL
      000000BFH   SFRSYM    DATA     BYTE      I2TOC
      000000F8H.5 SFRSYM    DATA     BIT       SM2_1
      000000C3H   SFRSYM    DATA     BYTE      ADCRH
      000000A7H   SFRSYM    DATA     BYTE      IAPAH
      00000098H.4 SFRSYM    DATA     BIT       REN
      000000AEH   SFRSYM    DATA     BYTE      IAPFD
      00000092H   SFRSYM    DATA     BYTE      CAPCON0
      000000C0H   SFRSYM    DATA     BIT       I2CPX
      000000C9H   SFRSYM    DATA     BYTE      T2MOD
      000000C8H   SFRSYM    DATA     BYTE      T2CON
      000000C2H   SFRSYM    DATA     BYTE      ADCRL
      000000A3H   SFRSYM    DATA     BYTE      BODCON0
      00000093H   SFRSYM    DATA     BYTE      CAPCON1
      000000C0H.5 SFRSYM    DATA     BIT       STA
      000000C4H   SFRSYM    DATA     BYTE      T3CON
      000000ABH   SFRSYM    DATA     BYTE      BODCON1
      000000A6H   SFRSYM    DATA     BYTE      IAPAL
      00000094H   SFRSYM    DATA     BYTE      CAPCON2
      000000F1H   SFRSYM    DATA     BYTE      CAPCON3
      000000F2H   SFRSYM    DATA     BYTE      CAPCON4
      000000D8H.7 SFRSYM    DATA     BIT       PWMRUN
      000000F3H   SFRSYM    DATA     BYTE      SPCR2
      000000B9H   SFRSYM    DATA     BYTE      SADEN
      000000AFH   SFRSYM    DATA     BYTE      IAPCN
      000000D2H   SFRSYM    DATA     BYTE      PWM0H
      000000D6H   SFRSYM    DATA     BYTE      PNP
      000000D3H   SFRSYM    DATA     BYTE      PWM1H
      000000D4H   SFRSYM    DATA     BYTE      PWM2H
      000000A9H   SFRSYM    DATA     BYTE      SADDR
      0000008EH   SFRSYM    DATA     BYTE      CKCON
      000000D5H   SFRSYM    DATA     BYTE      PWM3H
      000000DAH   SFRSYM    DATA     BYTE      PWM0L
      000000C4H   SFRSYM    DATA     BYTE      PWM4H
      000000DBH   SFRSYM    DATA     BYTE      PWM1L
      000000C5H   SFRSYM    DATA     BYTE      PWM5H
      000000A2H   SFRSYM    DATA     BYTE      AUXR1
      00000095H   SFRSYM    DATA     BYTE      CKDIV
      000000DCH   SFRSYM    DATA     BYTE      PWM2L
      000000DDH   SFRSYM    DATA     BYTE      PWM3L
LX51 LINKER/LOCATER V4.66.41.0                                                        03/26/2019  15:13:05  PAGE 57


      00000086H   SFRSYM    DATA     BYTE      RWK
      000000D0H.5 SFRSYM    DATA     BIT       F0
      000000CCH   SFRSYM    DATA     BYTE      PWM4L
      000000F8H.4 SFRSYM    DATA     BIT       REN_1
      000000E8H.4 SFRSYM    DATA     BIT       ETGSEL0
      000000C0H.4 SFRSYM    DATA     BIT       STO
      000000CDH   SFRSYM    DATA     BYTE      PWM5L
      000000E8H.5 SFRSYM    DATA     BIT       ETGSEL1
      000000E9H   SFRSYM    DATA     BYTE      PICON
      000000DEH   SFRSYM    DATA     BYTE      PIOCON0
      000000D0H   SFRSYM    DATA     BYTE      PSW
      000000EAH   SFRSYM    DATA     BYTE      PINEN
      000000C6H   SFRSYM    DATA     BYTE      PIOCON1
      000000F9H   SFRSYM    DATA     BYTE      PDTEN
      000000AAH   SFRSYM    DATA     BYTE      WDCON
      000000EBH   SFRSYM    DATA     BYTE      PIPEN
      000000BAH   SFRSYM    DATA     BYTE      SADEN_1
      01000058H   SYMBOL    CODE     ---       pwm_disable
      01002A6FH   SYMBOL    CODE     ---       curve_get_duration
      0100001AH   SYMBOL    CODE     ---       pwm_enable
      01002A35H   SYMBOL    CODE     ---       motion_time_left
      01002AB4H   SYMBOL    CODE     ---       _eeprom_checksum
      01002A78H   SYMBOL    CODE     ---       curve_get_p0
      01002A87H   SYMBOL    CODE     ---       curve_get_p1
      01002A5DH   SYMBOL    CODE     ---       curve_get_t0
      01002A66H   SYMBOL    CODE     ---       curve_get_t1
      01002A96H   SYMBOL    CODE     ---       curve_get_v0
      01002AA5H   SYMBOL    CODE     ---       curve_get_v1

      01002A35H   BLOCK     CODE     ---       LVL=0
      01002A35H   LINE      ---      ---       #28
      01002A35H   LINE      ---      ---       #31
      01002A35H   LINE      ---      ---       #34
      01002A5CH   LINE      ---      ---       #35
      ---         BLOCKEND  ---      ---       LVL=0

      0100001AH   BLOCK     CODE     ---       LVL=0
      0100001AH   LINE      ---      ---       #40
      0100001AH   LINE      ---      ---       #41
      0100001AH   LINE      ---      ---       #46
      ---         BLOCKEND  ---      ---       LVL=0

      01000058H   BLOCK     CODE     ---       LVL=0
      01000058H   LINE      ---      ---       #49
      01000058H   LINE      ---      ---       #50
      01000058H   LINE      ---      ---       #57
      ---         BLOCKEND  ---      ---       LVL=0

      01002A5DH   BLOCK     CODE     ---       LVL=0
      01002A5DH   LINE      ---      ---       #48
      ---         BLOCKEND  ---      ---       LVL=0

      01002A66H   BLOCK     CODE     ---       LVL=0
      01002A66H   LINE      ---      ---       #49
      ---         BLOCKEND  ---      ---       LVL=0

      01002A6FH   BLOCK     CODE     ---       LVL=0
      01002A6FH   LINE      ---      ---       #50
      ---         BLOCKEND  ---      ---       LVL=0

      01002A78H   BLOCK     CODE     ---       LVL=0
      01002A78H   LINE      ---      ---       #51
      ---         BLOCKEND  ---      ---       LVL=0

      01002A87H   BLOCK     CODE     ---       LVL=0
LX51 LINKER/LOCATER V4.66.41.0                                                        03/26/2019  15:13:05  PAGE 58


      01002A87H   LINE      ---      ---       #52
      ---         BLOCKEND  ---      ---       LVL=0

      01002A96H   BLOCK     CODE     ---       LVL=0
      01002A96H   LINE      ---      ---       #53
      ---         BLOCKEND  ---      ---       LVL=0

      01002AA5H   BLOCK     CODE     ---       LVL=0
      01002AA5H   LINE      ---      ---       #54
      ---         BLOCKEND  ---      ---       LVL=0

      010021FDH   BLOCK     CODE     ---       LVL=0
      010021FDH   LINE      ---      ---       #12
      010021FDH   LINE      ---      ---       #13
      010021FDH   LINE      ---      ---       #14
      01002200H   LINE      ---      ---       #15
      01002203H   LINE      ---      ---       #16
      01002206H   LINE      ---      ---       #17
      01002209H   LINE      ---      ---       #18
      0100220CH   LINE      ---      ---       #19
      0100220FH   LINE      ---      ---       #20
      ---         BLOCKEND  ---      ---       LVL=0

      010022E7H   BLOCK     CODE     ---       LVL=0
      010022E7H   LINE      ---      ---       #24
      010022E7H   LINE      ---      ---       #25
      010022E7H   LINE      ---      ---       #26
      010022EAH   LINE      ---      ---       #27
      010022EDH   LINE      ---      ---       #28
      010022F0H   LINE      ---      ---       #29
      010022F3H   LINE      ---      ---       #30
      010022F6H   LINE      ---      ---       #31
      010022F9H   LINE      ---      ---       #32
      ---         BLOCKEND  ---      ---       LVL=0

      010021E1H   BLOCK     CODE     ---       LVL=0
      010021E1H   LINE      ---      ---       #36
      010021E5H   LINE      ---      ---       #37
      010021E5H   LINE      ---      ---       #38
      010021E7H   LINE      ---      ---       #39
      010021EAH   LINE      ---      ---       #40
      010021EDH   LINE      ---      ---       #41
      010021F1H   LINE      ---      ---       #42
      010021F4H   LINE      ---      ---       #43
      010021F7H   LINE      ---      ---       #44
      010021FAH   LINE      ---      ---       #45
      00000004H   SYMBOL    DATA     WORD      addr
      ---         BLOCKEND  ---      ---       LVL=0

      0100231CH   BLOCK     CODE     ---       LVL=0
      0100231CH   LINE      ---      ---       #51
      01002320H   LINE      ---      ---       #52
      00000082H   SYMBOL    DATA     ---       u16_addr
      01002320H   BLOCK     CODE     NEAR LAB  LVL=1
      01002320H   LINE      ---      ---       #54
      01002323H   LINE      ---      ---       #55
      01002323H   LINE      ---      ---       #56
      00000007H   SYMBOL    DATA     BYTE      rdata
      ---         BLOCKEND  CODE     ---       LVL=1
      ---         BLOCKEND  CODE     ---       LVL=0

      010022FAH   BLOCK     CODE     ---       LVL=0
      010022FAH   LINE      ---      ---       #60
      010022FEH   LINE      ---      ---       #61
      00000004H   SYMBOL    DATA     WORD      bite_addr
LX51 LINKER/LOCATER V4.66.41.0                                                        03/26/2019  15:13:05  PAGE 59


      010022FEH   BLOCK     CODE     NEAR LAB  LVL=1
      010022FEH   LINE      ---      ---       #64
      01002300H   LINE      ---      ---       #65
      01002304H   LINE      ---      ---       #66
      0100230FH   LINE      ---      ---       #67
      01002319H   LINE      ---      ---       #68
      0100231BH   LINE      ---      ---       #69
      0100231BH   LINE      ---      ---       #71
      00000006H   SYMBOL    DATA     WORD      DATA
      00000003H   SYMBOL    DATA     BYTE      BITE
      ---         BLOCKEND  CODE     ---       LVL=1
      ---         BLOCKEND  CODE     ---       LVL=0

      0100229EH   BLOCK     CODE     ---       LVL=0
      0100229EH   LINE      ---      ---       #76
      010022A2H   LINE      ---      ---       #77
      010022A2H   LINE      ---      ---       #78
      010022A4H   LINE      ---      ---       #79
      010022A7H   LINE      ---      ---       #80
      010022AAH   LINE      ---      ---       #81
      010022AEH   LINE      ---      ---       #82
      010022B2H   LINE      ---      ---       #83
      010022B5H   LINE      ---      ---       #84
      010022B8H   LINE      ---      ---       #85
      010022BBH   LINE      ---      ---       #86
      00000002H   SYMBOL    DATA     WORD      bite_addr
      00000005H   SYMBOL    DATA     BYTE      DATA
      ---         BLOCKEND  ---      ---       LVL=0

      010022BDH   BLOCK     CODE     ---       LVL=0
      010022BDH   LINE      ---      ---       #91
      010022CBH   LINE      ---      ---       #92
      010022CBH   LINE      ---      ---       #93
      010022CDH   LINE      ---      ---       #95
      010022CFH   LINE      ---      ---       #96
      010022E4H   LINE      ---      ---       #97
      010022E6H   LINE      ---      ---       #98
      020001F0H   SYMBOL    XDATA    WORD      bite_addr
      020001F2H   SYMBOL    XDATA    WORD      DATA
      ---         BLOCKEND  ---      ---       LVL=0

      01002427H   BLOCK     CODE     ---       LVL=0
      01002427H   LINE      ---      ---       #99
      01002438H   LINE      ---      ---       #100
      0200024FH   SYMBOL    XDATA    ---       Data_Buf
      02000252H   SYMBOL    XDATA    WORD      bite_addr
      02000254H   SYMBOL    XDATA    BYTE      n
      01002438H   BLOCK     CODE     NEAR LAB  LVL=1
      01002438H   LINE      ---      ---       #101
      0100243DH   LINE      ---      ---       #103
      0100244AH   LINE      ---      ---       #104
      01002482H   LINE      ---      ---       #106
      02000255H   SYMBOL    XDATA    BYTE      i
      ---         BLOCKEND  CODE     ---       LVL=1
      ---         BLOCKEND  CODE     ---       LVL=0

      010023CBH   BLOCK     CODE     ---       LVL=0
      010023CBH   LINE      ---      ---       #107
      010023DCH   LINE      ---      ---       #108
      02000256H   SYMBOL    XDATA    ---       Data_Buf
      02000259H   SYMBOL    XDATA    WORD      bite_addr
      0200025BH   SYMBOL    XDATA    BYTE      n
      010023DCH   BLOCK     CODE     NEAR LAB  LVL=1
      010023E1H   LINE      ---      ---       #109
      010023EEH   LINE      ---      ---       #110
LX51 LINKER/LOCATER V4.66.41.0                                                        03/26/2019  15:13:05  PAGE 60


      010023EEH   LINE      ---      ---       #111
      0100241EH   LINE      ---      ---       #112
      01002426H   LINE      ---      ---       #114
      0200025CH   SYMBOL    XDATA    BYTE      i
      ---         BLOCKEND  CODE     ---       LVL=1
      ---         BLOCKEND  CODE     ---       LVL=0

      01002188H   BLOCK     CODE     ---       LVL=0
      01002188H   LINE      ---      ---       #115
      01002196H   LINE      ---      ---       #116
      020001EBH   SYMBOL    XDATA    ---       Data_Buf
      020001EEH   SYMBOL    XDATA    BYTE      n
      01002196H   BLOCK     CODE     NEAR LAB  LVL=1
      01002196H   LINE      ---      ---       #117
      0100219CH   LINE      ---      ---       #118
      010021ABH   LINE      ---      ---       #119
      010021ABH   LINE      ---      ---       #120
      010021D8H   LINE      ---      ---       #121
      010021E0H   LINE      ---      ---       #122
      020001EFH   SYMBOL    XDATA    BYTE      dispLine
      ---         BLOCKEND  CODE     ---       LVL=1
      ---         BLOCKEND  CODE     ---       LVL=0

      0100222CH   BLOCK     CODE     ---       LVL=0
      0100222CH   LINE      ---      ---       #124
      0100223AH   LINE      ---      ---       #125
      020001E9H   SYMBOL    XDATA    ---       Data_Buf
      020001ECH   SYMBOL    XDATA    BYTE      n
      0100223AH   BLOCK     CODE     NEAR LAB  LVL=1
      0100223FH   LINE      ---      ---       #127
      01002257H   LINE      ---      ---       #128
      0100229DH   LINE      ---      ---       #129
      020001EDH   SYMBOL    XDATA    WORD      i
      ---         BLOCKEND  CODE     ---       LVL=1
      ---         BLOCKEND  CODE     ---       LVL=0

      01002AB4H   BLOCK     CODE     ---       LVL=0
      01002AB4H   LINE      ---      ---       #135
      01002AB4H   LINE      ---      ---       #136
      01002AB4H   LINE      ---      ---       #137
      01002AB8H   LINE      ---      ---       #138
      01002AB8H   LINE      ---      ---       #139
      01002AC2H   LINE      ---      ---       #140
      01002AC9H   LINE      ---      ---       #141
      01002ACEH   LINE      ---      ---       #142
      01002AD0H   LINE      ---      ---       #143
      01002AD5H   LINE      ---      ---       #144
      00000001H   SYMBOL    DATA     ---       buffer
      00000004H   SYMBOL    DATA     WORD      Size
      02000262H   SYMBOL    XDATA    BYTE      sum
      ---         BLOCKEND  ---      ---       LVL=0

      010023A2H   BLOCK     CODE     ---       LVL=0
      010023A2H   LINE      ---      ---       #151
      010023A2H   LINE      ---      ---       #152
      010023A2H   LINE      ---      ---       #153
      010023A8H   LINE      ---      ---       #154
      010023AAH   LINE      ---      ---       #155
      ---         BLOCKEND  ---      ---       LVL=0

      01002324H   BLOCK     CODE     ---       LVL=0
      01002324H   LINE      ---      ---       #158
      01002324H   LINE      ---      ---       #159
      01002324H   BLOCK     CODE     NEAR LAB  LVL=1
      01002324H   LINE      ---      ---       #166
LX51 LINKER/LOCATER V4.66.41.0                                                        03/26/2019  15:13:05  PAGE 61


      0100232FH   LINE      ---      ---       #167
      01002338H   LINE      ---      ---       #169
      01002343H   LINE      ---      ---       #181
      01002345H   LINE      ---      ---       #182
      0200026BH   SYMBOL    XDATA    ---       header
      ---         BLOCKEND  CODE     ---       LVL=1
      ---         BLOCKEND  CODE     ---       LVL=0

      010023ABH   BLOCK     CODE     ---       LVL=0
      010023ABH   LINE      ---      ---       #185
      010023ABH   LINE      ---      ---       #187
      010023ABH   BLOCK     CODE     NEAR LAB  LVL=1
      010023ABH   LINE      ---      ---       #193
      010023B1H   LINE      ---      ---       #195
      010023B7H   LINE      ---      ---       #198
      010023C8H   LINE      ---      ---       #206
      010023CAH   LINE      ---      ---       #207
      0200026DH   SYMBOL    XDATA    ---       header
      ---         BLOCKEND  CODE     ---       LVL=1
      ---         BLOCKEND  CODE     ---       LVL=0

      ---         MODULE    ---      ---       MOTION
      02000116H   PUBLIC    XDATA    DWORD     motion_duration
      02000112H   PUBLIC    XDATA    FLOAT     fposition
      0200010EH   PUBLIC    XDATA    FLOAT     fvelocity
      0200010DH   PUBLIC    XDATA    BYTE      next
      0200009DH   PUBLIC    XDATA    ---       keys
      0200009CH   PUBLIC    XDATA    BYTE      motion_tail
      0200009BH   PUBLIC    XDATA    BYTE      motion_head
      02000097H   PUBLIC    XDATA    DWORD     motion_counter
      010030FBH   PUBLIC    CODE     ---       motion_buffer_left
      01002B1CH   PUBLIC    CODE     ---       _motion_next
      01002E11H   PUBLIC    CODE     ---       motion_append
      0100276CH   PUBLIC    CODE     ---       motion_registers_reset
      010026E6H   PUBLIC    CODE     ---       _motion_reset
      01002F98H   PUBLIC    CODE     ---       motion_init
      000000F6H   SFRSYM    DATA     BYTE      AINDIDS
      000000B1H   SFRSYM    DATA     BYTE      P0M1
      000000B3H   SFRSYM    DATA     BYTE      P1M1
      000000B2H   SFRSYM    DATA     BYTE      P0M2
      00000080H   SFRSYM    DATA     BYTE      P0
      000000BBH   SFRSYM    DATA     BYTE      SADDR_1
      000000B4H   SFRSYM    DATA     BYTE      P1M2
      00000090H   SFRSYM    DATA     BYTE      P1
      000000C0H.2 SFRSYM    DATA     BIT       AA
      000000ACH   SFRSYM    DATA     BYTE      P3M1
      000000A0H   SFRSYM    DATA     BYTE      P2
      000000B0H   SFRSYM    DATA     BYTE      P3
      000000ADH   SFRSYM    DATA     BYTE      P3M2
      000000D0H.6 SFRSYM    DATA     BIT       AC
      0000008FH   SFRSYM    DATA     BYTE      WKCON
      0000009CH   SFRSYM    DATA     BYTE      EIE1
      000000A8H.7 SFRSYM    DATA     BIT       EA
      000000D8H   SFRSYM    DATA     BYTE      PWMCON0
      000000DFH   SFRSYM    DATA     BYTE      PWMCON1
      00000098H.7 SFRSYM    DATA     BIT       FE
      000000A8H.6 SFRSYM    DATA     BIT       EADC
      000000D1H   SFRSYM    DATA     BYTE      PWMPH
      000000A8H   SFRSYM    DATA     BYTE      IE
      00000096H   SFRSYM    DATA     BYTE      CKSWT
      000000E8H.7 SFRSYM    DATA     BIT       ADCF
      000000FEH   SFRSYM    DATA     BYTE      EIP1
      000000D9H   SFRSYM    DATA     BYTE      PWMPL
      000000E8H   SFRSYM    DATA     BIT       ADCHS0
      000000C7H   SFRSYM    DATA     BYTE      TA
LX51 LINKER/LOCATER V4.66.41.0                                                        03/26/2019  15:13:05  PAGE 62


      000000E8H.1 SFRSYM    DATA     BIT       ADCHS1
      000000E8H.2 SFRSYM    DATA     BIT       ADCHS2
      000000E8H.3 SFRSYM    DATA     BIT       ADCHS3
      000000A8H.4 SFRSYM    DATA     BIT       ES
      000000C1H   SFRSYM    DATA     BYTE      I2ADDR
      000000B8H.6 SFRSYM    DATA     BIT       PADC
      000000B8H   SFRSYM    DATA     BYTE      IP
      000000A8H.5 SFRSYM    DATA     BIT       EBOD
      00000098H   SFRSYM    DATA     BIT       RI
      000000F8H.7 SFRSYM    DATA     BIT       FE_1
      000000E8H.6 SFRSYM    DATA     BIT       ADCS
      000000D0H.7 SFRSYM    DATA     BIT       CY
      000000C0H.3 SFRSYM    DATA     BIT       SI
      000000B0H   SFRSYM    DATA     BIT       INT0
      00000098H.1 SFRSYM    DATA     BIT       TI
      000000D8H.6 SFRSYM    DATA     BIT       LOAD
      00000097H   SFRSYM    DATA     BYTE      CKEN
      000000B8H.4 SFRSYM    DATA     BIT       PS
      00000081H   SFRSYM    DATA     BYTE      SP
      000000D0H.2 SFRSYM    DATA     BIT       OV
      000000B7H   SFRSYM    DATA     BYTE      PWMINTC
      000000B8H.5 SFRSYM    DATA     BIT       PBOD
      000000B2H   SFRSYM    DATA     BYTE      P0SR
      000000F7H   SFRSYM    DATA     BYTE      EIPH
      000000B4H   SFRSYM    DATA     BYTE      P1SR
      000000ADH   SFRSYM    DATA     BYTE      P3SR
      000000F8H   SFRSYM    DATA     BIT       RI_1
      000000F8H.1 SFRSYM    DATA     BIT       TI_1
      000000CBH   SFRSYM    DATA     BYTE      RCMP2H
      000000CFH   SFRSYM    DATA     BYTE      ADCMPH
      00000080H   SFRSYM    DATA     BIT       P00
      00000090H   SFRSYM    DATA     BIT       P10
      00000080H.1 SFRSYM    DATA     BIT       P01
      000000FBH   SFRSYM    DATA     BYTE      PMEN
      00000099H   SFRSYM    DATA     BYTE      SBUF
      00000087H   SFRSYM    DATA     BYTE      PCON
      000000A0H   SFRSYM    DATA     BIT       P20
      00000090H.1 SFRSYM    DATA     BIT       P11
      00000080H.2 SFRSYM    DATA     BIT       P02
      000000CAH   SFRSYM    DATA     BYTE      RCMP2L
      000000B0H   SFRSYM    DATA     BIT       P30
      00000090H.2 SFRSYM    DATA     BIT       P12
      00000080H.3 SFRSYM    DATA     BIT       P03
      000000E3H   SFRSYM    DATA     BYTE      ADCDLY
      000000CEH   SFRSYM    DATA     BYTE      ADCMPL
      00000090H.3 SFRSYM    DATA     BIT       P13
      00000080H.4 SFRSYM    DATA     BIT       P04
      00000098H   SFRSYM    DATA     BYTE      SCON
      00000090H.4 SFRSYM    DATA     BIT       P14
      00000080H.5 SFRSYM    DATA     BIT       P05
      00000089H   SFRSYM    DATA     BYTE      TMOD
      00000088H   SFRSYM    DATA     BYTE      TCON
      00000090H.5 SFRSYM    DATA     BIT       P15
      00000080H.6 SFRSYM    DATA     BIT       P06
      00000090H.6 SFRSYM    DATA     BIT       P16
      00000080H.7 SFRSYM    DATA     BIT       P07
      00000090H.7 SFRSYM    DATA     BIT       P17
      000000F3H   SFRSYM    DATA     BYTE      SPCR
      000000BDH   SFRSYM    DATA     BYTE      I2STAT
      000000F5H   SFRSYM    DATA     BYTE      SPDR
      000000D8H.5 SFRSYM    DATA     BIT       PWMF
      000000E5H   SFRSYM    DATA     BYTE      C0H
      000000E7H   SFRSYM    DATA     BYTE      C1H
      000000EEH   SFRSYM    DATA     BYTE      C2H
      0000009FH   SFRSYM    DATA     BYTE      CHPCON
LX51 LINKER/LOCATER V4.66.41.0                                                        03/26/2019  15:13:05  PAGE 63


      00000088H.1 SFRSYM    DATA     BIT       IE0
      00000088H.3 SFRSYM    DATA     BIT       IE1
      000000E4H   SFRSYM    DATA     BYTE      C0L
      00000091H   SFRSYM    DATA     BYTE      SFRS
      000000E6H   SFRSYM    DATA     BYTE      C1L
      000000C8H   SFRSYM    DATA     BIT       CM_RL2
      000000F0H   SFRSYM    DATA     BYTE      B
      000000EDH   SFRSYM    DATA     BYTE      C2L
      0000009AH   SFRSYM    DATA     BYTE      SBUF_1
      000000A5H   SFRSYM    DATA     BYTE      IAPUEN
      000000F8H   SFRSYM    DATA     BYTE      SCON_1
      000000E0H   SFRSYM    DATA     BYTE      ACC
      000000A8H.1 SFRSYM    DATA     BIT       ET0
      000000F4H   SFRSYM    DATA     BYTE      SPSR
      000000A4H   SFRSYM    DATA     BYTE      IAPTRG
      000000A8H.3 SFRSYM    DATA     BIT       ET1
      00000088H.5 SFRSYM    DATA     BIT       TF0
      00000088H.7 SFRSYM    DATA     BIT       TF1
      000000C8H.7 SFRSYM    DATA     BIT       TF2
      00000098H.2 SFRSYM    DATA     BIT       RB8
      000000D7H   SFRSYM    DATA     BYTE      FBD
      0000008CH   SFRSYM    DATA     BYTE      TH0
      000000A8H   SFRSYM    DATA     BIT       EX0
      00000088H   SFRSYM    DATA     BIT       IT0
      000000C6H   SFRSYM    DATA     BYTE      RH3
      0000008DH   SFRSYM    DATA     BYTE      TH1
      000000A8H.2 SFRSYM    DATA     BIT       EX1
      00000098H.3 SFRSYM    DATA     BIT       TB8
      00000088H.2 SFRSYM    DATA     BIT       IT1
      000000CDH   SFRSYM    DATA     BYTE      TH2
      000000D0H   SFRSYM    DATA     BIT       P
      000000FAH   SFRSYM    DATA     BYTE      PDTCNT
      00000098H.7 SFRSYM    DATA     BIT       SM0
      0000008AH   SFRSYM    DATA     BYTE      TL0
      00000098H.6 SFRSYM    DATA     BIT       SM1
      000000C5H   SFRSYM    DATA     BYTE      RL3
      0000008BH   SFRSYM    DATA     BYTE      TL1
      000000C0H.6 SFRSYM    DATA     BIT       I2CEN
      00000098H.5 SFRSYM    DATA     BIT       SM2
      000000CCH   SFRSYM    DATA     BYTE      TL2
      000000B1H   SFRSYM    DATA     BYTE      P0S
      0000009BH   SFRSYM    DATA     BYTE      EIE
      000000B8H.1 SFRSYM    DATA     BIT       PT0
      000000B3H   SFRSYM    DATA     BYTE      P1S
      000000D0H.3 SFRSYM    DATA     BIT       RS0
      000000B8H.3 SFRSYM    DATA     BIT       PT1
      000000BCH   SFRSYM    DATA     BYTE      I2DAT
      000000B5H   SFRSYM    DATA     BYTE      P2S
      000000D0H.4 SFRSYM    DATA     BIT       RS1
      00000088H.4 SFRSYM    DATA     BIT       TR0
      000000BEH   SFRSYM    DATA     BYTE      I2CLK
      000000ACH   SFRSYM    DATA     BYTE      P3S
      000000D8H.4 SFRSYM    DATA     BIT       CLRPWM
      00000088H.6 SFRSYM    DATA     BIT       TR1
      000000C8H.2 SFRSYM    DATA     BIT       TR2
      000000B8H   SFRSYM    DATA     BIT       PX0
      00000090H.4 SFRSYM    DATA     BIT       SDA
      000000FFH   SFRSYM    DATA     BYTE      EIPH1
      000000B8H.2 SFRSYM    DATA     BIT       PX1
      000000E8H   SFRSYM    DATA     BYTE      ADCCON0
      000000E1H   SFRSYM    DATA     BYTE      ADCCON1
      000000E2H   SFRSYM    DATA     BYTE      ADCCON2
      000000C0H   SFRSYM    DATA     BYTE      I2CON
      00000083H   SFRSYM    DATA     BYTE      DPH
      000000F8H.2 SFRSYM    DATA     BIT       RB8_1
LX51 LINKER/LOCATER V4.66.41.0                                                        03/26/2019  15:13:05  PAGE 64


      000000EFH   SFRSYM    DATA     BYTE      EIP
      000000F8H.3 SFRSYM    DATA     BIT       TB8_1
      000000ECH   SFRSYM    DATA     BYTE      PIF
      00000082H   SFRSYM    DATA     BYTE      DPL
      000000F8H.7 SFRSYM    DATA     BIT       SM0_1
      000000FCH   SFRSYM    DATA     BYTE      PMD
      000000B7H   SFRSYM    DATA     BYTE      IPH
      000000F8H.6 SFRSYM    DATA     BIT       SM1_1
      00000090H.3 SFRSYM    DATA     BIT       SCL
      000000BFH   SFRSYM    DATA     BYTE      I2TOC
      000000F8H.5 SFRSYM    DATA     BIT       SM2_1
      000000C3H   SFRSYM    DATA     BYTE      ADCRH
      000000A7H   SFRSYM    DATA     BYTE      IAPAH
      00000098H.4 SFRSYM    DATA     BIT       REN
      000000AEH   SFRSYM    DATA     BYTE      IAPFD
      00000092H   SFRSYM    DATA     BYTE      CAPCON0
      000000C0H   SFRSYM    DATA     BIT       I2CPX
      000000C9H   SFRSYM    DATA     BYTE      T2MOD
      000000C8H   SFRSYM    DATA     BYTE      T2CON
      000000C2H   SFRSYM    DATA     BYTE      ADCRL
      000000A3H   SFRSYM    DATA     BYTE      BODCON0
      00000093H   SFRSYM    DATA     BYTE      CAPCON1
      000000C0H.5 SFRSYM    DATA     BIT       STA
      000000C4H   SFRSYM    DATA     BYTE      T3CON
      000000ABH   SFRSYM    DATA     BYTE      BODCON1
      000000A6H   SFRSYM    DATA     BYTE      IAPAL
      00000094H   SFRSYM    DATA     BYTE      CAPCON2
      000000F1H   SFRSYM    DATA     BYTE      CAPCON3
      000000F2H   SFRSYM    DATA     BYTE      CAPCON4
      000000D8H.7 SFRSYM    DATA     BIT       PWMRUN
      000000F3H   SFRSYM    DATA     BYTE      SPCR2
      000000B9H   SFRSYM    DATA     BYTE      SADEN
      000000AFH   SFRSYM    DATA     BYTE      IAPCN
      000000D2H   SFRSYM    DATA     BYTE      PWM0H
      000000D6H   SFRSYM    DATA     BYTE      PNP
      000000D3H   SFRSYM    DATA     BYTE      PWM1H
      000000D4H   SFRSYM    DATA     BYTE      PWM2H
      000000A9H   SFRSYM    DATA     BYTE      SADDR
      0000008EH   SFRSYM    DATA     BYTE      CKCON
      000000D5H   SFRSYM    DATA     BYTE      PWM3H
      000000DAH   SFRSYM    DATA     BYTE      PWM0L
      000000C4H   SFRSYM    DATA     BYTE      PWM4H
      000000DBH   SFRSYM    DATA     BYTE      PWM1L
      000000C5H   SFRSYM    DATA     BYTE      PWM5H
      000000A2H   SFRSYM    DATA     BYTE      AUXR1
      00000095H   SFRSYM    DATA     BYTE      CKDIV
      000000DCH   SFRSYM    DATA     BYTE      PWM2L
      000000DDH   SFRSYM    DATA     BYTE      PWM3L
      00000086H   SFRSYM    DATA     BYTE      RWK
      000000D0H.5 SFRSYM    DATA     BIT       F0
      000000CCH   SFRSYM    DATA     BYTE      PWM4L
      000000F8H.4 SFRSYM    DATA     BIT       REN_1
      000000E8H.4 SFRSYM    DATA     BIT       ETGSEL0
      000000C0H.4 SFRSYM    DATA     BIT       STO
      000000CDH   SFRSYM    DATA     BYTE      PWM5L
      000000E8H.5 SFRSYM    DATA     BIT       ETGSEL1
      000000E9H   SFRSYM    DATA     BYTE      PICON
      000000DEH   SFRSYM    DATA     BYTE      PIOCON0
      000000D0H   SFRSYM    DATA     BYTE      PSW
      000000EAH   SFRSYM    DATA     BYTE      PINEN
      000000C6H   SFRSYM    DATA     BYTE      PIOCON1
      000000F9H   SFRSYM    DATA     BYTE      PDTEN
      000000AAH   SFRSYM    DATA     BYTE      WDCON
      000000EBH   SFRSYM    DATA     BYTE      PIPEN
      000000BAH   SFRSYM    DATA     BYTE      SADEN_1
LX51 LINKER/LOCATER V4.66.41.0                                                        03/26/2019  15:13:05  PAGE 65


      01002DD3H   SYMBOL    CODE     ---       _float_to_int
      0100278CH   SYMBOL    CODE     ---       _int_to_float
      01002AFEH   SYMBOL    CODE     ---       pwm_disable
      01002B13H   SYMBOL    CODE     ---       curve_get_duration
      01000029H   SYMBOL    CODE     ---       pwm_enable
      01002AD6H   SYMBOL    CODE     ---       motion_time_left
      01002DF3H   SYMBOL    CODE     ---       curve_get_p0
      01002E02H   SYMBOL    CODE     ---       curve_get_p1
      01002B01H   SYMBOL    CODE     ---       curve_get_t0
      01002B0AH   SYMBOL    CODE     ---       curve_get_t1
      01002F68H   SYMBOL    CODE     ---       _fixed_to_float
      01002F7AH   SYMBOL    CODE     ---       curve_get_v0
      01002F89H   SYMBOL    CODE     ---       curve_get_v1

      01002AD6H   BLOCK     CODE     ---       LVL=0
      01002AD6H   LINE      ---      ---       #28
      01002AD6H   LINE      ---      ---       #31
      01002AD6H   LINE      ---      ---       #34
      01002AFDH   LINE      ---      ---       #35
      ---         BLOCKEND  ---      ---       LVL=0

      01000029H   BLOCK     CODE     ---       LVL=0
      01000029H   LINE      ---      ---       #40
      01000029H   LINE      ---      ---       #41
      01000029H   LINE      ---      ---       #46
      ---         BLOCKEND  ---      ---       LVL=0

      01002AFEH   BLOCK     CODE     ---       LVL=0
      01002AFEH   LINE      ---      ---       #49
      01002AFEH   LINE      ---      ---       #50
      01002AFEH   LINE      ---      ---       #57
      ---         BLOCKEND  ---      ---       LVL=0

      01002B01H   BLOCK     CODE     ---       LVL=0
      01002B01H   LINE      ---      ---       #48
      ---         BLOCKEND  ---      ---       LVL=0

      01002B0AH   BLOCK     CODE     ---       LVL=0
      01002B0AH   LINE      ---      ---       #49
      ---         BLOCKEND  ---      ---       LVL=0

      01002B13H   BLOCK     CODE     ---       LVL=0
      01002B13H   LINE      ---      ---       #50
      ---         BLOCKEND  ---      ---       LVL=0

      01002DF3H   BLOCK     CODE     ---       LVL=0
      01002DF3H   LINE      ---      ---       #51
      ---         BLOCKEND  ---      ---       LVL=0

      01002E02H   BLOCK     CODE     ---       LVL=0
      01002E02H   LINE      ---      ---       #52
      ---         BLOCKEND  ---      ---       LVL=0

      01002F7AH   BLOCK     CODE     ---       LVL=0
      01002F7AH   LINE      ---      ---       #53
      ---         BLOCKEND  ---      ---       LVL=0

      01002F89H   BLOCK     CODE     ---       LVL=0
      01002F89H   LINE      ---      ---       #54
      ---         BLOCKEND  ---      ---       LVL=0

      0100278CH   BLOCK     CODE     ---       LVL=0
      0100278CH   LINE      ---      ---       #12
      0100278CH   LINE      ---      ---       #14
      0100278CH   LINE      ---      ---       #15
LX51 LINKER/LOCATER V4.66.41.0                                                        03/26/2019  15:13:05  PAGE 66


      00000006H   SYMBOL    DATA     INT       a
      ---         BLOCKEND  ---      ---       LVL=0

      01002DD3H   BLOCK     CODE     ---       LVL=0
      01002DD3H   LINE      ---      ---       #19
      01002DD9H   LINE      ---      ---       #21
      01002DD9H   LINE      ---      ---       #22
      020001EDH   SYMBOL    XDATA    FLOAT     a
      ---         BLOCKEND  ---      ---       LVL=0

      01002F68H   BLOCK     CODE     ---       LVL=0
      01002F68H   LINE      ---      ---       #27
      01002F68H   LINE      ---      ---       #29
      01002F68H   LINE      ---      ---       #30
      00000006H   SYMBOL    DATA     INT       a
      ---         BLOCKEND  ---      ---       LVL=0

      01002F98H   BLOCK     CODE     ---       LVL=0
      01002F98H   LINE      ---      ---       #43
      01002F98H   LINE      ---      ---       #45
      01002F98H   LINE      ---      ---       #47
      01002FA2H   LINE      ---      ---       #50
      01002FACH   LINE      ---      ---       #53
      01002FB1H   LINE      ---      ---       #54
      01002FB3H   LINE      ---      ---       #57
      01002FB7H   LINE      ---      ---       #58
      01002FBFH   LINE      ---      ---       #59
      01002FC9H   LINE      ---      ---       #60
      01002FD3H   LINE      ---      ---       #63
      01002FDAH   LINE      ---      ---       #64
      01002FE2H   LINE      ---      ---       #65
      01002FECH   LINE      ---      ---       #66
      01002FF6H   LINE      ---      ---       #69
      01002FFDH   LINE      ---      ---       #70
      01003005H   LINE      ---      ---       #71
      0100300FH   LINE      ---      ---       #72
      01003019H   LINE      ---      ---       #74
      01003020H   LINE      ---      ---       #75
      01003028H   LINE      ---      ---       #76
      01003032H   LINE      ---      ---       #77
      0100303CH   LINE      ---      ---       #79
      01003043H   LINE      ---      ---       #80
      0100304BH   LINE      ---      ---       #81
      01003055H   LINE      ---      ---       #82
      0100305FH   LINE      ---      ---       #84
      01003066H   LINE      ---      ---       #85
      0100306EH   LINE      ---      ---       #86
      01003078H   LINE      ---      ---       #87
      01003082H   LINE      ---      ---       #89
      01003089H   LINE      ---      ---       #90
      01003091H   LINE      ---      ---       #91
      0100309BH   LINE      ---      ---       #92
      010030A5H   LINE      ---      ---       #94
      010030ACH   LINE      ---      ---       #95
      010030B4H   LINE      ---      ---       #96
      010030BEH   LINE      ---      ---       #97
      010030C8H   LINE      ---      ---       #100
      010030F8H   LINE      ---      ---       #102
      ---         BLOCKEND  ---      ---       LVL=0

      010026E6H   BLOCK     CODE     ---       LVL=0
      010026E6H   LINE      ---      ---       #106
      010026EAH   LINE      ---      ---       #108
      010026EAH   LINE      ---      ---       #110
      010026F4H   LINE      ---      ---       #113
LX51 LINKER/LOCATER V4.66.41.0                                                        03/26/2019  15:13:05  PAGE 67


      010026FEH   LINE      ---      ---       #116
      01002703H   LINE      ---      ---       #117
      01002705H   LINE      ---      ---       #120
      01002709H   LINE      ---      ---       #121
      01002715H   LINE      ---      ---       #122
      0100271FH   LINE      ---      ---       #123
      01002729H   LINE      ---      ---       #129
      00000002H   SYMBOL    DATA     INT       position
      ---         BLOCKEND  ---      ---       LVL=0

      0100276CH   BLOCK     CODE     ---       LVL=0
      0100276CH   LINE      ---      ---       #136
      0100276CH   LINE      ---      ---       #138
      0100276CH   LINE      ---      ---       #143
      01002773H   LINE      ---      ---       #144
      01002779H   LINE      ---      ---       #145
      0100277FH   LINE      ---      ---       #146
      01002785H   LINE      ---      ---       #149
      0100278BH   LINE      ---      ---       #151
      ---         BLOCKEND  ---      ---       LVL=0

      01002E11H   BLOCK     CODE     ---       LVL=0
      01002E11H   LINE      ---      ---       #154
      01002E11H   LINE      ---      ---       #161
      01002E11H   BLOCK     CODE     NEAR LAB  LVL=1
      01002E11H   LINE      ---      ---       #169
      01002E1DH   LINE      ---      ---       #172
      01002E27H   LINE      ---      ---       #180
      01002E2FH   LINE      ---      ---       #181
      01002E3EH   LINE      ---      ---       #182
      01002E4DH   LINE      ---      ---       #183
      01002E5DH   LINE      ---      ---       #185
      01002E68H   LINE      ---      ---       #188
      01002E86H   LINE      ---      ---       #189
      01002E9DH   LINE      ---      ---       #190
      01002EBBH   LINE      ---      ---       #191
      01002ED9H   LINE      ---      ---       #195
      01002EE3H   LINE      ---      ---       #196
      01002EE3H   LINE      ---      ---       #201
      01002F2FH   LINE      ---      ---       #202
      01002F2FH   LINE      ---      ---       #205
      01002F5AH   LINE      ---      ---       #208
      01002F62H   LINE      ---      ---       #212
      01002F65H   LINE      ---      ---       #214
      01002F67H   LINE      ---      ---       #215
      00000006H   SYMBOL    DATA     INT       position
      020001E9H   SYMBOL    XDATA    INT       in_velocity
      020001EBH   SYMBOL    XDATA    INT       out_velocity
      020001EDH   SYMBOL    XDATA    WORD      delta
      ---         BLOCKEND  CODE     ---       LVL=1
      ---         BLOCKEND  CODE     ---       LVL=0

      01002B1CH   BLOCK     CODE     ---       LVL=0
      01002B1CH   LINE      ---      ---       #219
      01002B24H   LINE      ---      ---       #226
      01002B24H   LINE      ---      ---       #232
      01002B2EH   LINE      ---      ---       #233
      01002B2EH   LINE      ---      ---       #235
      01002B38H   LINE      ---      ---       #236
      01002B42H   LINE      ---      ---       #237
      01002B44H   LINE      ---      ---       #239
      01002B44H   LINE      ---      ---       #241
      01002B6FH   LINE      ---      ---       #244
      01002B8AH   LINE      ---      ---       #245
      01002B8AH   LINE      ---      ---       #248
LX51 LINKER/LOCATER V4.66.41.0                                                        03/26/2019  15:13:05  PAGE 68


      01002BC3H   LINE      ---      ---       #252
      01002BFDH   LINE      ---      ---       #256
      01002C06H   LINE      ---      ---       #259
      01002C0EH   LINE      ---      ---       #260
      01002C0EH   LINE      ---      ---       #264
      01002C68H   LINE      ---      ---       #266
      01002C72H   LINE      ---      ---       #267
      01002C7CH   LINE      ---      ---       #268
      01002C7EH   LINE      ---      ---       #270
      020001E9H   SYMBOL    XDATA    WORD      delta
      01002C7EH   BLOCK     CODE     NEAR LAB  LVL=1
      01002C7EH   LINE      ---      ---       #274
      01002C87H   LINE      ---      ---       #275
      01002C8EH   LINE      ---      ---       #278
      01002D30H   LINE      ---      ---       #281
      020001EBH   SYMBOL    XDATA    BYTE      curr_point
      020001ECH   SYMBOL    XDATA    BYTE      next_point
      01002D30H   LINE      ---      ---       #285
      01002D32H   LINE      ---      ---       #287
      01002D32H   LINE      ---      ---       #291
      01002D55H   LINE      ---      ---       #296
      01002D73H   LINE      ---      ---       #297
      01002D8BH   LINE      ---      ---       #298
      01002DA2H   LINE      ---      ---       #305
      01002DBAH   LINE      ---      ---       #306
      01002DD2H   LINE      ---      ---       #308
      01002DD2H   LINE      CODE     ---       #308
      ---         BLOCKEND  CODE     ---       LVL=0

      010030FBH   BLOCK     CODE     ---       LVL=0
      010030FBH   LINE      ---      ---       #311
      010030FBH   LINE      ---      ---       #315
      010030FBH   BLOCK     CODE     NEAR LAB  LVL=1
      010030FBH   LINE      ---      ---       #320
      01003109H   LINE      ---      ---       #321
      01003109H   LINE      ---      ---       #322
      01003112H   LINE      ---      ---       #323
      01003114H   LINE      ---      ---       #325
      01003114H   LINE      ---      ---       #326
      01003122H   LINE      ---      ---       #327
      01003122H   LINE      ---      ---       #329
      01003122H   LINE      ---      ---       #330
      00000007H   SYMBOL    DATA     BYTE      space_left
      ---         BLOCKEND  CODE     ---       LVL=1
      ---         BLOCKEND  CODE     ---       LVL=0

      ---         MODULE    ---      ---       PID
      020001E1H   PUBLIC    XDATA    INT       maximum_position
      020001CDH   PUBLIC    XDATA    ---       PID
      020001CBH   PUBLIC    XDATA    INT       minimum_position
      020001CAH   PUBLIC    XDATA    BYTE      Reverse_Seek
      020001BDH   PUBLIC    XDATA    INT       seek_position
      020001BBH   PUBLIC    XDATA    INT       seek_velocity
      010031A6H   PUBLIC    CODE     ---       _pid_position_to_pwm
      010035DFH   PUBLIC    CODE     ---       pid_registers_defaults
      010017C8H   PUBLIC    CODE     ---       pid_init
      000000F6H   SFRSYM    DATA     BYTE      AINDIDS
      000000B1H   SFRSYM    DATA     BYTE      P0M1
      000000B3H   SFRSYM    DATA     BYTE      P1M1
      000000B2H   SFRSYM    DATA     BYTE      P0M2
      00000080H   SFRSYM    DATA     BYTE      P0
      000000BBH   SFRSYM    DATA     BYTE      SADDR_1
      000000B4H   SFRSYM    DATA     BYTE      P1M2
      00000090H   SFRSYM    DATA     BYTE      P1
      000000C0H.2 SFRSYM    DATA     BIT       AA
LX51 LINKER/LOCATER V4.66.41.0                                                        03/26/2019  15:13:05  PAGE 69


      000000ACH   SFRSYM    DATA     BYTE      P3M1
      000000A0H   SFRSYM    DATA     BYTE      P2
      000000B0H   SFRSYM    DATA     BYTE      P3
      000000ADH   SFRSYM    DATA     BYTE      P3M2
      000000D0H.6 SFRSYM    DATA     BIT       AC
      0000008FH   SFRSYM    DATA     BYTE      WKCON
      0000009CH   SFRSYM    DATA     BYTE      EIE1
      000000A8H.7 SFRSYM    DATA     BIT       EA
      000000D8H   SFRSYM    DATA     BYTE      PWMCON0
      000000DFH   SFRSYM    DATA     BYTE      PWMCON1
      00000098H.7 SFRSYM    DATA     BIT       FE
      000000A8H.6 SFRSYM    DATA     BIT       EADC
      000000D1H   SFRSYM    DATA     BYTE      PWMPH
      000000A8H   SFRSYM    DATA     BYTE      IE
      00000096H   SFRSYM    DATA     BYTE      CKSWT
      000000E8H.7 SFRSYM    DATA     BIT       ADCF
      000000FEH   SFRSYM    DATA     BYTE      EIP1
      000000D9H   SFRSYM    DATA     BYTE      PWMPL
      000000E8H   SFRSYM    DATA     BIT       ADCHS0
      000000C7H   SFRSYM    DATA     BYTE      TA
      000000E8H.1 SFRSYM    DATA     BIT       ADCHS1
      000000E8H.2 SFRSYM    DATA     BIT       ADCHS2
      000000E8H.3 SFRSYM    DATA     BIT       ADCHS3
      000000A8H.4 SFRSYM    DATA     BIT       ES
      000000C1H   SFRSYM    DATA     BYTE      I2ADDR
      000000B8H.6 SFRSYM    DATA     BIT       PADC
      000000B8H   SFRSYM    DATA     BYTE      IP
      000000A8H.5 SFRSYM    DATA     BIT       EBOD
      00000098H   SFRSYM    DATA     BIT       RI
      000000F8H.7 SFRSYM    DATA     BIT       FE_1
      000000E8H.6 SFRSYM    DATA     BIT       ADCS
      000000D0H.7 SFRSYM    DATA     BIT       CY
      000000C0H.3 SFRSYM    DATA     BIT       SI
      000000B0H   SFRSYM    DATA     BIT       INT0
      00000098H.1 SFRSYM    DATA     BIT       TI
      000000D8H.6 SFRSYM    DATA     BIT       LOAD
      00000097H   SFRSYM    DATA     BYTE      CKEN
      000000B8H.4 SFRSYM    DATA     BIT       PS
      00000081H   SFRSYM    DATA     BYTE      SP
      000000D0H.2 SFRSYM    DATA     BIT       OV
      000000B7H   SFRSYM    DATA     BYTE      PWMINTC
      000000B8H.5 SFRSYM    DATA     BIT       PBOD
      000000B2H   SFRSYM    DATA     BYTE      P0SR
      000000F7H   SFRSYM    DATA     BYTE      EIPH
      000000B4H   SFRSYM    DATA     BYTE      P1SR
      000000ADH   SFRSYM    DATA     BYTE      P3SR
      000000F8H   SFRSYM    DATA     BIT       RI_1
      000000F8H.1 SFRSYM    DATA     BIT       TI_1
      000000CBH   SFRSYM    DATA     BYTE      RCMP2H
      000000CFH   SFRSYM    DATA     BYTE      ADCMPH
      00000080H   SFRSYM    DATA     BIT       P00
      00000090H   SFRSYM    DATA     BIT       P10
      00000080H.1 SFRSYM    DATA     BIT       P01
      000000FBH   SFRSYM    DATA     BYTE      PMEN
      00000099H   SFRSYM    DATA     BYTE      SBUF
      00000087H   SFRSYM    DATA     BYTE      PCON
      000000A0H   SFRSYM    DATA     BIT       P20
      00000090H.1 SFRSYM    DATA     BIT       P11
      00000080H.2 SFRSYM    DATA     BIT       P02
      000000CAH   SFRSYM    DATA     BYTE      RCMP2L
      000000B0H   SFRSYM    DATA     BIT       P30
      00000090H.2 SFRSYM    DATA     BIT       P12
      00000080H.3 SFRSYM    DATA     BIT       P03
      000000E3H   SFRSYM    DATA     BYTE      ADCDLY
      000000CEH   SFRSYM    DATA     BYTE      ADCMPL
LX51 LINKER/LOCATER V4.66.41.0                                                        03/26/2019  15:13:05  PAGE 70


      00000090H.3 SFRSYM    DATA     BIT       P13
      00000080H.4 SFRSYM    DATA     BIT       P04
      00000098H   SFRSYM    DATA     BYTE      SCON
      00000090H.4 SFRSYM    DATA     BIT       P14
      00000080H.5 SFRSYM    DATA     BIT       P05
      00000089H   SFRSYM    DATA     BYTE      TMOD
      00000088H   SFRSYM    DATA     BYTE      TCON
      00000090H.5 SFRSYM    DATA     BIT       P15
      00000080H.6 SFRSYM    DATA     BIT       P06
      00000090H.6 SFRSYM    DATA     BIT       P16
      00000080H.7 SFRSYM    DATA     BIT       P07
      00000090H.7 SFRSYM    DATA     BIT       P17
      000000F3H   SFRSYM    DATA     BYTE      SPCR
      000000BDH   SFRSYM    DATA     BYTE      I2STAT
      000000F5H   SFRSYM    DATA     BYTE      SPDR
      000000D8H.5 SFRSYM    DATA     BIT       PWMF
      000000E5H   SFRSYM    DATA     BYTE      C0H
      000000E7H   SFRSYM    DATA     BYTE      C1H
      000000EEH   SFRSYM    DATA     BYTE      C2H
      0000009FH   SFRSYM    DATA     BYTE      CHPCON
      00000088H.1 SFRSYM    DATA     BIT       IE0
      00000088H.3 SFRSYM    DATA     BIT       IE1
      000000E4H   SFRSYM    DATA     BYTE      C0L
      00000091H   SFRSYM    DATA     BYTE      SFRS
      000000E6H   SFRSYM    DATA     BYTE      C1L
      000000C8H   SFRSYM    DATA     BIT       CM_RL2
      000000F0H   SFRSYM    DATA     BYTE      B
      000000EDH   SFRSYM    DATA     BYTE      C2L
      0000009AH   SFRSYM    DATA     BYTE      SBUF_1
      000000A5H   SFRSYM    DATA     BYTE      IAPUEN
      000000F8H   SFRSYM    DATA     BYTE      SCON_1
      000000E0H   SFRSYM    DATA     BYTE      ACC
      000000A8H.1 SFRSYM    DATA     BIT       ET0
      000000F4H   SFRSYM    DATA     BYTE      SPSR
      000000A4H   SFRSYM    DATA     BYTE      IAPTRG
      000000A8H.3 SFRSYM    DATA     BIT       ET1
      00000088H.5 SFRSYM    DATA     BIT       TF0
      00000088H.7 SFRSYM    DATA     BIT       TF1
      000000C8H.7 SFRSYM    DATA     BIT       TF2
      00000098H.2 SFRSYM    DATA     BIT       RB8
      000000D7H   SFRSYM    DATA     BYTE      FBD
      0000008CH   SFRSYM    DATA     BYTE      TH0
      000000A8H   SFRSYM    DATA     BIT       EX0
      00000088H   SFRSYM    DATA     BIT       IT0
      000000C6H   SFRSYM    DATA     BYTE      RH3
      0000008DH   SFRSYM    DATA     BYTE      TH1
      000000A8H.2 SFRSYM    DATA     BIT       EX1
      00000098H.3 SFRSYM    DATA     BIT       TB8
      00000088H.2 SFRSYM    DATA     BIT       IT1
      000000CDH   SFRSYM    DATA     BYTE      TH2
      000000D0H   SFRSYM    DATA     BIT       P
      000000FAH   SFRSYM    DATA     BYTE      PDTCNT
      00000098H.7 SFRSYM    DATA     BIT       SM0
      0000008AH   SFRSYM    DATA     BYTE      TL0
      00000098H.6 SFRSYM    DATA     BIT       SM1
      000000C5H   SFRSYM    DATA     BYTE      RL3
      0000008BH   SFRSYM    DATA     BYTE      TL1
      000000C0H.6 SFRSYM    DATA     BIT       I2CEN
      00000098H.5 SFRSYM    DATA     BIT       SM2
      000000CCH   SFRSYM    DATA     BYTE      TL2
      000000B1H   SFRSYM    DATA     BYTE      P0S
      0000009BH   SFRSYM    DATA     BYTE      EIE
      000000B8H.1 SFRSYM    DATA     BIT       PT0
      000000B3H   SFRSYM    DATA     BYTE      P1S
      000000D0H.3 SFRSYM    DATA     BIT       RS0
LX51 LINKER/LOCATER V4.66.41.0                                                        03/26/2019  15:13:05  PAGE 71


      000000B8H.3 SFRSYM    DATA     BIT       PT1
      000000BCH   SFRSYM    DATA     BYTE      I2DAT
      000000B5H   SFRSYM    DATA     BYTE      P2S
      000000D0H.4 SFRSYM    DATA     BIT       RS1
      00000088H.4 SFRSYM    DATA     BIT       TR0
      000000BEH   SFRSYM    DATA     BYTE      I2CLK
      000000ACH   SFRSYM    DATA     BYTE      P3S
      000000D8H.4 SFRSYM    DATA     BIT       CLRPWM
      00000088H.6 SFRSYM    DATA     BIT       TR1
      000000C8H.2 SFRSYM    DATA     BIT       TR2
      000000B8H   SFRSYM    DATA     BIT       PX0
      00000090H.4 SFRSYM    DATA     BIT       SDA
      000000FFH   SFRSYM    DATA     BYTE      EIPH1
      000000B8H.2 SFRSYM    DATA     BIT       PX1
      000000E8H   SFRSYM    DATA     BYTE      ADCCON0
      000000E1H   SFRSYM    DATA     BYTE      ADCCON1
      000000E2H   SFRSYM    DATA     BYTE      ADCCON2
      000000C0H   SFRSYM    DATA     BYTE      I2CON
      00000083H   SFRSYM    DATA     BYTE      DPH
      000000F8H.2 SFRSYM    DATA     BIT       RB8_1
      000000EFH   SFRSYM    DATA     BYTE      EIP
      000000F8H.3 SFRSYM    DATA     BIT       TB8_1
      000000ECH   SFRSYM    DATA     BYTE      PIF
      00000082H   SFRSYM    DATA     BYTE      DPL
      000000F8H.7 SFRSYM    DATA     BIT       SM0_1
      000000FCH   SFRSYM    DATA     BYTE      PMD
      000000B7H   SFRSYM    DATA     BYTE      IPH
      000000F8H.6 SFRSYM    DATA     BIT       SM1_1
      00000090H.3 SFRSYM    DATA     BIT       SCL
      000000BFH   SFRSYM    DATA     BYTE      I2TOC
      000000F8H.5 SFRSYM    DATA     BIT       SM2_1
      000000C3H   SFRSYM    DATA     BYTE      ADCRH
      000000A7H   SFRSYM    DATA     BYTE      IAPAH
      00000098H.4 SFRSYM    DATA     BIT       REN
      000000AEH   SFRSYM    DATA     BYTE      IAPFD
      00000092H   SFRSYM    DATA     BYTE      CAPCON0
      000000C0H   SFRSYM    DATA     BIT       I2CPX
      000000C9H   SFRSYM    DATA     BYTE      T2MOD
      000000C8H   SFRSYM    DATA     BYTE      T2CON
      000000C2H   SFRSYM    DATA     BYTE      ADCRL
      000000A3H   SFRSYM    DATA     BYTE      BODCON0
      00000093H   SFRSYM    DATA     BYTE      CAPCON1
      000000C0H.5 SFRSYM    DATA     BIT       STA
      000000C4H   SFRSYM    DATA     BYTE      T3CON
      000000ABH   SFRSYM    DATA     BYTE      BODCON1
      000000A6H   SFRSYM    DATA     BYTE      IAPAL
      00000094H   SFRSYM    DATA     BYTE      CAPCON2
      000000F1H   SFRSYM    DATA     BYTE      CAPCON3
      000000F2H   SFRSYM    DATA     BYTE      CAPCON4
      000000D8H.7 SFRSYM    DATA     BIT       PWMRUN
      000000F3H   SFRSYM    DATA     BYTE      SPCR2
      000000B9H   SFRSYM    DATA     BYTE      SADEN
      000000AFH   SFRSYM    DATA     BYTE      IAPCN
      000000D2H   SFRSYM    DATA     BYTE      PWM0H
      000000D6H   SFRSYM    DATA     BYTE      PNP
      000000D3H   SFRSYM    DATA     BYTE      PWM1H
      000000D4H   SFRSYM    DATA     BYTE      PWM2H
      000000A9H   SFRSYM    DATA     BYTE      SADDR
      0000008EH   SFRSYM    DATA     BYTE      CKCON
      000000D5H   SFRSYM    DATA     BYTE      PWM3H
      000000DAH   SFRSYM    DATA     BYTE      PWM0L
      000000C4H   SFRSYM    DATA     BYTE      PWM4H
      000000DBH   SFRSYM    DATA     BYTE      PWM1L
      000000C5H   SFRSYM    DATA     BYTE      PWM5H
      000000A2H   SFRSYM    DATA     BYTE      AUXR1
LX51 LINKER/LOCATER V4.66.41.0                                                        03/26/2019  15:13:05  PAGE 72


      00000095H   SFRSYM    DATA     BYTE      CKDIV
      000000DCH   SFRSYM    DATA     BYTE      PWM2L
      000000DDH   SFRSYM    DATA     BYTE      PWM3L
      00000086H   SFRSYM    DATA     BYTE      RWK
      000000D0H.5 SFRSYM    DATA     BIT       F0
      000000CCH   SFRSYM    DATA     BYTE      PWM4L
      000000F8H.4 SFRSYM    DATA     BIT       REN_1
      000000E8H.4 SFRSYM    DATA     BIT       ETGSEL0
      000000C0H.4 SFRSYM    DATA     BIT       STO
      000000CDH   SFRSYM    DATA     BYTE      PWM5L
      000000E8H.5 SFRSYM    DATA     BIT       ETGSEL1
      000000E9H   SFRSYM    DATA     BYTE      PICON
      000000DEH   SFRSYM    DATA     BYTE      PIOCON0
      000000D0H   SFRSYM    DATA     BYTE      PSW
      000000EAH   SFRSYM    DATA     BYTE      PINEN
      000000C6H   SFRSYM    DATA     BYTE      PIOCON1
      000000F9H   SFRSYM    DATA     BYTE      PDTEN
      000000AAH   SFRSYM    DATA     BYTE      WDCON
      000000EBH   SFRSYM    DATA     BYTE      PIPEN
      000000BAH   SFRSYM    DATA     BYTE      SADEN_1
      020001BFH   SYMBOL    XDATA    INT       previous_seek
      0100314BH   SYMBOL    CODE     ---       pwm_disable
      01003160H   SYMBOL    CODE     ---       curve_get_duration
      020001C1H   SYMBOL    XDATA    INT       seek_delta
      0100002AH   SYMBOL    CODE     ---       pwm_enable
      020001C3H   SYMBOL    XDATA    BYTE      previous_pwm_is_enabled
      020001C4H   SYMBOL    XDATA    LONG      filter_reg
      020001C8H   SYMBOL    XDATA    INT       position_at_start_of_new_seek
      01003123H   SYMBOL    CODE     ---       motion_time_left
      01003169H   SYMBOL    CODE     ---       curve_get_p0
      01003178H   SYMBOL    CODE     ---       curve_get_p1
      0100314EH   SYMBOL    CODE     ---       curve_get_t0
      01003157H   SYMBOL    CODE     ---       curve_get_t1
      01003187H   SYMBOL    CODE     ---       curve_get_v0
      01003196H   SYMBOL    CODE     ---       curve_get_v1
      020001DFH   SYMBOL    XDATA    INT       previous_position
      010031A5H   SYMBOL    CODE     ---       _filter_update

      01003123H   BLOCK     CODE     ---       LVL=0
      01003123H   LINE      ---      ---       #28
      01003123H   LINE      ---      ---       #31
      01003123H   LINE      ---      ---       #34
      0100314AH   LINE      ---      ---       #35
      ---         BLOCKEND  ---      ---       LVL=0

      0100002AH   BLOCK     CODE     ---       LVL=0
      0100002AH   LINE      ---      ---       #40
      0100002AH   LINE      ---      ---       #41
      0100002AH   LINE      ---      ---       #46
      ---         BLOCKEND  ---      ---       LVL=0

      0100314BH   BLOCK     CODE     ---       LVL=0
      0100314BH   LINE      ---      ---       #49
      0100314BH   LINE      ---      ---       #50
      0100314BH   LINE      ---      ---       #57
      ---         BLOCKEND  ---      ---       LVL=0

      0100314EH   BLOCK     CODE     ---       LVL=0
      0100314EH   LINE      ---      ---       #48
      ---         BLOCKEND  ---      ---       LVL=0

      01003157H   BLOCK     CODE     ---       LVL=0
      01003157H   LINE      ---      ---       #49
      ---         BLOCKEND  ---      ---       LVL=0

LX51 LINKER/LOCATER V4.66.41.0                                                        03/26/2019  15:13:05  PAGE 73


      01003160H   BLOCK     CODE     ---       LVL=0
      01003160H   LINE      ---      ---       #50
      ---         BLOCKEND  ---      ---       LVL=0

      01003169H   BLOCK     CODE     ---       LVL=0
      01003169H   LINE      ---      ---       #51
      ---         BLOCKEND  ---      ---       LVL=0

      01003178H   BLOCK     CODE     ---       LVL=0
      01003178H   LINE      ---      ---       #52
      ---         BLOCKEND  ---      ---       LVL=0

      01003187H   BLOCK     CODE     ---       LVL=0
      01003187H   LINE      ---      ---       #53
      ---         BLOCKEND  ---      ---       LVL=0

      01003196H   BLOCK     CODE     ---       LVL=0
      01003196H   LINE      ---      ---       #54
      ---         BLOCKEND  ---      ---       LVL=0

      010031A5H   BLOCK     CODE     ---       LVL=0
      010031A5H   LINE      ---      ---       #49
      010031A5H   LINE      ---      ---       #50
      010031A5H   LINE      ---      ---       #62
      010031A5H   LINE      ---      ---       #64
      00000006H   SYMBOL    DATA     INT       input
      ---         BLOCKEND  ---      ---       LVL=0

      010017C8H   BLOCK     CODE     ---       LVL=0
      010017C8H   LINE      ---      ---       #66
      010017C8H   LINE      ---      ---       #68
      010017C8H   LINE      ---      ---       #69
      010017D0H   LINE      ---      ---       #70
      ---         BLOCKEND  ---      ---       LVL=0

      010035DFH   BLOCK     CODE     ---       LVL=0
      010035DFH   LINE      ---      ---       #73
      010035DFH   LINE      ---      ---       #74
      010035DFH   LINE      ---      ---       #76
      010035E8H   LINE      ---      ---       #77
      010035EFH   LINE      ---      ---       #78
      010035F3H   LINE      ---      ---       #79
      010035F7H   LINE      ---      ---       #81
      010035FDH   LINE      ---      ---       #82
      01003606H   LINE      ---      ---       #83
      0100360AH   LINE      ---      ---       #85
      ---         BLOCKEND  ---      ---       LVL=0

      010031A6H   BLOCK     CODE     ---       LVL=0
      010031A6H   LINE      ---      ---       #88
      010031ACH   LINE      ---      ---       #94
      00000002H   SYMBOL    DATA     INT       current_position
      00000001H   SYMBOL    DATA     BYTE      tick
      010031ACH   BLOCK     CODE     NEAR LAB  LVL=1
      010031ACH   LINE      ---      ---       #109
      010031B6H   LINE      ---      ---       #115
      010031CBH   LINE      ---      ---       #128
      010031D1H   LINE      ---      ---       #129
      010031D1H   LINE      ---      ---       #134
      010031E4H   LINE      ---      ---       #135
      010031F7H   LINE      ---      ---       #136
      0100320AH   LINE      ---      ---       #138
      0100320AH   LINE      ---      ---       #140
      0100320AH   LINE      ---      ---       #144
      0100320AH   LINE      ---      ---       #158
LX51 LINKER/LOCATER V4.66.41.0                                                        03/26/2019  15:13:05  PAGE 74


      01003233H   LINE      ---      ---       #159
      0100325CH   LINE      ---      ---       #160
      0100326BH   LINE      ---      ---       #161
      01003282H   LINE      ---      ---       #164
      01003297H   LINE      ---      ---       #165
      01003297H   LINE      ---      ---       #166
      0100329DH   LINE      ---      ---       #167
      0100329DH   LINE      ---      ---       #168
      010032A5H   LINE      ---      ---       #169
      010032ACH   LINE      ---      ---       #170
      010032B4H   LINE      ---      ---       #171
      010032B4H   LINE      ---      ---       #173
      010032C2H   LINE      ---      ---       #174
      010032C8H   LINE      ---      ---       #177
      010032D0H   LINE      ---      ---       #178
      010032D8H   LINE      ---      ---       #180
      010032D8H   LINE      ---      ---       #185
      01003306H   LINE      ---      ---       #186
      01003306H   LINE      ---      ---       #187
      01003320H   LINE      ---      ---       #188
      01003320H   LINE      ---      ---       #189
      01003334H   LINE      ---      ---       #190
      0100334FH   LINE      ---      ---       #191
      0100334FH   LINE      ---      ---       #192
      0100335DH   LINE      ---      ---       #193
      0100335DH   LINE      ---      ---       #194
      0100335FH   LINE      ---      ---       #195
      0100335FH   LINE      ---      ---       #196
      0100337AH   LINE      ---      ---       #197
      0100337AH   LINE      ---      ---       #198
      01003392H   LINE      ---      ---       #199
      010033A6H   LINE      ---      ---       #200
      010033A6H   LINE      ---      ---       #201
      010033AEH   LINE      ---      ---       #202
      010033AEH   LINE      ---      ---       #203
      010033AEH   LINE      ---      ---       #204
      010033AEH   LINE      ---      ---       #205
      010033AEH   LINE      ---      ---       #207
      010033C5H   LINE      ---      ---       #208
      010033C5H   LINE      ---      ---       #209
      010033CDH   LINE      ---      ---       #210
      010033CDH   LINE      ---      ---       #217
      010033DAH   LINE      ---      ---       #221
      010033DDH   LINE      ---      ---       #222
      010033DDH   LINE      ---      ---       #223
      010033F1H   LINE      ---      ---       #225
      01003400H   LINE      ---      ---       #226
      01003400H   LINE      ---      ---       #227
      0100340AH   LINE      ---      ---       #228
      0100340CH   LINE      ---      ---       #229
      0100340CH   LINE      ---      ---       #230
      01003417H   LINE      ---      ---       #231
      01003417H   LINE      ---      ---       #232
      01003421H   LINE      ---      ---       #233
      01003421H   LINE      ---      ---       #234
      01003421H   LINE      ---      ---       #235
      01003421H   LINE      ---      ---       #238
      01003434H   LINE      ---      ---       #239
      0100343EH   LINE      ---      ---       #247
      01003448H   LINE      ---      ---       #250
      01003478H   LINE      ---      ---       #251
      01003478H   LINE      ---      ---       #253
      010034C7H   LINE      ---      ---       #256
      01003516H   LINE      ---      ---       #259
      01003565H   LINE      ---      ---       #260
LX51 LINKER/LOCATER V4.66.41.0                                                        03/26/2019  15:13:05  PAGE 75


      01003567H   LINE      ---      ---       #261
      01003567H   LINE      ---      ---       #262
      0100356EH   LINE      ---      ---       #263
      0100356EH   LINE      ---      ---       #286
      01003587H   LINE      ---      ---       #290
      010035A1H   LINE      ---      ---       #291
      010035A1H   LINE      ---      ---       #293
      010035ABH   LINE      ---      ---       #294
      010035ADH   LINE      ---      ---       #295
      010035C8H   LINE      ---      ---       #296
      010035C8H   LINE      ---      ---       #298
      010035D2H   LINE      ---      ---       #299
      010035D2H   LINE      ---      ---       #301
      010035DEH   LINE      ---      ---       #304
      020001B6H   SYMBOL    XDATA    INT       current_velocity
      020001B8H   SYMBOL    XDATA    INT       filtered_position
      020001BAH   SYMBOL    XDATA    BYTE      pwm_is_enabled
      ---         BLOCKEND  CODE     ---       LVL=1
      ---         BLOCKEND  CODE     ---       LVL=0

      ---         MODULE    ---      ---       WORK
      00000021H.2 PUBLIC    BIT      BIT       Run_f
      0200014EH   PUBLIC    XDATA    BYTE      Motor_Mode
      00000021H.1 PUBLIC    BIT      BIT       Pre_Hig_Cur_f
      00000021H.0 PUBLIC    BIT      BIT       Hig_Cur_f
      0200014CH   PUBLIC    XDATA    WORD      Motor_PWM
      0200014AH   PUBLIC    XDATA    WORD      Current
      02000137H   PUBLIC    XDATA    ---       Control
      02000136H   PUBLIC    XDATA    BYTE      Motor_Static
      02000134H   PUBLIC    XDATA    WORD      brake_PWM
      02000132H   PUBLIC    XDATA    WORD      Voltage
      02000131H   PUBLIC    XDATA    BYTE      Brake_Mode
      0200012FH   PUBLIC    XDATA    WORD      Back_PWM
      02000123H   PUBLIC    XDATA    ---       EEPROM_DATA
      00000020H.7 PUBLIC    BIT      BIT       Back_f
      00000020H.6 PUBLIC    BIT      BIT       Pre_Lost_Signal_f
      02000121H   PUBLIC    XDATA    WORD      Forward_PWM
      00000020H.5 PUBLIC    BIT      BIT       Brake_f
      02000120H   PUBLIC    XDATA    BYTE      system_state
      00000020H.4 PUBLIC    BIT      BIT       Pre_Forward_f
      00000020H.3 PUBLIC    BIT      BIT       Pre_Bind_On
      00000020H.2 PUBLIC    BIT      BIT       Forward_f
      00000020H.1 PUBLIC    BIT      BIT       Pre_Low_Val_f
      00000020H.0 PUBLIC    BIT      BIT       Low_Val_f
      01002346H   PUBLIC    CODE     ---       ReadEeprom
      01002210H   PUBLIC    CODE     ---       ParameterReset
      01002136H   PUBLIC    CODE     ---       WriteEeprom
      01003D45H   PUBLIC    CODE     ---       _Up2_Beep
      01003CF7H   PUBLIC    CODE     ---       _Up_Beep
      01003B7AH   PUBLIC    CODE     ---       _Down_Beep
      01003BC6H   PUBLIC    CODE     ---       _Beep_Control
      01003D98H   PUBLIC    CODE     ---       Text_Current
      01003D72H   PUBLIC    CODE     ---       Text_Voltage
      01003AA1H   PUBLIC    CODE     ---       LED_Control
      010037B1H   PUBLIC    CODE     ---       Forward_PWM_Dir
      010036BBH   PUBLIC    CODE     ---       _QianJin
      0100368EH   PUBLIC    CODE     ---       PWM_Init
      000000F6H   SFRSYM    DATA     BYTE      AINDIDS
      000000B1H   SFRSYM    DATA     BYTE      P0M1
      000000B3H   SFRSYM    DATA     BYTE      P1M1
      000000B2H   SFRSYM    DATA     BYTE      P0M2
      00000080H   SFRSYM    DATA     BYTE      P0
      000000BBH   SFRSYM    DATA     BYTE      SADDR_1
      000000B4H   SFRSYM    DATA     BYTE      P1M2
      00000090H   SFRSYM    DATA     BYTE      P1
LX51 LINKER/LOCATER V4.66.41.0                                                        03/26/2019  15:13:05  PAGE 76


      000000C0H.2 SFRSYM    DATA     BIT       AA
      000000ACH   SFRSYM    DATA     BYTE      P3M1
      000000A0H   SFRSYM    DATA     BYTE      P2
      000000B0H   SFRSYM    DATA     BYTE      P3
      000000ADH   SFRSYM    DATA     BYTE      P3M2
      000000D0H.6 SFRSYM    DATA     BIT       AC
      0000008FH   SFRSYM    DATA     BYTE      WKCON
      0000009CH   SFRSYM    DATA     BYTE      EIE1
      000000A8H.7 SFRSYM    DATA     BIT       EA
      000000D8H   SFRSYM    DATA     BYTE      PWMCON0
      000000DFH   SFRSYM    DATA     BYTE      PWMCON1
      00000098H.7 SFRSYM    DATA     BIT       FE
      000000A8H.6 SFRSYM    DATA     BIT       EADC
      000000D1H   SFRSYM    DATA     BYTE      PWMPH
      000000A8H   SFRSYM    DATA     BYTE      IE
      00000096H   SFRSYM    DATA     BYTE      CKSWT
      000000E8H.7 SFRSYM    DATA     BIT       ADCF
      000000FEH   SFRSYM    DATA     BYTE      EIP1
      000000D9H   SFRSYM    DATA     BYTE      PWMPL
      000000E8H   SFRSYM    DATA     BIT       ADCHS0
      000000C7H   SFRSYM    DATA     BYTE      TA
      000000E8H.1 SFRSYM    DATA     BIT       ADCHS1
      000000E8H.2 SFRSYM    DATA     BIT       ADCHS2
      000000E8H.3 SFRSYM    DATA     BIT       ADCHS3
      000000A8H.4 SFRSYM    DATA     BIT       ES
      000000C1H   SFRSYM    DATA     BYTE      I2ADDR
      000000B8H.6 SFRSYM    DATA     BIT       PADC
      000000B8H   SFRSYM    DATA     BYTE      IP
      000000A8H.5 SFRSYM    DATA     BIT       EBOD
      00000098H   SFRSYM    DATA     BIT       RI
      000000F8H.7 SFRSYM    DATA     BIT       FE_1
      000000E8H.6 SFRSYM    DATA     BIT       ADCS
      000000D0H.7 SFRSYM    DATA     BIT       CY
      000000C0H.3 SFRSYM    DATA     BIT       SI
      000000B0H   SFRSYM    DATA     BIT       INT0
      00000098H.1 SFRSYM    DATA     BIT       TI
      000000D8H.6 SFRSYM    DATA     BIT       LOAD
      00000097H   SFRSYM    DATA     BYTE      CKEN
      000000B8H.4 SFRSYM    DATA     BIT       PS
      00000081H   SFRSYM    DATA     BYTE      SP
      000000D0H.2 SFRSYM    DATA     BIT       OV
      000000B7H   SFRSYM    DATA     BYTE      PWMINTC
      000000B8H.5 SFRSYM    DATA     BIT       PBOD
      000000B2H   SFRSYM    DATA     BYTE      P0SR
      000000F7H   SFRSYM    DATA     BYTE      EIPH
      000000B4H   SFRSYM    DATA     BYTE      P1SR
      000000ADH   SFRSYM    DATA     BYTE      P3SR
      000000F8H   SFRSYM    DATA     BIT       RI_1
      000000F8H.1 SFRSYM    DATA     BIT       TI_1
      000000CBH   SFRSYM    DATA     BYTE      RCMP2H
      000000CFH   SFRSYM    DATA     BYTE      ADCMPH
      00000080H   SFRSYM    DATA     BIT       P00
      00000090H   SFRSYM    DATA     BIT       P10
      00000080H.1 SFRSYM    DATA     BIT       P01
      000000FBH   SFRSYM    DATA     BYTE      PMEN
      00000099H   SFRSYM    DATA     BYTE      SBUF
      00000087H   SFRSYM    DATA     BYTE      PCON
      000000A0H   SFRSYM    DATA     BIT       P20
      00000090H.1 SFRSYM    DATA     BIT       P11
      00000080H.2 SFRSYM    DATA     BIT       P02
      000000CAH   SFRSYM    DATA     BYTE      RCMP2L
      000000B0H   SFRSYM    DATA     BIT       P30
      00000090H.2 SFRSYM    DATA     BIT       P12
      00000080H.3 SFRSYM    DATA     BIT       P03
      000000E3H   SFRSYM    DATA     BYTE      ADCDLY
LX51 LINKER/LOCATER V4.66.41.0                                                        03/26/2019  15:13:05  PAGE 77


      000000CEH   SFRSYM    DATA     BYTE      ADCMPL
      00000090H.3 SFRSYM    DATA     BIT       P13
      00000080H.4 SFRSYM    DATA     BIT       P04
      00000098H   SFRSYM    DATA     BYTE      SCON
      00000090H.4 SFRSYM    DATA     BIT       P14
      00000080H.5 SFRSYM    DATA     BIT       P05
      00000089H   SFRSYM    DATA     BYTE      TMOD
      00000088H   SFRSYM    DATA     BYTE      TCON
      00000090H.5 SFRSYM    DATA     BIT       P15
      00000080H.6 SFRSYM    DATA     BIT       P06
      00000090H.6 SFRSYM    DATA     BIT       P16
      00000080H.7 SFRSYM    DATA     BIT       P07
      00000090H.7 SFRSYM    DATA     BIT       P17
      000000F3H   SFRSYM    DATA     BYTE      SPCR
      000000BDH   SFRSYM    DATA     BYTE      I2STAT
      000000F5H   SFRSYM    DATA     BYTE      SPDR
      000000D8H.5 SFRSYM    DATA     BIT       PWMF
      000000E5H   SFRSYM    DATA     BYTE      C0H
      000000E7H   SFRSYM    DATA     BYTE      C1H
      000000EEH   SFRSYM    DATA     BYTE      C2H
      0000009FH   SFRSYM    DATA     BYTE      CHPCON
      00000088H.1 SFRSYM    DATA     BIT       IE0
      00000088H.3 SFRSYM    DATA     BIT       IE1
      000000E4H   SFRSYM    DATA     BYTE      C0L
      00000091H   SFRSYM    DATA     BYTE      SFRS
      000000E6H   SFRSYM    DATA     BYTE      C1L
      000000C8H   SFRSYM    DATA     BIT       CM_RL2
      000000F0H   SFRSYM    DATA     BYTE      B
      000000EDH   SFRSYM    DATA     BYTE      C2L
      0000009AH   SFRSYM    DATA     BYTE      SBUF_1
      000000A5H   SFRSYM    DATA     BYTE      IAPUEN
      000000F8H   SFRSYM    DATA     BYTE      SCON_1
      000000E0H   SFRSYM    DATA     BYTE      ACC
      000000A8H.1 SFRSYM    DATA     BIT       ET0
      000000F4H   SFRSYM    DATA     BYTE      SPSR
      000000A4H   SFRSYM    DATA     BYTE      IAPTRG
      000000A8H.3 SFRSYM    DATA     BIT       ET1
      00000088H.5 SFRSYM    DATA     BIT       TF0
      00000088H.7 SFRSYM    DATA     BIT       TF1
      000000C8H.7 SFRSYM    DATA     BIT       TF2
      00000098H.2 SFRSYM    DATA     BIT       RB8
      000000D7H   SFRSYM    DATA     BYTE      FBD
      0000008CH   SFRSYM    DATA     BYTE      TH0
      000000A8H   SFRSYM    DATA     BIT       EX0
      00000088H   SFRSYM    DATA     BIT       IT0
      000000C6H   SFRSYM    DATA     BYTE      RH3
      0000008DH   SFRSYM    DATA     BYTE      TH1
      000000A8H.2 SFRSYM    DATA     BIT       EX1
      00000098H.3 SFRSYM    DATA     BIT       TB8
      00000088H.2 SFRSYM    DATA     BIT       IT1
      000000CDH   SFRSYM    DATA     BYTE      TH2
      000000D0H   SFRSYM    DATA     BIT       P
      000000FAH   SFRSYM    DATA     BYTE      PDTCNT
      00000098H.7 SFRSYM    DATA     BIT       SM0
      0000008AH   SFRSYM    DATA     BYTE      TL0
      00000098H.6 SFRSYM    DATA     BIT       SM1
      000000C5H   SFRSYM    DATA     BYTE      RL3
      0000008BH   SFRSYM    DATA     BYTE      TL1
      000000C0H.6 SFRSYM    DATA     BIT       I2CEN
      00000098H.5 SFRSYM    DATA     BIT       SM2
      000000CCH   SFRSYM    DATA     BYTE      TL2
      000000B1H   SFRSYM    DATA     BYTE      P0S
      0000009BH   SFRSYM    DATA     BYTE      EIE
      000000B8H.1 SFRSYM    DATA     BIT       PT0
      000000B3H   SFRSYM    DATA     BYTE      P1S
LX51 LINKER/LOCATER V4.66.41.0                                                        03/26/2019  15:13:05  PAGE 78


      000000D0H.3 SFRSYM    DATA     BIT       RS0
      000000B8H.3 SFRSYM    DATA     BIT       PT1
      000000BCH   SFRSYM    DATA     BYTE      I2DAT
      000000B5H   SFRSYM    DATA     BYTE      P2S
      000000D0H.4 SFRSYM    DATA     BIT       RS1
      00000088H.4 SFRSYM    DATA     BIT       TR0
      000000BEH   SFRSYM    DATA     BYTE      I2CLK
      000000ACH   SFRSYM    DATA     BYTE      P3S
      000000D8H.4 SFRSYM    DATA     BIT       CLRPWM
      00000088H.6 SFRSYM    DATA     BIT       TR1
      000000C8H.2 SFRSYM    DATA     BIT       TR2
      000000B8H   SFRSYM    DATA     BIT       PX0
      00000090H.4 SFRSYM    DATA     BIT       SDA
      000000FFH   SFRSYM    DATA     BYTE      EIPH1
      000000B8H.2 SFRSYM    DATA     BIT       PX1
      000000E8H   SFRSYM    DATA     BYTE      ADCCON0
      000000E1H   SFRSYM    DATA     BYTE      ADCCON1
      000000E2H   SFRSYM    DATA     BYTE      ADCCON2
      000000C0H   SFRSYM    DATA     BYTE      I2CON
      00000083H   SFRSYM    DATA     BYTE      DPH
      000000F8H.2 SFRSYM    DATA     BIT       RB8_1
      000000EFH   SFRSYM    DATA     BYTE      EIP
      000000F8H.3 SFRSYM    DATA     BIT       TB8_1
      000000ECH   SFRSYM    DATA     BYTE      PIF
      00000082H   SFRSYM    DATA     BYTE      DPL
      000000F8H.7 SFRSYM    DATA     BIT       SM0_1
      000000FCH   SFRSYM    DATA     BYTE      PMD
      000000B7H   SFRSYM    DATA     BYTE      IPH
      000000F8H.6 SFRSYM    DATA     BIT       SM1_1
      00000090H.3 SFRSYM    DATA     BIT       SCL
      000000BFH   SFRSYM    DATA     BYTE      I2TOC
      000000F8H.5 SFRSYM    DATA     BIT       SM2_1
      000000C3H   SFRSYM    DATA     BYTE      ADCRH
      000000A7H   SFRSYM    DATA     BYTE      IAPAH
      00000098H.4 SFRSYM    DATA     BIT       REN
      000000AEH   SFRSYM    DATA     BYTE      IAPFD
      00000092H   SFRSYM    DATA     BYTE      CAPCON0
      000000C0H   SFRSYM    DATA     BIT       I2CPX
      000000C9H   SFRSYM    DATA     BYTE      T2MOD
      000000C8H   SFRSYM    DATA     BYTE      T2CON
      000000C2H   SFRSYM    DATA     BYTE      ADCRL
      000000A3H   SFRSYM    DATA     BYTE      BODCON0
      00000093H   SFRSYM    DATA     BYTE      CAPCON1
      000000C0H.5 SFRSYM    DATA     BIT       STA
      000000C4H   SFRSYM    DATA     BYTE      T3CON
      000000ABH   SFRSYM    DATA     BYTE      BODCON1
      000000A6H   SFRSYM    DATA     BYTE      IAPAL
      00000094H   SFRSYM    DATA     BYTE      CAPCON2
      000000F1H   SFRSYM    DATA     BYTE      CAPCON3
      000000F2H   SFRSYM    DATA     BYTE      CAPCON4
      000000D8H.7 SFRSYM    DATA     BIT       PWMRUN
      000000F3H   SFRSYM    DATA     BYTE      SPCR2
      000000B9H   SFRSYM    DATA     BYTE      SADEN
      000000AFH   SFRSYM    DATA     BYTE      IAPCN
      000000D2H   SFRSYM    DATA     BYTE      PWM0H
      000000D6H   SFRSYM    DATA     BYTE      PNP
      000000D3H   SFRSYM    DATA     BYTE      PWM1H
      000000D4H   SFRSYM    DATA     BYTE      PWM2H
      000000A9H   SFRSYM    DATA     BYTE      SADDR
      0000008EH   SFRSYM    DATA     BYTE      CKCON
      000000D5H   SFRSYM    DATA     BYTE      PWM3H
      000000DAH   SFRSYM    DATA     BYTE      PWM0L
      000000C4H   SFRSYM    DATA     BYTE      PWM4H
      000000DBH   SFRSYM    DATA     BYTE      PWM1L
      000000C5H   SFRSYM    DATA     BYTE      PWM5H
LX51 LINKER/LOCATER V4.66.41.0                                                        03/26/2019  15:13:05  PAGE 79


      000000A2H   SFRSYM    DATA     BYTE      AUXR1
      00000095H   SFRSYM    DATA     BYTE      CKDIV
      000000DCH   SFRSYM    DATA     BYTE      PWM2L
      000000DDH   SFRSYM    DATA     BYTE      PWM3L
      00000086H   SFRSYM    DATA     BYTE      RWK
      000000D0H.5 SFRSYM    DATA     BIT       F0
      000000CCH   SFRSYM    DATA     BYTE      PWM4L
      000000F8H.4 SFRSYM    DATA     BIT       REN_1
      000000E8H.4 SFRSYM    DATA     BIT       ETGSEL0
      000000C0H.4 SFRSYM    DATA     BIT       STO
      000000CDH   SFRSYM    DATA     BYTE      PWM5L
      000000E8H.5 SFRSYM    DATA     BIT       ETGSEL1
      000000E9H   SFRSYM    DATA     BYTE      PICON
      000000DEH   SFRSYM    DATA     BYTE      PIOCON0
      000000D0H   SFRSYM    DATA     BYTE      PSW
      000000EAH   SFRSYM    DATA     BYTE      PINEN
      000000C6H   SFRSYM    DATA     BYTE      PIOCON1
      000000F9H   SFRSYM    DATA     BYTE      PDTEN
      000000AAH   SFRSYM    DATA     BYTE      WDCON
      000000EBH   SFRSYM    DATA     BYTE      PIPEN
      000000BAH   SFRSYM    DATA     BYTE      SADEN_1
      01003634H   SYMBOL    CODE     ---       pwm_disable
      01003649H   SYMBOL    CODE     ---       curve_get_duration
      01003633H   SYMBOL    CODE     ---       pwm_enable
      0100360BH   SYMBOL    CODE     ---       motion_time_left
      01003652H   SYMBOL    CODE     ---       curve_get_p0
      01003661H   SYMBOL    CODE     ---       curve_get_p1
      01003637H   SYMBOL    CODE     ---       curve_get_t0
      01003640H   SYMBOL    CODE     ---       curve_get_t1
      01003670H   SYMBOL    CODE     ---       curve_get_v0
      0100367FH   SYMBOL    CODE     ---       curve_get_v1

      0100360BH   BLOCK     CODE     ---       LVL=0
      0100360BH   LINE      ---      ---       #28
      0100360BH   LINE      ---      ---       #31
      0100360BH   LINE      ---      ---       #34
      01003632H   LINE      ---      ---       #35
      ---         BLOCKEND  ---      ---       LVL=0

      01003633H   BLOCK     CODE     ---       LVL=0
      01003633H   LINE      ---      ---       #40
      01003633H   LINE      ---      ---       #41
      01003633H   LINE      ---      ---       #46
      ---         BLOCKEND  ---      ---       LVL=0

      01003634H   BLOCK     CODE     ---       LVL=0
      01003634H   LINE      ---      ---       #49
      01003634H   LINE      ---      ---       #50
      01003634H   LINE      ---      ---       #57
      ---         BLOCKEND  ---      ---       LVL=0

      01003637H   BLOCK     CODE     ---       LVL=0
      01003637H   LINE      ---      ---       #48
      ---         BLOCKEND  ---      ---       LVL=0

      01003640H   BLOCK     CODE     ---       LVL=0
      01003640H   LINE      ---      ---       #49
      ---         BLOCKEND  ---      ---       LVL=0

      01003649H   BLOCK     CODE     ---       LVL=0
      01003649H   LINE      ---      ---       #50
      ---         BLOCKEND  ---      ---       LVL=0

      01003652H   BLOCK     CODE     ---       LVL=0
      01003652H   LINE      ---      ---       #51
LX51 LINKER/LOCATER V4.66.41.0                                                        03/26/2019  15:13:05  PAGE 80


      ---         BLOCKEND  ---      ---       LVL=0

      01003661H   BLOCK     CODE     ---       LVL=0
      01003661H   LINE      ---      ---       #52
      ---         BLOCKEND  ---      ---       LVL=0

      01003670H   BLOCK     CODE     ---       LVL=0
      01003670H   LINE      ---      ---       #53
      ---         BLOCKEND  ---      ---       LVL=0

      0100367FH   BLOCK     CODE     ---       LVL=0
      0100367FH   LINE      ---      ---       #54
      ---         BLOCKEND  ---      ---       LVL=0

      0100368EH   BLOCK     CODE     ---       LVL=0
      0100368EH   LINE      ---      ---       #32
      0100368EH   LINE      ---      ---       #34
      0100368EH   LINE      ---      ---       #38
      01003691H   LINE      ---      ---       #40
      01003694H   LINE      ---      ---       #41
      0100369AH   LINE      ---      ---       #43
      0100369DH   LINE      ---      ---       #44
      010036A0H   LINE      ---      ---       #45
      010036A3H   LINE      ---      ---       #46
      010036A5H   LINE      ---      ---       #47
      010036A7H   LINE      ---      ---       #48
      010036A9H   LINE      ---      ---       #49
      010036ABH   LINE      ---      ---       #50
      010036ADH   LINE      ---      ---       #51
      010036AFH   LINE      ---      ---       #52
      010036B1H   LINE      ---      ---       #58
      010036B3H   LINE      ---      ---       #59
      010036B6H   LINE      ---      ---       #60
      010036B8H   LINE      ---      ---       #61
      010036BAH   LINE      ---      ---       #64
      ---         BLOCKEND  ---      ---       LVL=0

      010036BBH   BLOCK     CODE     ---       LVL=0
      010036BBH   LINE      ---      ---       #66
      010036BBH   LINE      ---      ---       #67
      00000006H   SYMBOL    DATA     WORD      value
      010036BBH   BLOCK     CODE     NEAR LAB  LVL=1
      010036BBH   LINE      ---      ---       #68
      010036CEH   LINE      ---      ---       #69
      010036CEH   LINE      ---      ---       #70
      010036CEH   LINE      ---      ---       #71
      010036E3H   LINE      ---      ---       #72
      010036E3H   LINE      ---      ---       #73
      010036E6H   LINE      ---      ---       #74
      01003705H   LINE      ---      ---       #75
      01003708H   LINE      ---      ---       #76
      0100370BH   LINE      ---      ---       #77
      0100370DH   LINE      ---      ---       #78
      0100370FH   LINE      ---      ---       #79
      01003711H   LINE      ---      ---       #80
      01003713H   LINE      ---      ---       #81
      0100371CH   LINE      ---      ---       #82
      0100371FH   LINE      ---      ---       #83
      0100372EH   LINE      ---      ---       #84
      01003734H   LINE      ---      ---       #85
      01003734H   LINE      ---      ---       #86
      01003735H   LINE      ---      ---       #87
      01003735H   LINE      ---      ---       #88
      01003742H   LINE      ---      ---       #89
      01003742H   LINE      ---      ---       #90
LX51 LINKER/LOCATER V4.66.41.0                                                        03/26/2019  15:13:05  PAGE 81


      01003749H   LINE      ---      ---       #91
      0100374CH   LINE      ---      ---       #92
      01003753H   LINE      ---      ---       #93
      01003758H   LINE      ---      ---       #94
      01003759H   LINE      ---      ---       #95
      01003759H   LINE      ---      ---       #96
      01003768H   LINE      ---      ---       #97
      0100376AH   LINE      ---      ---       #101
      0100376DH   LINE      ---      ---       #102
      0100378CH   LINE      ---      ---       #103
      0100378FH   LINE      ---      ---       #104
      01003792H   LINE      ---      ---       #105
      01003794H   LINE      ---      ---       #106
      01003796H   LINE      ---      ---       #107
      01003798H   LINE      ---      ---       #108
      010037A3H   LINE      ---      ---       #109
      010037A5H   LINE      ---      ---       #110
      010037A7H   LINE      ---      ---       #111
      010037A9H   LINE      ---      ---       #112
      010037AAH   LINE      ---      ---       #114
      010037B0H   LINE      ---      ---       #115
      010037B0H   LINE      ---      ---       #117
      010037B0H   LINE      ---      ---       #118
      0200011AH   SYMBOL    XDATA    BYTE      step
      ---         BLOCKEND  CODE     ---       LVL=1
      ---         BLOCKEND  CODE     ---       LVL=0

      010037B1H   BLOCK     CODE     ---       LVL=0
      010037B1H   LINE      ---      ---       #120
      010037B1H   LINE      ---      ---       #121
      010037B1H   BLOCK     CODE     NEAR LAB  LVL=1
      010037B1H   LINE      ---      ---       #122
      010037CAH   LINE      ---      ---       #123
      010037E3H   LINE      ---      ---       #124
      010037E3H   LINE      ---      ---       #127
      010037E9H   LINE      ---      ---       #128
      010037E9H   LINE      ---      ---       #129
      010037EBH   LINE      ---      ---       #130
      010037F0H   LINE      ---      ---       #132
      010037F2H   LINE      ---      ---       #133
      01003824H   LINE      ---      ---       #135
      01003826H   LINE      ---      ---       #136
      0100383AH   LINE      ---      ---       #137
      0100383DH   LINE      ---      ---       #138
      0100383FH   LINE      ---      ---       #139
      01003841H   LINE      ---      ---       #140
      01003843H   LINE      ---      ---       #141
      01003845H   LINE      ---      ---       #142
      01003877H   LINE      ---      ---       #144
      01003879H   LINE      ---      ---       #145
      0100387DH   LINE      ---      ---       #146
      01003880H   LINE      ---      ---       #147
      01003882H   LINE      ---      ---       #148
      01003884H   LINE      ---      ---       #150
      0100388AH   LINE      ---      ---       #151
      0100388EH   LINE      ---      ---       #153
      01003890H   LINE      ---      ---       #154
      010038C2H   LINE      ---      ---       #155
      010038C2H   LINE      ---      ---       #157
      010038D4H   LINE      ---      ---       #158
      010038E7H   LINE      ---      ---       #159
      01003919H   LINE      ---      ---       #160
      0100391CH   LINE      ---      ---       #161
      0100393EH   LINE      ---      ---       #162
      01003940H   LINE      ---      ---       #164
LX51 LINKER/LOCATER V4.66.41.0                                                        03/26/2019  15:13:05  PAGE 82


      01003940H   LINE      ---      ---       #165
      01003972H   LINE      ---      ---       #166
      01003972H   LINE      ---      ---       #167
      0100399AH   LINE      ---      ---       #168
      0100399DH   LINE      ---      ---       #169
      010039A9H   LINE      ---      ---       #170
      010039B0H   LINE      ---      ---       #186
      010039BFH   LINE      ---      ---       #187
      010039C2H   LINE      ---      ---       #188
      010039C4H   LINE      ---      ---       #189
      010039C7H   LINE      ---      ---       #190
      010039E6H   LINE      ---      ---       #191
      010039E9H   LINE      ---      ---       #192
      010039ECH   LINE      ---      ---       #193
      010039EEH   LINE      ---      ---       #194
      010039F0H   LINE      ---      ---       #195
      010039F2H   LINE      ---      ---       #196
      010039F5H   LINE      ---      ---       #197
      01003A04H   LINE      ---      ---       #198
      01003A0FH   LINE      ---      ---       #199
      01003A11H   LINE      ---      ---       #200
      01003A13H   LINE      ---      ---       #201
      01003A15H   LINE      ---      ---       #202
      01003A15H   LINE      ---      ---       #204
      01003A1AH   LINE      ---      ---       #205
      01003A1CH   LINE      ---      ---       #206
      01003A26H   LINE      ---      ---       #207
      01003A2FH   LINE      ---      ---       #208
      01003A2FH   LINE      ---      ---       #209
      01003A32H   LINE      ---      ---       #210
      01003A51H   LINE      ---      ---       #211
      01003A54H   LINE      ---      ---       #212
      01003A57H   LINE      ---      ---       #213
      01003A59H   LINE      ---      ---       #214
      01003A5BH   LINE      ---      ---       #215
      01003A5DH   LINE      ---      ---       #216
      01003A5FH   LINE      ---      ---       #217
      01003A60H   LINE      ---      ---       #219
      01003A60H   LINE      ---      ---       #220
      01003A63H   LINE      ---      ---       #221
      01003A82H   LINE      ---      ---       #222
      01003A85H   LINE      ---      ---       #223
      01003A88H   LINE      ---      ---       #225
      01003A94H   LINE      ---      ---       #226
      01003A98H   LINE      ---      ---       #227
      01003A9AH   LINE      ---      ---       #228
      01003A9CH   LINE      ---      ---       #229
      01003A9EH   LINE      ---      ---       #230
      01003AA0H   LINE      ---      ---       #231
      01003AA0H   LINE      ---      ---       #232
      01003AA0H   LINE      ---      ---       #235
      020001E9H   SYMBOL    XDATA    LONG      Thro_value
      ---         BLOCKEND  CODE     ---       LVL=1
      ---         BLOCKEND  CODE     ---       LVL=0

      01003AA1H   BLOCK     CODE     ---       LVL=0
      01003AA1H   LINE      ---      ---       #241
      01003AA1H   LINE      ---      ---       #242
      01003AA1H   BLOCK     CODE     NEAR LAB  LVL=1
      01003AA1H   LINE      ---      ---       #244
      01003AA4H   LINE      ---      ---       #245
      01003AA4H   LINE      ---      ---       #246
      01003AC3H   LINE      ---      ---       #247
      01003ACBH   LINE      ---      ---       #248
      01003ACDH   LINE      ---      ---       #249
LX51 LINKER/LOCATER V4.66.41.0                                                        03/26/2019  15:13:05  PAGE 83


      01003ACFH   LINE      ---      ---       #250
      01003AD2H   LINE      ---      ---       #251
      01003AF1H   LINE      ---      ---       #252
      01003AF9H   LINE      ---      ---       #253
      01003AFDH   LINE      ---      ---       #254
      01003B00H   LINE      ---      ---       #255
      01003B1FH   LINE      ---      ---       #256
      01003B27H   LINE      ---      ---       #257
      01003B2BH   LINE      ---      ---       #259
      01003B2DH   LINE      ---      ---       #262
      01003B33H   LINE      ---      ---       #263
      01003B39H   LINE      ---      ---       #264
      01003B42H   LINE      ---      ---       #265
      01003B48H   LINE      ---      ---       #266
      01003B51H   LINE      ---      ---       #267
      01003B55H   LINE      ---      ---       #268
      01003B5BH   LINE      ---      ---       #269
      01003B5FH   LINE      ---      ---       #271
      01003B65H   LINE      ---      ---       #272
      01003B69H   LINE      ---      ---       #273
      01003B6DH   LINE      ---      ---       #274
      01003B71H   LINE      ---      ---       #275
      01003B75H   LINE      ---      ---       #276
      01003B79H   LINE      ---      ---       #277
      0200011BH   SYMBOL    XDATA    WORD      LED_Time
      ---         BLOCKEND  CODE     ---       LVL=1
      ---         BLOCKEND  CODE     ---       LVL=0

      01003D72H   BLOCK     CODE     ---       LVL=0
      01003D72H   LINE      ---      ---       #279
      01003D72H   LINE      ---      ---       #280
      01003D72H   BLOCK     CODE     NEAR LAB  LVL=1
      01003D72H   LINE      ---      ---       #281
      01003D75H   LINE      ---      ---       #282
      01003D75H   LINE      ---      ---       #283
      01003D84H   LINE      ---      ---       #284
      01003D8AH   LINE      ---      ---       #285
      01003D8FH   LINE      ---      ---       #286
      01003D91H   LINE      ---      ---       #287
      01003D92H   LINE      ---      ---       #289
      01003D97H   LINE      ---      ---       #290
      01003D97H   LINE      ---      ---       #291
      0200011DH   SYMBOL    XDATA    BYTE      count
      ---         BLOCKEND  CODE     ---       LVL=1
      ---         BLOCKEND  CODE     ---       LVL=0

      01003D98H   BLOCK     CODE     ---       LVL=0
      01003D98H   LINE      ---      ---       #294
      01003D98H   LINE      ---      ---       #295
      01003D98H   BLOCK     CODE     NEAR LAB  LVL=1
      01003D98H   LINE      ---      ---       #296
      01003D9AH   LINE      ---      ---       #297
      01003DA6H   LINE      ---      ---       #298
      01003DA9H   LINE      ---      ---       #299
      01003DABH   LINE      ---      ---       #300
      01003DADH   LINE      ---      ---       #302
      01003DAFH   LINE      ---      ---       #303
      01003DBDH   LINE      ---      ---       #304
      01003DC3H   LINE      ---      ---       #305
      01003DC9H   LINE      ---      ---       #306
      01003DCBH   LINE      ---      ---       #307
      01003DCDH   LINE      ---      ---       #309
      01003DD3H   LINE      ---      ---       #310
      01003DD5H   LINE      ---      ---       #312
      01003DD7H   LINE      ---      ---       #314
LX51 LINKER/LOCATER V4.66.41.0                                                        03/26/2019  15:13:05  PAGE 84


      01003DDCH   LINE      ---      ---       #316
      01003DDFH   LINE      ---      ---       #317
      01003DE8H   LINE      ---      ---       #318
      01003DEBH   LINE      ---      ---       #319
      01003DF5H   LINE      ---      ---       #320
      01003DF5H   LINE      ---      ---       #322
      01003DFAH   LINE      ---      ---       #324
      0200011EH   SYMBOL    XDATA    BYTE      count
      0200011FH   SYMBOL    XDATA    BYTE      time
      00000007H   SYMBOL    DATA     BYTE      Current_max
      ---         BLOCKEND  CODE     ---       LVL=1
      ---         BLOCKEND  CODE     ---       LVL=0

      01003BC6H   BLOCK     CODE     ---       LVL=0
      01003BC6H   LINE      ---      ---       #325
      01003BD1H   LINE      ---      ---       #326
      020001EAH   SYMBOL    XDATA    WORD      freq
      020001ECH   SYMBOL    XDATA    BYTE      time
      01003BD1H   BLOCK     CODE     NEAR LAB  LVL=1
      01003BD1H   LINE      ---      ---       #327
      01003BD9H   LINE      ---      ---       #328
      01003BDCH   LINE      ---      ---       #329
      01003C09H   LINE      ---      ---       #330
      01003C1EH   LINE      ---      ---       #331
      01003C2AH   LINE      ---      ---       #332
      01003C2DH   LINE      ---      ---       #333
      01003C30H   LINE      ---      ---       #334
      01003C33H   LINE      ---      ---       #335
      01003C52H   LINE      ---      ---       #336
      01003C55H   LINE      ---      ---       #337
      01003C58H   LINE      ---      ---       #338
      01003C73H   LINE      ---      ---       #342
      01003C7FH   LINE      ---      ---       #343
      01003C83H   LINE      ---      ---       #345
      01003C85H   LINE      ---      ---       #346
      01003C87H   LINE      ---      ---       #348
      01003CA8H   LINE      ---      ---       #349
      01003CB4H   LINE      ---      ---       #350
      01003CB8H   LINE      ---      ---       #352
      01003CBAH   LINE      ---      ---       #353
      01003CBCH   LINE      ---      ---       #356
      01003CBEH   LINE      ---      ---       #357
      01003CC0H   LINE      ---      ---       #358
      01003CCDH   LINE      ---      ---       #359
      01003CD7H   LINE      ---      ---       #360
      01003CDAH   LINE      ---      ---       #361
      01003CDDH   LINE      ---      ---       #362
      01003CE0H   LINE      ---      ---       #363
      01003CE2H   LINE      ---      ---       #364
      01003CE4H   LINE      ---      ---       #365
      01003CE6H   LINE      ---      ---       #366
      01003CE9H   LINE      ---      ---       #367
      01003CECH   LINE      ---      ---       #368
      01003CF2H   LINE      ---      ---       #369
      01003CF4H   LINE      ---      ---       #370
      01003CF6H   LINE      ---      ---       #371
      020001EDH   SYMBOL    XDATA    DWORD     temp
      ---         BLOCKEND  CODE     ---       LVL=1
      ---         BLOCKEND  CODE     ---       LVL=0

      01003B7AH   BLOCK     CODE     ---       LVL=0
      01003B7AH   LINE      ---      ---       #372
      01003B80H   LINE      ---      ---       #373
      01003B80H   LINE      ---      ---       #374
      01003B86H   LINE      ---      ---       #375
LX51 LINKER/LOCATER V4.66.41.0                                                        03/26/2019  15:13:05  PAGE 85


      01003B91H   LINE      ---      ---       #376
      01003B9CH   LINE      ---      ---       #377
      01003BA7H   LINE      ---      ---       #378
      01003BB2H   LINE      ---      ---       #379
      01003BBDH   LINE      ---      ---       #380
      020001E9H   SYMBOL    XDATA    BYTE      time
      ---         BLOCKEND  ---      ---       LVL=0

      01003CF7H   BLOCK     CODE     ---       LVL=0
      01003CF7H   LINE      ---      ---       #382
      01003CFDH   LINE      ---      ---       #383
      01003CFDH   LINE      ---      ---       #384
      01003D03H   LINE      ---      ---       #385
      01003D0EH   LINE      ---      ---       #386
      01003D19H   LINE      ---      ---       #387
      01003D24H   LINE      ---      ---       #388
      01003D2FH   LINE      ---      ---       #389
      01003D3AH   LINE      ---      ---       #390
      020001E9H   SYMBOL    XDATA    BYTE      time
      ---         BLOCKEND  ---      ---       LVL=0

      01003D45H   BLOCK     CODE     ---       LVL=0
      01003D45H   LINE      ---      ---       #392
      01003D4BH   LINE      ---      ---       #393
      01003D4BH   LINE      ---      ---       #394
      01003D51H   LINE      ---      ---       #396
      01003D5CH   LINE      ---      ---       #398
      01003D67H   LINE      ---      ---       #400
      020001E9H   SYMBOL    XDATA    BYTE      time
      ---         BLOCKEND  ---      ---       LVL=0

      01002136H   BLOCK     CODE     ---       LVL=0
      01002136H   LINE      ---      ---       #407
      01002136H   LINE      ---      ---       #408
      01002136H   LINE      ---      ---       #410
      0100213FH   LINE      ---      ---       #411
      0100214CH   LINE      ---      ---       #412
      01002159H   LINE      ---      ---       #413
      01002166H   LINE      ---      ---       #414
      01002173H   LINE      ---      ---       #415
      01002180H   LINE      ---      ---       #417
      ---         BLOCKEND  ---      ---       LVL=0

      01002210H   BLOCK     CODE     ---       LVL=0
      01002210H   LINE      ---      ---       #425
      01002210H   LINE      ---      ---       #426
      01002210H   LINE      ---      ---       #427
      01002216H   LINE      ---      ---       #428
      01002219H   LINE      ---      ---       #429
      0100221CH   LINE      ---      ---       #430
      0100221FH   LINE      ---      ---       #431
      01002222H   LINE      ---      ---       #432
      01002224H   LINE      ---      ---       #433
      ---         BLOCKEND  ---      ---       LVL=0

      01002346H   BLOCK     CODE     ---       LVL=0
      01002346H   LINE      ---      ---       #443
      01002346H   LINE      ---      ---       #444
      01002346H   LINE      ---      ---       #445
      01002350H   LINE      ---      ---       #446
      0100235CH   LINE      ---      ---       #447
      0100235CH   LINE      ---      ---       #448
      0100235EH   LINE      ---      ---       #449
      0100236AH   LINE      ---      ---       #450
      0100236DH   LINE      ---      ---       #452
LX51 LINKER/LOCATER V4.66.41.0                                                        03/26/2019  15:13:05  PAGE 86


      01002377H   LINE      ---      ---       #453
      01002381H   LINE      ---      ---       #454
      0100238BH   LINE      ---      ---       #455
      01002395H   LINE      ---      ---       #456
      0100239FH   LINE      ---      ---       #458
      010023A1H   LINE      ---      ---       #459
      ---         BLOCKEND  ---      ---       LVL=0

      ---         MODULE    ---      ---       PWM
      02000264H   PUBLIC    XDATA    BYTE      pwm_b
      02000263H   PUBLIC    XDATA    BYTE      pwm_a
      01000CB9H   PUBLIC    CODE     ---       pwm_stop
      01000CCFH   PUBLIC    CODE     ---       _pwm_update
      01003EFEH   PUBLIC    CODE     ---       _pwm_dir_b
      01003EA7H   PUBLIC    CODE     ---       _pwm_dir_a
      000000F6H   SFRSYM    DATA     BYTE      AINDIDS
      000000B1H   SFRSYM    DATA     BYTE      P0M1
      000000B3H   SFRSYM    DATA     BYTE      P1M1
      000000B2H   SFRSYM    DATA     BYTE      P0M2
      00000080H   SFRSYM    DATA     BYTE      P0
      000000BBH   SFRSYM    DATA     BYTE      SADDR_1
      000000B4H   SFRSYM    DATA     BYTE      P1M2
      00000090H   SFRSYM    DATA     BYTE      P1
      000000C0H.2 SFRSYM    DATA     BIT       AA
      000000ACH   SFRSYM    DATA     BYTE      P3M1
      000000A0H   SFRSYM    DATA     BYTE      P2
      000000B0H   SFRSYM    DATA     BYTE      P3
      000000ADH   SFRSYM    DATA     BYTE      P3M2
      000000D0H.6 SFRSYM    DATA     BIT       AC
      0000008FH   SFRSYM    DATA     BYTE      WKCON
      0000009CH   SFRSYM    DATA     BYTE      EIE1
      000000A8H.7 SFRSYM    DATA     BIT       EA
      000000D8H   SFRSYM    DATA     BYTE      PWMCON0
      000000DFH   SFRSYM    DATA     BYTE      PWMCON1
      00000098H.7 SFRSYM    DATA     BIT       FE
      000000A8H.6 SFRSYM    DATA     BIT       EADC
      000000D1H   SFRSYM    DATA     BYTE      PWMPH
      000000A8H   SFRSYM    DATA     BYTE      IE
      00000096H   SFRSYM    DATA     BYTE      CKSWT
      000000E8H.7 SFRSYM    DATA     BIT       ADCF
      000000FEH   SFRSYM    DATA     BYTE      EIP1
      000000D9H   SFRSYM    DATA     BYTE      PWMPL
      000000E8H   SFRSYM    DATA     BIT       ADCHS0
      000000C7H   SFRSYM    DATA     BYTE      TA
      000000E8H.1 SFRSYM    DATA     BIT       ADCHS1
      000000E8H.2 SFRSYM    DATA     BIT       ADCHS2
      000000E8H.3 SFRSYM    DATA     BIT       ADCHS3
      000000A8H.4 SFRSYM    DATA     BIT       ES
      000000C1H   SFRSYM    DATA     BYTE      I2ADDR
      000000B8H.6 SFRSYM    DATA     BIT       PADC
      000000B8H   SFRSYM    DATA     BYTE      IP
      000000A8H.5 SFRSYM    DATA     BIT       EBOD
      00000098H   SFRSYM    DATA     BIT       RI
      000000F8H.7 SFRSYM    DATA     BIT       FE_1
      000000E8H.6 SFRSYM    DATA     BIT       ADCS
      000000D0H.7 SFRSYM    DATA     BIT       CY
      000000C0H.3 SFRSYM    DATA     BIT       SI
      000000B0H   SFRSYM    DATA     BIT       INT0
      00000098H.1 SFRSYM    DATA     BIT       TI
      000000D8H.6 SFRSYM    DATA     BIT       LOAD
      00000097H   SFRSYM    DATA     BYTE      CKEN
      000000B8H.4 SFRSYM    DATA     BIT       PS
      00000081H   SFRSYM    DATA     BYTE      SP
      000000D0H.2 SFRSYM    DATA     BIT       OV
      000000B7H   SFRSYM    DATA     BYTE      PWMINTC
LX51 LINKER/LOCATER V4.66.41.0                                                        03/26/2019  15:13:05  PAGE 87


      000000B8H.5 SFRSYM    DATA     BIT       PBOD
      000000B2H   SFRSYM    DATA     BYTE      P0SR
      000000F7H   SFRSYM    DATA     BYTE      EIPH
      000000B4H   SFRSYM    DATA     BYTE      P1SR
      000000ADH   SFRSYM    DATA     BYTE      P3SR
      000000F8H   SFRSYM    DATA     BIT       RI_1
      000000F8H.1 SFRSYM    DATA     BIT       TI_1
      000000CBH   SFRSYM    DATA     BYTE      RCMP2H
      000000CFH   SFRSYM    DATA     BYTE      ADCMPH
      00000080H   SFRSYM    DATA     BIT       P00
      00000090H   SFRSYM    DATA     BIT       P10
      00000080H.1 SFRSYM    DATA     BIT       P01
      000000FBH   SFRSYM    DATA     BYTE      PMEN
      00000099H   SFRSYM    DATA     BYTE      SBUF
      00000087H   SFRSYM    DATA     BYTE      PCON
      000000A0H   SFRSYM    DATA     BIT       P20
      00000090H.1 SFRSYM    DATA     BIT       P11
      00000080H.2 SFRSYM    DATA     BIT       P02
      000000CAH   SFRSYM    DATA     BYTE      RCMP2L
      000000B0H   SFRSYM    DATA     BIT       P30
      00000090H.2 SFRSYM    DATA     BIT       P12
      00000080H.3 SFRSYM    DATA     BIT       P03
      000000E3H   SFRSYM    DATA     BYTE      ADCDLY
      000000CEH   SFRSYM    DATA     BYTE      ADCMPL
      00000090H.3 SFRSYM    DATA     BIT       P13
      00000080H.4 SFRSYM    DATA     BIT       P04
      00000098H   SFRSYM    DATA     BYTE      SCON
      00000090H.4 SFRSYM    DATA     BIT       P14
      00000080H.5 SFRSYM    DATA     BIT       P05
      00000089H   SFRSYM    DATA     BYTE      TMOD
      00000088H   SFRSYM    DATA     BYTE      TCON
      00000090H.5 SFRSYM    DATA     BIT       P15
      00000080H.6 SFRSYM    DATA     BIT       P06
      00000090H.6 SFRSYM    DATA     BIT       P16
      00000080H.7 SFRSYM    DATA     BIT       P07
      00000090H.7 SFRSYM    DATA     BIT       P17
      000000F3H   SFRSYM    DATA     BYTE      SPCR
      000000BDH   SFRSYM    DATA     BYTE      I2STAT
      000000F5H   SFRSYM    DATA     BYTE      SPDR
      000000D8H.5 SFRSYM    DATA     BIT       PWMF
      000000E5H   SFRSYM    DATA     BYTE      C0H
      000000E7H   SFRSYM    DATA     BYTE      C1H
      000000EEH   SFRSYM    DATA     BYTE      C2H
      0000009FH   SFRSYM    DATA     BYTE      CHPCON
      00000088H.1 SFRSYM    DATA     BIT       IE0
      00000088H.3 SFRSYM    DATA     BIT       IE1
      000000E4H   SFRSYM    DATA     BYTE      C0L
      00000091H   SFRSYM    DATA     BYTE      SFRS
      000000E6H   SFRSYM    DATA     BYTE      C1L
      000000C8H   SFRSYM    DATA     BIT       CM_RL2
      000000F0H   SFRSYM    DATA     BYTE      B
      000000EDH   SFRSYM    DATA     BYTE      C2L
      0000009AH   SFRSYM    DATA     BYTE      SBUF_1
      000000A5H   SFRSYM    DATA     BYTE      IAPUEN
      000000F8H   SFRSYM    DATA     BYTE      SCON_1
      000000E0H   SFRSYM    DATA     BYTE      ACC
      000000A8H.1 SFRSYM    DATA     BIT       ET0
      000000F4H   SFRSYM    DATA     BYTE      SPSR
      000000A4H   SFRSYM    DATA     BYTE      IAPTRG
      000000A8H.3 SFRSYM    DATA     BIT       ET1
      00000088H.5 SFRSYM    DATA     BIT       TF0
      00000088H.7 SFRSYM    DATA     BIT       TF1
      000000C8H.7 SFRSYM    DATA     BIT       TF2
      00000098H.2 SFRSYM    DATA     BIT       RB8
      000000D7H   SFRSYM    DATA     BYTE      FBD
LX51 LINKER/LOCATER V4.66.41.0                                                        03/26/2019  15:13:05  PAGE 88


      0000008CH   SFRSYM    DATA     BYTE      TH0
      000000A8H   SFRSYM    DATA     BIT       EX0
      00000088H   SFRSYM    DATA     BIT       IT0
      000000C6H   SFRSYM    DATA     BYTE      RH3
      0000008DH   SFRSYM    DATA     BYTE      TH1
      000000A8H.2 SFRSYM    DATA     BIT       EX1
      00000098H.3 SFRSYM    DATA     BIT       TB8
      00000088H.2 SFRSYM    DATA     BIT       IT1
      000000CDH   SFRSYM    DATA     BYTE      TH2
      000000D0H   SFRSYM    DATA     BIT       P
      000000FAH   SFRSYM    DATA     BYTE      PDTCNT
      00000098H.7 SFRSYM    DATA     BIT       SM0
      0000008AH   SFRSYM    DATA     BYTE      TL0
      00000098H.6 SFRSYM    DATA     BIT       SM1
      000000C5H   SFRSYM    DATA     BYTE      RL3
      0000008BH   SFRSYM    DATA     BYTE      TL1
      000000C0H.6 SFRSYM    DATA     BIT       I2CEN
      00000098H.5 SFRSYM    DATA     BIT       SM2
      000000CCH   SFRSYM    DATA     BYTE      TL2
      000000B1H   SFRSYM    DATA     BYTE      P0S
      0000009BH   SFRSYM    DATA     BYTE      EIE
      000000B8H.1 SFRSYM    DATA     BIT       PT0
      000000B3H   SFRSYM    DATA     BYTE      P1S
      000000D0H.3 SFRSYM    DATA     BIT       RS0
      000000B8H.3 SFRSYM    DATA     BIT       PT1
      000000BCH   SFRSYM    DATA     BYTE      I2DAT
      000000B5H   SFRSYM    DATA     BYTE      P2S
      000000D0H.4 SFRSYM    DATA     BIT       RS1
      00000088H.4 SFRSYM    DATA     BIT       TR0
      000000BEH   SFRSYM    DATA     BYTE      I2CLK
      000000ACH   SFRSYM    DATA     BYTE      P3S
      000000D8H.4 SFRSYM    DATA     BIT       CLRPWM
      00000088H.6 SFRSYM    DATA     BIT       TR1
      000000C8H.2 SFRSYM    DATA     BIT       TR2
      000000B8H   SFRSYM    DATA     BIT       PX0
      00000090H.4 SFRSYM    DATA     BIT       SDA
      000000FFH   SFRSYM    DATA     BYTE      EIPH1
      000000B8H.2 SFRSYM    DATA     BIT       PX1
      000000E8H   SFRSYM    DATA     BYTE      ADCCON0
      000000E1H   SFRSYM    DATA     BYTE      ADCCON1
      000000E2H   SFRSYM    DATA     BYTE      ADCCON2
      000000C0H   SFRSYM    DATA     BYTE      I2CON
      00000083H   SFRSYM    DATA     BYTE      DPH
      000000F8H.2 SFRSYM    DATA     BIT       RB8_1
      000000EFH   SFRSYM    DATA     BYTE      EIP
      000000F8H.3 SFRSYM    DATA     BIT       TB8_1
      000000ECH   SFRSYM    DATA     BYTE      PIF
      00000082H   SFRSYM    DATA     BYTE      DPL
      000000F8H.7 SFRSYM    DATA     BIT       SM0_1
      000000FCH   SFRSYM    DATA     BYTE      PMD
      000000B7H   SFRSYM    DATA     BYTE      IPH
      000000F8H.6 SFRSYM    DATA     BIT       SM1_1
      00000090H.3 SFRSYM    DATA     BIT       SCL
      000000BFH   SFRSYM    DATA     BYTE      I2TOC
      000000F8H.5 SFRSYM    DATA     BIT       SM2_1
      000000C3H   SFRSYM    DATA     BYTE      ADCRH
      000000A7H   SFRSYM    DATA     BYTE      IAPAH
      00000098H.4 SFRSYM    DATA     BIT       REN
      000000AEH   SFRSYM    DATA     BYTE      IAPFD
      00000092H   SFRSYM    DATA     BYTE      CAPCON0
      000000C0H   SFRSYM    DATA     BIT       I2CPX
      000000C9H   SFRSYM    DATA     BYTE      T2MOD
      000000C8H   SFRSYM    DATA     BYTE      T2CON
      000000C2H   SFRSYM    DATA     BYTE      ADCRL
      000000A3H   SFRSYM    DATA     BYTE      BODCON0
LX51 LINKER/LOCATER V4.66.41.0                                                        03/26/2019  15:13:05  PAGE 89


      00000093H   SFRSYM    DATA     BYTE      CAPCON1
      000000C0H.5 SFRSYM    DATA     BIT       STA
      000000C4H   SFRSYM    DATA     BYTE      T3CON
      000000ABH   SFRSYM    DATA     BYTE      BODCON1
      000000A6H   SFRSYM    DATA     BYTE      IAPAL
      00000094H   SFRSYM    DATA     BYTE      CAPCON2
      000000F1H   SFRSYM    DATA     BYTE      CAPCON3
      000000F2H   SFRSYM    DATA     BYTE      CAPCON4
      000000D8H.7 SFRSYM    DATA     BIT       PWMRUN
      000000F3H   SFRSYM    DATA     BYTE      SPCR2
      000000B9H   SFRSYM    DATA     BYTE      SADEN
      000000AFH   SFRSYM    DATA     BYTE      IAPCN
      000000D2H   SFRSYM    DATA     BYTE      PWM0H
      000000D6H   SFRSYM    DATA     BYTE      PNP
      000000D3H   SFRSYM    DATA     BYTE      PWM1H
      000000D4H   SFRSYM    DATA     BYTE      PWM2H
      000000A9H   SFRSYM    DATA     BYTE      SADDR
      0000008EH   SFRSYM    DATA     BYTE      CKCON
      000000D5H   SFRSYM    DATA     BYTE      PWM3H
      000000DAH   SFRSYM    DATA     BYTE      PWM0L
      000000C4H   SFRSYM    DATA     BYTE      PWM4H
      000000DBH   SFRSYM    DATA     BYTE      PWM1L
      000000C5H   SFRSYM    DATA     BYTE      PWM5H
      000000A2H   SFRSYM    DATA     BYTE      AUXR1
      00000095H   SFRSYM    DATA     BYTE      CKDIV
      000000DCH   SFRSYM    DATA     BYTE      PWM2L
      000000DDH   SFRSYM    DATA     BYTE      PWM3L
      00000086H   SFRSYM    DATA     BYTE      RWK
      000000D0H.5 SFRSYM    DATA     BIT       F0
      000000CCH   SFRSYM    DATA     BYTE      PWM4L
      000000F8H.4 SFRSYM    DATA     BIT       REN_1
      000000E8H.4 SFRSYM    DATA     BIT       ETGSEL0
      000000C0H.4 SFRSYM    DATA     BIT       STO
      000000CDH   SFRSYM    DATA     BYTE      PWM5L
      000000E8H.5 SFRSYM    DATA     BIT       ETGSEL1
      000000E9H   SFRSYM    DATA     BYTE      PICON
      000000DEH   SFRSYM    DATA     BYTE      PIOCON0
      000000D0H   SFRSYM    DATA     BYTE      PSW
      000000EAH   SFRSYM    DATA     BYTE      PINEN
      000000C6H   SFRSYM    DATA     BYTE      PIOCON1
      000000F9H   SFRSYM    DATA     BYTE      PDTEN
      000000AAH   SFRSYM    DATA     BYTE      WDCON
      000000EBH   SFRSYM    DATA     BYTE      PIPEN
      000000BAH   SFRSYM    DATA     BYTE      SADEN_1
      01003E3AH   SYMBOL    CODE     ---       pwm_disable
      01003E4FH   SYMBOL    CODE     ---       curve_get_duration
      01003E39H   SYMBOL    CODE     ---       pwm_enable
      01003E94H   SYMBOL    CODE     ---       _delay_loop
      01003E11H   SYMBOL    CODE     ---       motion_time_left
      01003E58H   SYMBOL    CODE     ---       curve_get_p0
      01003E67H   SYMBOL    CODE     ---       curve_get_p1
      01003E3DH   SYMBOL    CODE     ---       curve_get_t0
      01003E46H   SYMBOL    CODE     ---       curve_get_t1
      01003E76H   SYMBOL    CODE     ---       curve_get_v0
      01003E85H   SYMBOL    CODE     ---       curve_get_v1
      02000265H   SYMBOL    XDATA    WORD      pwm_div

      01003E11H   BLOCK     CODE     ---       LVL=0
      01003E11H   LINE      ---      ---       #28
      01003E11H   LINE      ---      ---       #31
      01003E11H   LINE      ---      ---       #34
      01003E38H   LINE      ---      ---       #35
      ---         BLOCKEND  ---      ---       LVL=0

      01003E39H   BLOCK     CODE     ---       LVL=0
LX51 LINKER/LOCATER V4.66.41.0                                                        03/26/2019  15:13:05  PAGE 90


      01003E39H   LINE      ---      ---       #40
      01003E39H   LINE      ---      ---       #41
      01003E39H   LINE      ---      ---       #46
      ---         BLOCKEND  ---      ---       LVL=0

      01003E3AH   BLOCK     CODE     ---       LVL=0
      01003E3AH   LINE      ---      ---       #49
      01003E3AH   LINE      ---      ---       #50
      01003E3AH   LINE      ---      ---       #57
      ---         BLOCKEND  ---      ---       LVL=0

      01003E3DH   BLOCK     CODE     ---       LVL=0
      01003E3DH   LINE      ---      ---       #48
      ---         BLOCKEND  ---      ---       LVL=0

      01003E46H   BLOCK     CODE     ---       LVL=0
      01003E46H   LINE      ---      ---       #49
      ---         BLOCKEND  ---      ---       LVL=0

      01003E4FH   BLOCK     CODE     ---       LVL=0
      01003E4FH   LINE      ---      ---       #50
      ---         BLOCKEND  ---      ---       LVL=0

      01003E58H   BLOCK     CODE     ---       LVL=0
      01003E58H   LINE      ---      ---       #51
      ---         BLOCKEND  ---      ---       LVL=0

      01003E67H   BLOCK     CODE     ---       LVL=0
      01003E67H   LINE      ---      ---       #52
      ---         BLOCKEND  ---      ---       LVL=0

      01003E76H   BLOCK     CODE     ---       LVL=0
      01003E76H   LINE      ---      ---       #53
      ---         BLOCKEND  ---      ---       LVL=0

      01003E85H   BLOCK     CODE     ---       LVL=0
      01003E85H   LINE      ---      ---       #54
      ---         BLOCKEND  ---      ---       LVL=0

      01003E94H   BLOCK     CODE     ---       LVL=0
      01003E94H   LINE      ---      ---       #25
      01003E94H   LINE      ---      ---       #26
      00000006H   SYMBOL    DATA     INT       n
      01003E94H   BLOCK     CODE     NEAR LAB  LVL=1
      01003E94H   LINE      ---      ---       #28
      01003EA2H   LINE      ---      ---       #29
      01003EA2H   LINE      ---      ---       #31
      01003EA3H   LINE      ---      ---       #32
      01003EA6H   LINE      ---      ---       #33
      00000005H   SYMBOL    DATA     BYTE      i
      ---         BLOCKEND  CODE     ---       LVL=1
      ---         BLOCKEND  CODE     ---       LVL=0

      01003EA7H   BLOCK     CODE     ---       LVL=0
      01003EA7H   LINE      ---      ---       #35
      01003EACH   LINE      ---      ---       #40
      020001F1H   SYMBOL    XDATA    BYTE      pwm_duty
      01003EACH   BLOCK     CODE     NEAR LAB  LVL=1
      01003EACH   LINE      ---      ---       #42
      01003EE9H   LINE      ---      ---       #46
      01003EEFH   LINE      ---      ---       #47
      01003EEFH   LINE      ---      ---       #55
      01003EF1H   LINE      ---      ---       #56
      01003EF3H   LINE      ---      ---       #57
      01003EF5H   LINE      ---      ---       #58
LX51 LINKER/LOCATER V4.66.41.0                                                        03/26/2019  15:13:05  PAGE 91


      01003EF5H   LINE      ---      ---       #62
      01003EFDH   LINE      ---      ---       #75
      020001F2H   SYMBOL    XDATA    WORD      duty_cycle
      ---         BLOCKEND  CODE     ---       LVL=1
      ---         BLOCKEND  CODE     ---       LVL=0

      01003EFEH   BLOCK     CODE     ---       LVL=0
      01003EFEH   LINE      ---      ---       #78
      01003F03H   LINE      ---      ---       #81
      020001F1H   SYMBOL    XDATA    BYTE      pwm_duty
      01003F03H   BLOCK     CODE     NEAR LAB  LVL=1
      01003F03H   LINE      ---      ---       #83
      01003F40H   LINE      ---      ---       #86
      01003F46H   LINE      ---      ---       #87
      01003F46H   LINE      ---      ---       #95
      01003F48H   LINE      ---      ---       #96
      01003F4AH   LINE      ---      ---       #97
      01003F4EH   LINE      ---      ---       #98
      01003F4EH   LINE      ---      ---       #99
      01003F56H   LINE      ---      ---       #111
      020001F2H   SYMBOL    XDATA    WORD      duty_cycle
      ---         BLOCKEND  CODE     ---       LVL=1
      ---         BLOCKEND  CODE     ---       LVL=0

      01000CCFH   BLOCK     CODE     ---       LVL=0
      01000CCFH   LINE      ---      ---       #151
      01000CD7H   LINE      ---      ---       #162
      00000006H   SYMBOL    DATA     WORD      position
      020001E9H   SYMBOL    XDATA    INT       pwm
      01000CD7H   BLOCK     CODE     NEAR LAB  LVL=1
      01000CD7H   LINE      ---      ---       #169
      01000CDDH   LINE      ---      ---       #170
      01000CDDH   LINE      ---      ---       #176
      01000CEDH   LINE      ---      ---       #177
      01000CFCH   LINE      ---      ---       #179
      01000D05H   LINE      ---      ---       #180
      01000D0FH   LINE      ---      ---       #181
      01000D1EH   LINE      ---      ---       #182
      01000D25H   LINE      ---      ---       #185
      01000D39H   LINE      ---      ---       #186
      01000D4DH   LINE      ---      ---       #187
      01000D4FH   LINE      ---      ---       #189
      01000D4FH   LINE      ---      ---       #194
      01000D5FH   LINE      ---      ---       #195
      01000D6EH   LINE      ---      ---       #197
      01000D77H   LINE      ---      ---       #198
      01000D81H   LINE      ---      ---       #199
      01000D90H   LINE      ---      ---       #200
      01000D97H   LINE      ---      ---       #201
      01000D97H   LINE      ---      ---       #204
      01000DB2H   LINE      ---      ---       #207
      01000DD3H   LINE      ---      ---       #209
      01000DE3H   LINE      ---      ---       #210
      01000DE3H   LINE      ---      ---       #213
      01000DEEH   LINE      ---      ---       #217
      01000DF1H   LINE      ---      ---       #221
      01000DF1H   LINE      ---      ---       #222
      01000E03H   LINE      ---      ---       #223
      01000E03H   LINE      ---      ---       #227
      01000E09H   LINE      ---      ---       #231
      01000E0CH   LINE      ---      ---       #236
      01000E0CH   LINE      ---      ---       #238
      01000E0CH   LINE      ---      ---       #240
      020001EBH   SYMBOL    XDATA    WORD      pwm_width
      020001EDH   SYMBOL    XDATA    WORD      min_position
LX51 LINKER/LOCATER V4.66.41.0                                                        03/26/2019  15:13:05  PAGE 92


      020001EFH   SYMBOL    XDATA    WORD      max_position
      ---         BLOCKEND  CODE     ---       LVL=1
      ---         BLOCKEND  CODE     ---       LVL=0

      01000CB9H   BLOCK     CODE     ---       LVL=0
      01000CB9H   LINE      ---      ---       #245
      01000CB9H   LINE      ---      ---       #247
      01000CB9H   LINE      ---      ---       #251
      01000CC3H   LINE      ---      ---       #252
      01000CC3H   LINE      ---      ---       #256
      01000CC5H   LINE      ---      ---       #257
      01000CC7H   LINE      ---      ---       #258
      01000CCCH   LINE      ---      ---       #259
      01000CCEH   LINE      ---      ---       #260
      01000CCEH   LINE      ---      ---       #275
      ---         BLOCKEND  ---      ---       LVL=0

      ---         MODULE    ---      ---       UART
      01003DFBH   PUBLIC    CODE     ---       _Send_Word_To_UART1
      010040E4H   PUBLIC    CODE     ---       _Send_Data_To_UART1
      0100407DH   PUBLIC    CODE     ---       _InitialUART1_Timer3
      01004067H   PUBLIC    CODE     ---       _Send_Word_To_UART0
      0100405FH   PUBLIC    CODE     ---       _Send_Data_To_UART0
      01004057H   PUBLIC    CODE     ---       Receive_Data_From_UART0
      01003FDAH   PUBLIC    CODE     ---       _InitialUART0_Timer3
      000000F6H   SFRSYM    DATA     BYTE      AINDIDS
      000000B1H   SFRSYM    DATA     BYTE      P0M1
      000000B3H   SFRSYM    DATA     BYTE      P1M1
      000000B2H   SFRSYM    DATA     BYTE      P0M2
      00000080H   SFRSYM    DATA     BYTE      P0
      000000BBH   SFRSYM    DATA     BYTE      SADDR_1
      000000B4H   SFRSYM    DATA     BYTE      P1M2
      00000090H   SFRSYM    DATA     BYTE      P1
      000000C0H.2 SFRSYM    DATA     BIT       AA
      000000ACH   SFRSYM    DATA     BYTE      P3M1
      000000A0H   SFRSYM    DATA     BYTE      P2
      000000B0H   SFRSYM    DATA     BYTE      P3
      000000ADH   SFRSYM    DATA     BYTE      P3M2
      000000D0H.6 SFRSYM    DATA     BIT       AC
      0000008FH   SFRSYM    DATA     BYTE      WKCON
      0000009CH   SFRSYM    DATA     BYTE      EIE1
      000000A8H.7 SFRSYM    DATA     BIT       EA
      000000D8H   SFRSYM    DATA     BYTE      PWMCON0
      000000DFH   SFRSYM    DATA     BYTE      PWMCON1
      00000098H.7 SFRSYM    DATA     BIT       FE
      000000A8H.6 SFRSYM    DATA     BIT       EADC
      000000D1H   SFRSYM    DATA     BYTE      PWMPH
      000000A8H   SFRSYM    DATA     BYTE      IE
      00000096H   SFRSYM    DATA     BYTE      CKSWT
      000000E8H.7 SFRSYM    DATA     BIT       ADCF
      000000FEH   SFRSYM    DATA     BYTE      EIP1
      000000D9H   SFRSYM    DATA     BYTE      PWMPL
      000000E8H   SFRSYM    DATA     BIT       ADCHS0
      000000C7H   SFRSYM    DATA     BYTE      TA
      000000E8H.1 SFRSYM    DATA     BIT       ADCHS1
      000000E8H.2 SFRSYM    DATA     BIT       ADCHS2
      000000E8H.3 SFRSYM    DATA     BIT       ADCHS3
      000000A8H.4 SFRSYM    DATA     BIT       ES
      000000C1H   SFRSYM    DATA     BYTE      I2ADDR
      000000B8H.6 SFRSYM    DATA     BIT       PADC
      000000B8H   SFRSYM    DATA     BYTE      IP
      000000A8H.5 SFRSYM    DATA     BIT       EBOD
      00000098H   SFRSYM    DATA     BIT       RI
      000000F8H.7 SFRSYM    DATA     BIT       FE_1
      000000E8H.6 SFRSYM    DATA     BIT       ADCS
LX51 LINKER/LOCATER V4.66.41.0                                                        03/26/2019  15:13:05  PAGE 93


      000000D0H.7 SFRSYM    DATA     BIT       CY
      000000C0H.3 SFRSYM    DATA     BIT       SI
      000000B0H   SFRSYM    DATA     BIT       INT0
      00000098H.1 SFRSYM    DATA     BIT       TI
      000000D8H.6 SFRSYM    DATA     BIT       LOAD
      00000097H   SFRSYM    DATA     BYTE      CKEN
      000000B8H.4 SFRSYM    DATA     BIT       PS
      00000081H   SFRSYM    DATA     BYTE      SP
      000000D0H.2 SFRSYM    DATA     BIT       OV
      000000B7H   SFRSYM    DATA     BYTE      PWMINTC
      000000B8H.5 SFRSYM    DATA     BIT       PBOD
      000000B2H   SFRSYM    DATA     BYTE      P0SR
      000000F7H   SFRSYM    DATA     BYTE      EIPH
      000000B4H   SFRSYM    DATA     BYTE      P1SR
      000000ADH   SFRSYM    DATA     BYTE      P3SR
      000000F8H   SFRSYM    DATA     BIT       RI_1
      000000F8H.1 SFRSYM    DATA     BIT       TI_1
      000000CBH   SFRSYM    DATA     BYTE      RCMP2H
      000000CFH   SFRSYM    DATA     BYTE      ADCMPH
      00000080H   SFRSYM    DATA     BIT       P00
      00000090H   SFRSYM    DATA     BIT       P10
      00000080H.1 SFRSYM    DATA     BIT       P01
      000000FBH   SFRSYM    DATA     BYTE      PMEN
      00000099H   SFRSYM    DATA     BYTE      SBUF
      00000087H   SFRSYM    DATA     BYTE      PCON
      000000A0H   SFRSYM    DATA     BIT       P20
      00000090H.1 SFRSYM    DATA     BIT       P11
      00000080H.2 SFRSYM    DATA     BIT       P02
      000000CAH   SFRSYM    DATA     BYTE      RCMP2L
      000000B0H   SFRSYM    DATA     BIT       P30
      00000090H.2 SFRSYM    DATA     BIT       P12
      00000080H.3 SFRSYM    DATA     BIT       P03
      000000E3H   SFRSYM    DATA     BYTE      ADCDLY
      000000CEH   SFRSYM    DATA     BYTE      ADCMPL
      00000090H.3 SFRSYM    DATA     BIT       P13
      00000080H.4 SFRSYM    DATA     BIT       P04
      00000098H   SFRSYM    DATA     BYTE      SCON
      00000090H.4 SFRSYM    DATA     BIT       P14
      00000080H.5 SFRSYM    DATA     BIT       P05
      00000089H   SFRSYM    DATA     BYTE      TMOD
      00000088H   SFRSYM    DATA     BYTE      TCON
      00000090H.5 SFRSYM    DATA     BIT       P15
      00000080H.6 SFRSYM    DATA     BIT       P06
      00000090H.6 SFRSYM    DATA     BIT       P16
      00000080H.7 SFRSYM    DATA     BIT       P07
      00000090H.7 SFRSYM    DATA     BIT       P17
      000000F3H   SFRSYM    DATA     BYTE      SPCR
      000000BDH   SFRSYM    DATA     BYTE      I2STAT
      000000F5H   SFRSYM    DATA     BYTE      SPDR
      000000D8H.5 SFRSYM    DATA     BIT       PWMF
      000000E5H   SFRSYM    DATA     BYTE      C0H
      000000E7H   SFRSYM    DATA     BYTE      C1H
      000000EEH   SFRSYM    DATA     BYTE      C2H
      0000009FH   SFRSYM    DATA     BYTE      CHPCON
      00000088H.1 SFRSYM    DATA     BIT       IE0
      00000088H.3 SFRSYM    DATA     BIT       IE1
      000000E4H   SFRSYM    DATA     BYTE      C0L
      00000091H   SFRSYM    DATA     BYTE      SFRS
      000000E6H   SFRSYM    DATA     BYTE      C1L
      000000C8H   SFRSYM    DATA     BIT       CM_RL2
      000000F0H   SFRSYM    DATA     BYTE      B
      000000EDH   SFRSYM    DATA     BYTE      C2L
      0000009AH   SFRSYM    DATA     BYTE      SBUF_1
      000000A5H   SFRSYM    DATA     BYTE      IAPUEN
      000000F8H   SFRSYM    DATA     BYTE      SCON_1
LX51 LINKER/LOCATER V4.66.41.0                                                        03/26/2019  15:13:05  PAGE 94


      000000E0H   SFRSYM    DATA     BYTE      ACC
      000000A8H.1 SFRSYM    DATA     BIT       ET0
      000000F4H   SFRSYM    DATA     BYTE      SPSR
      000000A4H   SFRSYM    DATA     BYTE      IAPTRG
      000000A8H.3 SFRSYM    DATA     BIT       ET1
      00000088H.5 SFRSYM    DATA     BIT       TF0
      00000088H.7 SFRSYM    DATA     BIT       TF1
      000000C8H.7 SFRSYM    DATA     BIT       TF2
      00000098H.2 SFRSYM    DATA     BIT       RB8
      000000D7H   SFRSYM    DATA     BYTE      FBD
      0000008CH   SFRSYM    DATA     BYTE      TH0
      000000A8H   SFRSYM    DATA     BIT       EX0
      00000088H   SFRSYM    DATA     BIT       IT0
      000000C6H   SFRSYM    DATA     BYTE      RH3
      0000008DH   SFRSYM    DATA     BYTE      TH1
      000000A8H.2 SFRSYM    DATA     BIT       EX1
      00000098H.3 SFRSYM    DATA     BIT       TB8
      00000088H.2 SFRSYM    DATA     BIT       IT1
      000000CDH   SFRSYM    DATA     BYTE      TH2
      000000D0H   SFRSYM    DATA     BIT       P
      000000FAH   SFRSYM    DATA     BYTE      PDTCNT
      00000098H.7 SFRSYM    DATA     BIT       SM0
      0000008AH   SFRSYM    DATA     BYTE      TL0
      00000098H.6 SFRSYM    DATA     BIT       SM1
      000000C5H   SFRSYM    DATA     BYTE      RL3
      0000008BH   SFRSYM    DATA     BYTE      TL1
      000000C0H.6 SFRSYM    DATA     BIT       I2CEN
      00000098H.5 SFRSYM    DATA     BIT       SM2
      000000CCH   SFRSYM    DATA     BYTE      TL2
      000000B1H   SFRSYM    DATA     BYTE      P0S
      0000009BH   SFRSYM    DATA     BYTE      EIE
      000000B8H.1 SFRSYM    DATA     BIT       PT0
      000000B3H   SFRSYM    DATA     BYTE      P1S
      000000D0H.3 SFRSYM    DATA     BIT       RS0
      000000B8H.3 SFRSYM    DATA     BIT       PT1
      000000BCH   SFRSYM    DATA     BYTE      I2DAT
      000000B5H   SFRSYM    DATA     BYTE      P2S
      000000D0H.4 SFRSYM    DATA     BIT       RS1
      00000088H.4 SFRSYM    DATA     BIT       TR0
      000000BEH   SFRSYM    DATA     BYTE      I2CLK
      000000ACH   SFRSYM    DATA     BYTE      P3S
      000000D8H.4 SFRSYM    DATA     BIT       CLRPWM
      00000088H.6 SFRSYM    DATA     BIT       TR1
      000000C8H.2 SFRSYM    DATA     BIT       TR2
      000000B8H   SFRSYM    DATA     BIT       PX0
      00000090H.4 SFRSYM    DATA     BIT       SDA
      000000FFH   SFRSYM    DATA     BYTE      EIPH1
      000000B8H.2 SFRSYM    DATA     BIT       PX1
      000000E8H   SFRSYM    DATA     BYTE      ADCCON0
      000000E1H   SFRSYM    DATA     BYTE      ADCCON1
      000000E2H   SFRSYM    DATA     BYTE      ADCCON2
      000000C0H   SFRSYM    DATA     BYTE      I2CON
      00000083H   SFRSYM    DATA     BYTE      DPH
      000000F8H.2 SFRSYM    DATA     BIT       RB8_1
      000000EFH   SFRSYM    DATA     BYTE      EIP
      000000F8H.3 SFRSYM    DATA     BIT       TB8_1
      000000ECH   SFRSYM    DATA     BYTE      PIF
      00000082H   SFRSYM    DATA     BYTE      DPL
      000000F8H.7 SFRSYM    DATA     BIT       SM0_1
      000000FCH   SFRSYM    DATA     BYTE      PMD
      000000B7H   SFRSYM    DATA     BYTE      IPH
      000000F8H.6 SFRSYM    DATA     BIT       SM1_1
      00000090H.3 SFRSYM    DATA     BIT       SCL
      000000BFH   SFRSYM    DATA     BYTE      I2TOC
      000000F8H.5 SFRSYM    DATA     BIT       SM2_1
LX51 LINKER/LOCATER V4.66.41.0                                                        03/26/2019  15:13:05  PAGE 95


      000000C3H   SFRSYM    DATA     BYTE      ADCRH
      000000A7H   SFRSYM    DATA     BYTE      IAPAH
      00000098H.4 SFRSYM    DATA     BIT       REN
      000000AEH   SFRSYM    DATA     BYTE      IAPFD
      00000092H   SFRSYM    DATA     BYTE      CAPCON0
      000000C0H   SFRSYM    DATA     BIT       I2CPX
      000000C9H   SFRSYM    DATA     BYTE      T2MOD
      000000C8H   SFRSYM    DATA     BYTE      T2CON
      000000C2H   SFRSYM    DATA     BYTE      ADCRL
      000000A3H   SFRSYM    DATA     BYTE      BODCON0
      00000093H   SFRSYM    DATA     BYTE      CAPCON1
      000000C0H.5 SFRSYM    DATA     BIT       STA
      000000C4H   SFRSYM    DATA     BYTE      T3CON
      000000ABH   SFRSYM    DATA     BYTE      BODCON1
      000000A6H   SFRSYM    DATA     BYTE      IAPAL
      00000094H   SFRSYM    DATA     BYTE      CAPCON2
      000000F1H   SFRSYM    DATA     BYTE      CAPCON3
      000000F2H   SFRSYM    DATA     BYTE      CAPCON4
      000000D8H.7 SFRSYM    DATA     BIT       PWMRUN
      000000F3H   SFRSYM    DATA     BYTE      SPCR2
      000000B9H   SFRSYM    DATA     BYTE      SADEN
      000000AFH   SFRSYM    DATA     BYTE      IAPCN
      000000D2H   SFRSYM    DATA     BYTE      PWM0H
      000000D6H   SFRSYM    DATA     BYTE      PNP
      000000D3H   SFRSYM    DATA     BYTE      PWM1H
      000000D4H   SFRSYM    DATA     BYTE      PWM2H
      000000A9H   SFRSYM    DATA     BYTE      SADDR
      0000008EH   SFRSYM    DATA     BYTE      CKCON
      000000D5H   SFRSYM    DATA     BYTE      PWM3H
      000000DAH   SFRSYM    DATA     BYTE      PWM0L
      000000C4H   SFRSYM    DATA     BYTE      PWM4H
      000000DBH   SFRSYM    DATA     BYTE      PWM1L
      000000C5H   SFRSYM    DATA     BYTE      PWM5H
      000000A2H   SFRSYM    DATA     BYTE      AUXR1
      00000095H   SFRSYM    DATA     BYTE      CKDIV
      000000DCH   SFRSYM    DATA     BYTE      PWM2L
      000000DDH   SFRSYM    DATA     BYTE      PWM3L
      00000086H   SFRSYM    DATA     BYTE      RWK
      000000D0H.5 SFRSYM    DATA     BIT       F0
      000000CCH   SFRSYM    DATA     BYTE      PWM4L
      000000F8H.4 SFRSYM    DATA     BIT       REN_1
      000000E8H.4 SFRSYM    DATA     BIT       ETGSEL0
      000000C0H.4 SFRSYM    DATA     BIT       STO
      000000CDH   SFRSYM    DATA     BYTE      PWM5L
      000000E8H.5 SFRSYM    DATA     BIT       ETGSEL1
      000000E9H   SFRSYM    DATA     BYTE      PICON
      000000DEH   SFRSYM    DATA     BYTE      PIOCON0
      000000D0H   SFRSYM    DATA     BYTE      PSW
      000000EAH   SFRSYM    DATA     BYTE      PINEN
      000000C6H   SFRSYM    DATA     BYTE      PIOCON1
      000000F9H   SFRSYM    DATA     BYTE      PDTEN
      000000AAH   SFRSYM    DATA     BYTE      WDCON
      000000EBH   SFRSYM    DATA     BYTE      PIPEN
      000000BAH   SFRSYM    DATA     BYTE      SADEN_1
      01003F80H   SYMBOL    CODE     ---       pwm_disable
      01003F95H   SYMBOL    CODE     ---       curve_get_duration
      01003F7FH   SYMBOL    CODE     ---       pwm_enable
      01003F57H   SYMBOL    CODE     ---       motion_time_left
      01003F9EH   SYMBOL    CODE     ---       curve_get_p0
      01003FADH   SYMBOL    CODE     ---       curve_get_p1
      01003F83H   SYMBOL    CODE     ---       curve_get_t0
      01003F8CH   SYMBOL    CODE     ---       curve_get_t1
      01003FBCH   SYMBOL    CODE     ---       curve_get_v0
      01003FCBH   SYMBOL    CODE     ---       curve_get_v1

LX51 LINKER/LOCATER V4.66.41.0                                                        03/26/2019  15:13:05  PAGE 96


      01003F57H   BLOCK     CODE     ---       LVL=0
      01003F57H   LINE      ---      ---       #28
      01003F57H   LINE      ---      ---       #31
      01003F57H   LINE      ---      ---       #34
      01003F7EH   LINE      ---      ---       #35
      ---         BLOCKEND  ---      ---       LVL=0

      01003F7FH   BLOCK     CODE     ---       LVL=0
      01003F7FH   LINE      ---      ---       #40
      01003F7FH   LINE      ---      ---       #41
      01003F7FH   LINE      ---      ---       #46
      ---         BLOCKEND  ---      ---       LVL=0

      01003F80H   BLOCK     CODE     ---       LVL=0
      01003F80H   LINE      ---      ---       #49
      01003F80H   LINE      ---      ---       #50
      01003F80H   LINE      ---      ---       #57
      ---         BLOCKEND  ---      ---       LVL=0

      01003F83H   BLOCK     CODE     ---       LVL=0
      01003F83H   LINE      ---      ---       #48
      ---         BLOCKEND  ---      ---       LVL=0

      01003F8CH   BLOCK     CODE     ---       LVL=0
      01003F8CH   LINE      ---      ---       #49
      ---         BLOCKEND  ---      ---       LVL=0

      01003F95H   BLOCK     CODE     ---       LVL=0
      01003F95H   LINE      ---      ---       #50
      ---         BLOCKEND  ---      ---       LVL=0

      01003F9EH   BLOCK     CODE     ---       LVL=0
      01003F9EH   LINE      ---      ---       #51
      ---         BLOCKEND  ---      ---       LVL=0

      01003FADH   BLOCK     CODE     ---       LVL=0
      01003FADH   LINE      ---      ---       #52
      ---         BLOCKEND  ---      ---       LVL=0

      01003FBCH   BLOCK     CODE     ---       LVL=0
      01003FBCH   LINE      ---      ---       #53
      ---         BLOCKEND  ---      ---       LVL=0

      01003FCBH   BLOCK     CODE     ---       LVL=0
      01003FCBH   LINE      ---      ---       #54
      ---         BLOCKEND  ---      ---       LVL=0

      01003FDAH   BLOCK     CODE     ---       LVL=0
      01003FDAH   LINE      ---      ---       #3
      01003FE0H   LINE      ---      ---       #4
      01003FE0H   LINE      ---      ---       #5
      01003FE6H   LINE      ---      ---       #6
      01003FECH   LINE      ---      ---       #8
      01003FEFH   LINE      ---      ---       #9
      01003FF2H   LINE      ---      ---       #10
      01003FF5H   LINE      ---      ---       #11
      01003FF8H   LINE      ---      ---       #12
      01004027H   LINE      ---      ---       #13
      01004053H   LINE      ---      ---       #15
      01004056H   LINE      ---      ---       #16
      02000267H   SYMBOL    XDATA    DWORD     Baudrate
      ---         BLOCKEND  ---      ---       LVL=0

      01004057H   BLOCK     CODE     ---       LVL=0
      01004057H   LINE      ---      ---       #17
LX51 LINKER/LOCATER V4.66.41.0                                                        03/26/2019  15:13:05  PAGE 97


      01004057H   LINE      ---      ---       #18
      01004057H   BLOCK     CODE     NEAR LAB  LVL=1
      01004057H   LINE      ---      ---       #21
      0100405AH   LINE      ---      ---       #22
      0100405CH   LINE      ---      ---       #23
      0100405EH   LINE      ---      ---       #24
      0100405EH   LINE      ---      ---       #25
      00000007H   SYMBOL    DATA     BYTE      c
      ---         BLOCKEND  CODE     ---       LVL=1
      ---         BLOCKEND  CODE     ---       LVL=0

      0100405FH   BLOCK     CODE     ---       LVL=0
      0100405FH   LINE      ---      ---       #27
      0100405FH   LINE      ---      ---       #28
      0100405FH   LINE      ---      ---       #29
      01004061H   LINE      ---      ---       #30
      01004063H   LINE      ---      ---       #31
      01004066H   LINE      ---      ---       #32
      00000007H   SYMBOL    DATA     BYTE      Data
      ---         BLOCKEND  ---      ---       LVL=0

      01004067H   BLOCK     CODE     ---       LVL=0
      01004067H   LINE      ---      ---       #33
      0100406BH   LINE      ---      ---       #34
      0100406BH   LINE      ---      ---       #35
      0100406DH   LINE      ---      ---       #36
      01004070H   LINE      ---      ---       #37
      01004073H   LINE      ---      ---       #38
      01004075H   LINE      ---      ---       #39
      01004079H   LINE      ---      ---       #40
      0100407CH   LINE      ---      ---       #41
      00000004H   SYMBOL    DATA     WORD      Data
      ---         BLOCKEND  ---      ---       LVL=0

      0100407DH   BLOCK     CODE     ---       LVL=0
      0100407DH   LINE      ---      ---       #43
      01004083H   LINE      ---      ---       #44
      01004083H   LINE      ---      ---       #50
      01004085H   LINE      ---      ---       #51
      010040B4H   LINE      ---      ---       #52
      010040E0H   LINE      ---      ---       #54
      010040E3H   LINE      ---      ---       #55
      020001E9H   SYMBOL    XDATA    DWORD     Baudrate
      ---         BLOCKEND  ---      ---       LVL=0

      010040E4H   BLOCK     CODE     ---       LVL=0
      010040E4H   LINE      ---      ---       #57
      010040E4H   LINE      ---      ---       #58
      010040E4H   LINE      ---      ---       #59
      010040E6H   LINE      ---      ---       #60
      010040E8H   LINE      ---      ---       #61
      010040EBH   LINE      ---      ---       #62
      00000007H   SYMBOL    DATA     BYTE      Data
      ---         BLOCKEND  ---      ---       LVL=0

      01003DFBH   BLOCK     CODE     ---       LVL=0
      01003DFBH   LINE      ---      ---       #63
      01003DFFH   LINE      ---      ---       #64
      01003DFFH   LINE      ---      ---       #65
      01003E01H   LINE      ---      ---       #66
      01003E04H   LINE      ---      ---       #67
      01003E07H   LINE      ---      ---       #68
      01003E09H   LINE      ---      ---       #69
      01003E0DH   LINE      ---      ---       #70
      01003E10H   LINE      ---      ---       #71
LX51 LINKER/LOCATER V4.66.41.0                                                        03/26/2019  15:13:05  PAGE 98


      00000004H   SYMBOL    DATA     WORD      Data
      ---         BLOCKEND  ---      ---       LVL=0

      ---         MODULE    ---      ---       LT8920
      0200022EH   PUBLIC    XDATA    BYTE      RegL
      0200022DH   PUBLIC    XDATA    BYTE      RegH
      0200020DH   PUBLIC    XDATA    ---       RBUF
      0200020CH   PUBLIC    XDATA    BYTE      index_state
      0100111DH   PUBLIC    CODE     ---       RF_STAK
      01001311H   PUBLIC    CODE     ---       LT8900_Init
      01001407H   PUBLIC    CODE     ---       _SPI_ReadReg
      010012B3H   PUBLIC    CODE     ---       _SPI_WriteReg
      000000F6H   SFRSYM    DATA     BYTE      AINDIDS
      000000B1H   SFRSYM    DATA     BYTE      P0M1
      000000B3H   SFRSYM    DATA     BYTE      P1M1
      000000B2H   SFRSYM    DATA     BYTE      P0M2
      00000080H   SFRSYM    DATA     BYTE      P0
      000000BBH   SFRSYM    DATA     BYTE      SADDR_1
      000000B4H   SFRSYM    DATA     BYTE      P1M2
      00000090H   SFRSYM    DATA     BYTE      P1
      000000C0H.2 SFRSYM    DATA     BIT       AA
      000000ACH   SFRSYM    DATA     BYTE      P3M1
      000000A0H   SFRSYM    DATA     BYTE      P2
      000000B0H   SFRSYM    DATA     BYTE      P3
      000000ADH   SFRSYM    DATA     BYTE      P3M2
      000000D0H.6 SFRSYM    DATA     BIT       AC
      0000008FH   SFRSYM    DATA     BYTE      WKCON
      0000009CH   SFRSYM    DATA     BYTE      EIE1
      000000A8H.7 SFRSYM    DATA     BIT       EA
      000000D8H   SFRSYM    DATA     BYTE      PWMCON0
      000000DFH   SFRSYM    DATA     BYTE      PWMCON1
      00000098H.7 SFRSYM    DATA     BIT       FE
      000000A8H.6 SFRSYM    DATA     BIT       EADC
      000000D1H   SFRSYM    DATA     BYTE      PWMPH
      000000A8H   SFRSYM    DATA     BYTE      IE
      00000096H   SFRSYM    DATA     BYTE      CKSWT
      000000E8H.7 SFRSYM    DATA     BIT       ADCF
      000000FEH   SFRSYM    DATA     BYTE      EIP1
      000000D9H   SFRSYM    DATA     BYTE      PWMPL
      000000E8H   SFRSYM    DATA     BIT       ADCHS0
      000000C7H   SFRSYM    DATA     BYTE      TA
      000000E8H.1 SFRSYM    DATA     BIT       ADCHS1
      000000E8H.2 SFRSYM    DATA     BIT       ADCHS2
      000000E8H.3 SFRSYM    DATA     BIT       ADCHS3
      000000A8H.4 SFRSYM    DATA     BIT       ES
      000000C1H   SFRSYM    DATA     BYTE      I2ADDR
      000000B8H.6 SFRSYM    DATA     BIT       PADC
      000000B8H   SFRSYM    DATA     BYTE      IP
      000000A8H.5 SFRSYM    DATA     BIT       EBOD
      00000098H   SFRSYM    DATA     BIT       RI
      000000F8H.7 SFRSYM    DATA     BIT       FE_1
      000000E8H.6 SFRSYM    DATA     BIT       ADCS
      000000D0H.7 SFRSYM    DATA     BIT       CY
      000000C0H.3 SFRSYM    DATA     BIT       SI
      000000B0H   SFRSYM    DATA     BIT       INT0
      00000098H.1 SFRSYM    DATA     BIT       TI
      000000D8H.6 SFRSYM    DATA     BIT       LOAD
      00000097H   SFRSYM    DATA     BYTE      CKEN
      000000B8H.4 SFRSYM    DATA     BIT       PS
      00000081H   SFRSYM    DATA     BYTE      SP
      000000D0H.2 SFRSYM    DATA     BIT       OV
      000000B7H   SFRSYM    DATA     BYTE      PWMINTC
      000000B8H.5 SFRSYM    DATA     BIT       PBOD
      000000B2H   SFRSYM    DATA     BYTE      P0SR
      000000F7H   SFRSYM    DATA     BYTE      EIPH
LX51 LINKER/LOCATER V4.66.41.0                                                        03/26/2019  15:13:05  PAGE 99


      000000B4H   SFRSYM    DATA     BYTE      P1SR
      000000ADH   SFRSYM    DATA     BYTE      P3SR
      000000F8H   SFRSYM    DATA     BIT       RI_1
      000000F8H.1 SFRSYM    DATA     BIT       TI_1
      000000CBH   SFRSYM    DATA     BYTE      RCMP2H
      000000CFH   SFRSYM    DATA     BYTE      ADCMPH
      00000080H   SFRSYM    DATA     BIT       P00
      00000090H   SFRSYM    DATA     BIT       P10
      00000080H.1 SFRSYM    DATA     BIT       P01
      000000FBH   SFRSYM    DATA     BYTE      PMEN
      00000099H   SFRSYM    DATA     BYTE      SBUF
      00000087H   SFRSYM    DATA     BYTE      PCON
      000000A0H   SFRSYM    DATA     BIT       P20
      00000090H.1 SFRSYM    DATA     BIT       P11
      00000080H.2 SFRSYM    DATA     BIT       P02
      000000CAH   SFRSYM    DATA     BYTE      RCMP2L
      000000B0H   SFRSYM    DATA     BIT       P30
      00000090H.2 SFRSYM    DATA     BIT       P12
      00000080H.3 SFRSYM    DATA     BIT       P03
      000000E3H   SFRSYM    DATA     BYTE      ADCDLY
      000000CEH   SFRSYM    DATA     BYTE      ADCMPL
      00000090H.3 SFRSYM    DATA     BIT       P13
      00000080H.4 SFRSYM    DATA     BIT       P04
      00000098H   SFRSYM    DATA     BYTE      SCON
      00000090H.4 SFRSYM    DATA     BIT       P14
      00000080H.5 SFRSYM    DATA     BIT       P05
      00000089H   SFRSYM    DATA     BYTE      TMOD
      00000088H   SFRSYM    DATA     BYTE      TCON
      00000090H.5 SFRSYM    DATA     BIT       P15
      00000080H.6 SFRSYM    DATA     BIT       P06
      00000090H.6 SFRSYM    DATA     BIT       P16
      00000080H.7 SFRSYM    DATA     BIT       P07
      00000090H.7 SFRSYM    DATA     BIT       P17
      000000F3H   SFRSYM    DATA     BYTE      SPCR
      000000BDH   SFRSYM    DATA     BYTE      I2STAT
      000000F5H   SFRSYM    DATA     BYTE      SPDR
      000000D8H.5 SFRSYM    DATA     BIT       PWMF
      000000E5H   SFRSYM    DATA     BYTE      C0H
      000000E7H   SFRSYM    DATA     BYTE      C1H
      000000EEH   SFRSYM    DATA     BYTE      C2H
      0000009FH   SFRSYM    DATA     BYTE      CHPCON
      00000088H.1 SFRSYM    DATA     BIT       IE0
      00000088H.3 SFRSYM    DATA     BIT       IE1
      000000E4H   SFRSYM    DATA     BYTE      C0L
      00000091H   SFRSYM    DATA     BYTE      SFRS
      000000E6H   SFRSYM    DATA     BYTE      C1L
      000000C8H   SFRSYM    DATA     BIT       CM_RL2
      000000F0H   SFRSYM    DATA     BYTE      B
      000000EDH   SFRSYM    DATA     BYTE      C2L
      0000009AH   SFRSYM    DATA     BYTE      SBUF_1
      000000A5H   SFRSYM    DATA     BYTE      IAPUEN
      000000F8H   SFRSYM    DATA     BYTE      SCON_1
      000000E0H   SFRSYM    DATA     BYTE      ACC
      000000A8H.1 SFRSYM    DATA     BIT       ET0
      000000F4H   SFRSYM    DATA     BYTE      SPSR
      000000A4H   SFRSYM    DATA     BYTE      IAPTRG
      000000A8H.3 SFRSYM    DATA     BIT       ET1
      00000088H.5 SFRSYM    DATA     BIT       TF0
      00000088H.7 SFRSYM    DATA     BIT       TF1
      000000C8H.7 SFRSYM    DATA     BIT       TF2
      00000098H.2 SFRSYM    DATA     BIT       RB8
      000000D7H   SFRSYM    DATA     BYTE      FBD
      0000008CH   SFRSYM    DATA     BYTE      TH0
      000000A8H   SFRSYM    DATA     BIT       EX0
      00000088H   SFRSYM    DATA     BIT       IT0
LX51 LINKER/LOCATER V4.66.41.0                                                        03/26/2019  15:13:05  PAGE 100


      000000C6H   SFRSYM    DATA     BYTE      RH3
      0000008DH   SFRSYM    DATA     BYTE      TH1
      000000A8H.2 SFRSYM    DATA     BIT       EX1
      00000098H.3 SFRSYM    DATA     BIT       TB8
      00000088H.2 SFRSYM    DATA     BIT       IT1
      000000CDH   SFRSYM    DATA     BYTE      TH2
      000000D0H   SFRSYM    DATA     BIT       P
      000000FAH   SFRSYM    DATA     BYTE      PDTCNT
      00000098H.7 SFRSYM    DATA     BIT       SM0
      0000008AH   SFRSYM    DATA     BYTE      TL0
      00000098H.6 SFRSYM    DATA     BIT       SM1
      000000C5H   SFRSYM    DATA     BYTE      RL3
      0000008BH   SFRSYM    DATA     BYTE      TL1
      000000C0H.6 SFRSYM    DATA     BIT       I2CEN
      00000098H.5 SFRSYM    DATA     BIT       SM2
      000000CCH   SFRSYM    DATA     BYTE      TL2
      000000B1H   SFRSYM    DATA     BYTE      P0S
      0000009BH   SFRSYM    DATA     BYTE      EIE
      000000B8H.1 SFRSYM    DATA     BIT       PT0
      000000B3H   SFRSYM    DATA     BYTE      P1S
      000000D0H.3 SFRSYM    DATA     BIT       RS0
      000000B8H.3 SFRSYM    DATA     BIT       PT1
      000000BCH   SFRSYM    DATA     BYTE      I2DAT
      000000B5H   SFRSYM    DATA     BYTE      P2S
      000000D0H.4 SFRSYM    DATA     BIT       RS1
      00000088H.4 SFRSYM    DATA     BIT       TR0
      000000BEH   SFRSYM    DATA     BYTE      I2CLK
      000000ACH   SFRSYM    DATA     BYTE      P3S
      000000D8H.4 SFRSYM    DATA     BIT       CLRPWM
      00000088H.6 SFRSYM    DATA     BIT       TR1
      000000C8H.2 SFRSYM    DATA     BIT       TR2
      000000B8H   SFRSYM    DATA     BIT       PX0
      00000090H.4 SFRSYM    DATA     BIT       SDA
      000000FFH   SFRSYM    DATA     BYTE      EIPH1
      000000B8H.2 SFRSYM    DATA     BIT       PX1
      000000E8H   SFRSYM    DATA     BYTE      ADCCON0
      000000E1H   SFRSYM    DATA     BYTE      ADCCON1
      000000E2H   SFRSYM    DATA     BYTE      ADCCON2
      000000C0H   SFRSYM    DATA     BYTE      I2CON
      00000083H   SFRSYM    DATA     BYTE      DPH
      000000F8H.2 SFRSYM    DATA     BIT       RB8_1
      000000EFH   SFRSYM    DATA     BYTE      EIP
      000000F8H.3 SFRSYM    DATA     BIT       TB8_1
      000000ECH   SFRSYM    DATA     BYTE      PIF
      00000082H   SFRSYM    DATA     BYTE      DPL
      000000F8H.7 SFRSYM    DATA     BIT       SM0_1
      000000FCH   SFRSYM    DATA     BYTE      PMD
      000000B7H   SFRSYM    DATA     BYTE      IPH
      000000F8H.6 SFRSYM    DATA     BIT       SM1_1
      00000090H.3 SFRSYM    DATA     BIT       SCL
      000000BFH   SFRSYM    DATA     BYTE      I2TOC
      000000F8H.5 SFRSYM    DATA     BIT       SM2_1
      000000C3H   SFRSYM    DATA     BYTE      ADCRH
      000000A7H   SFRSYM    DATA     BYTE      IAPAH
      00000098H.4 SFRSYM    DATA     BIT       REN
      000000AEH   SFRSYM    DATA     BYTE      IAPFD
      00000092H   SFRSYM    DATA     BYTE      CAPCON0
      000000C0H   SFRSYM    DATA     BIT       I2CPX
      000000C9H   SFRSYM    DATA     BYTE      T2MOD
      000000C8H   SFRSYM    DATA     BYTE      T2CON
      000000C2H   SFRSYM    DATA     BYTE      ADCRL
      000000A3H   SFRSYM    DATA     BYTE      BODCON0
      00000093H   SFRSYM    DATA     BYTE      CAPCON1
      000000C0H.5 SFRSYM    DATA     BIT       STA
      000000C4H   SFRSYM    DATA     BYTE      T3CON
LX51 LINKER/LOCATER V4.66.41.0                                                        03/26/2019  15:13:05  PAGE 101


      000000ABH   SFRSYM    DATA     BYTE      BODCON1
      000000A6H   SFRSYM    DATA     BYTE      IAPAL
      00000094H   SFRSYM    DATA     BYTE      CAPCON2
      000000F1H   SFRSYM    DATA     BYTE      CAPCON3
      000000F2H   SFRSYM    DATA     BYTE      CAPCON4
      000000D8H.7 SFRSYM    DATA     BIT       PWMRUN
      000000F3H   SFRSYM    DATA     BYTE      SPCR2
      000000B9H   SFRSYM    DATA     BYTE      SADEN
      000000AFH   SFRSYM    DATA     BYTE      IAPCN
      000000D2H   SFRSYM    DATA     BYTE      PWM0H
      000000D6H   SFRSYM    DATA     BYTE      PNP
      000000D3H   SFRSYM    DATA     BYTE      PWM1H
      000000D4H   SFRSYM    DATA     BYTE      PWM2H
      000000A9H   SFRSYM    DATA     BYTE      SADDR
      0000008EH   SFRSYM    DATA     BYTE      CKCON
      000000D5H   SFRSYM    DATA     BYTE      PWM3H
      000000DAH   SFRSYM    DATA     BYTE      PWM0L
      000000C4H   SFRSYM    DATA     BYTE      PWM4H
      000000DBH   SFRSYM    DATA     BYTE      PWM1L
      000000C5H   SFRSYM    DATA     BYTE      PWM5H
      000000A2H   SFRSYM    DATA     BYTE      AUXR1
      00000095H   SFRSYM    DATA     BYTE      CKDIV
      000000DCH   SFRSYM    DATA     BYTE      PWM2L
      000000DDH   SFRSYM    DATA     BYTE      PWM3L
      00000086H   SFRSYM    DATA     BYTE      RWK
      000000D0H.5 SFRSYM    DATA     BIT       F0
      000000CCH   SFRSYM    DATA     BYTE      PWM4L
      000000F8H.4 SFRSYM    DATA     BIT       REN_1
      000000E8H.4 SFRSYM    DATA     BIT       ETGSEL0
      000000C0H.4 SFRSYM    DATA     BIT       STO
      000000CDH   SFRSYM    DATA     BYTE      PWM5L
      000000E8H.5 SFRSYM    DATA     BIT       ETGSEL1
      000000E9H   SFRSYM    DATA     BYTE      PICON
      000000DEH   SFRSYM    DATA     BYTE      PIOCON0
      000000D0H   SFRSYM    DATA     BYTE      PSW
      000000EAH   SFRSYM    DATA     BYTE      PINEN
      000000C6H   SFRSYM    DATA     BYTE      PIOCON1
      000000F9H   SFRSYM    DATA     BYTE      PDTEN
      000000AAH   SFRSYM    DATA     BYTE      WDCON
      000000EBH   SFRSYM    DATA     BYTE      PIPEN
      000000BAH   SFRSYM    DATA     BYTE      SADEN_1
      01004115H   SYMBOL    CODE     ---       pwm_disable
      0100412AH   SYMBOL    CODE     ---       curve_get_duration
      01004114H   SYMBOL    CODE     ---       pwm_enable
      010040ECH   SYMBOL    CODE     ---       motion_time_left
      01004133H   SYMBOL    CODE     ---       curve_get_p0
      01004142H   SYMBOL    CODE     ---       curve_get_p1
      01004118H   SYMBOL    CODE     ---       curve_get_t0
      01004121H   SYMBOL    CODE     ---       curve_get_t1
      01004151H   SYMBOL    CODE     ---       curve_get_v0
      01004160H   SYMBOL    CODE     ---       curve_get_v1

      010040ECH   BLOCK     CODE     ---       LVL=0
      010040ECH   LINE      ---      ---       #28
      010040ECH   LINE      ---      ---       #31
      010040ECH   LINE      ---      ---       #34
      01004113H   LINE      ---      ---       #35
      ---         BLOCKEND  ---      ---       LVL=0

      01004114H   BLOCK     CODE     ---       LVL=0
      01004114H   LINE      ---      ---       #40
      01004114H   LINE      ---      ---       #41
      01004114H   LINE      ---      ---       #46
      ---         BLOCKEND  ---      ---       LVL=0

LX51 LINKER/LOCATER V4.66.41.0                                                        03/26/2019  15:13:05  PAGE 102


      01004115H   BLOCK     CODE     ---       LVL=0
      01004115H   LINE      ---      ---       #49
      01004115H   LINE      ---      ---       #50
      01004115H   LINE      ---      ---       #57
      ---         BLOCKEND  ---      ---       LVL=0

      01004118H   BLOCK     CODE     ---       LVL=0
      01004118H   LINE      ---      ---       #48
      ---         BLOCKEND  ---      ---       LVL=0

      01004121H   BLOCK     CODE     ---       LVL=0
      01004121H   LINE      ---      ---       #49
      ---         BLOCKEND  ---      ---       LVL=0

      0100412AH   BLOCK     CODE     ---       LVL=0
      0100412AH   LINE      ---      ---       #50
      ---         BLOCKEND  ---      ---       LVL=0

      01004133H   BLOCK     CODE     ---       LVL=0
      01004133H   LINE      ---      ---       #51
      ---         BLOCKEND  ---      ---       LVL=0

      01004142H   BLOCK     CODE     ---       LVL=0
      01004142H   LINE      ---      ---       #52
      ---         BLOCKEND  ---      ---       LVL=0

      01004151H   BLOCK     CODE     ---       LVL=0
      01004151H   LINE      ---      ---       #53
      ---         BLOCKEND  ---      ---       LVL=0

      01004160H   BLOCK     CODE     ---       LVL=0
      01004160H   LINE      ---      ---       #54
      ---         BLOCKEND  ---      ---       LVL=0

      010012B3H   BLOCK     CODE     ---       LVL=0
      010012B3H   LINE      ---      ---       #21
      010012BAH   LINE      ---      ---       #22
      020001EBH   SYMBOL    XDATA    BYTE      addr
      00000001H   SYMBOL    DATA     BYTE      H
      00000003H   SYMBOL    DATA     BYTE      L
      010012BAH   BLOCK     CODE     NEAR LAB  LVL=1
      010012BAH   LINE      ---      ---       #25
      010012BCH   LINE      ---      ---       #27
      010012BFH   LINE      ---      ---       #28
      010012BFH   LINE      ---      ---       #29
      010012C7H   LINE      ---      ---       #31
      010012C9H   LINE      ---      ---       #32
      010012CBH   LINE      ---      ---       #34
      010012CFH   LINE      ---      ---       #35
      010012DAH   LINE      ---      ---       #37
      010012DDH   LINE      ---      ---       #38
      010012DDH   LINE      ---      ---       #40
      010012E1H   LINE      ---      ---       #41
      010012E3H   LINE      ---      ---       #42
      010012E5H   LINE      ---      ---       #44
      010012E9H   LINE      ---      ---       #45
      010012F4H   LINE      ---      ---       #47
      010012F7H   LINE      ---      ---       #48
      010012F7H   LINE      ---      ---       #49
      010012FBH   LINE      ---      ---       #51
      010012FDH   LINE      ---      ---       #52
      010012FFH   LINE      ---      ---       #54
      01001303H   LINE      ---      ---       #55
      0100130EH   LINE      ---      ---       #57
      01001310H   LINE      ---      ---       #58
LX51 LINKER/LOCATER V4.66.41.0                                                        03/26/2019  15:13:05  PAGE 103


      00000006H   SYMBOL    DATA     INT       i
      ---         BLOCKEND  CODE     ---       LVL=1
      ---         BLOCKEND  CODE     ---       LVL=0

      01001407H   BLOCK     CODE     ---       LVL=0
      01001407H   LINE      ---      ---       #61
      01001407H   LINE      ---      ---       #62
      00000007H   SYMBOL    DATA     BYTE      addr
      01001407H   BLOCK     CODE     NEAR LAB  LVL=1
      01001407H   LINE      ---      ---       #65
      01001409H   LINE      ---      ---       #66
      0100140DH   LINE      ---      ---       #68
      01001410H   LINE      ---      ---       #69
      01001410H   LINE      ---      ---       #70
      01001414H   LINE      ---      ---       #72
      01001416H   LINE      ---      ---       #73
      01001418H   LINE      ---      ---       #75
      0100141CH   LINE      ---      ---       #76
      01001427H   LINE      ---      ---       #78
      0100142AH   LINE      ---      ---       #79
      0100142AH   LINE      ---      ---       #80
      0100142CH   LINE      ---      ---       #81
      0100142EH   LINE      ---      ---       #83
      01001437H   LINE      ---      ---       #84
      0100143DH   LINE      ---      ---       #85
      01001448H   LINE      ---      ---       #89
      0100144BH   LINE      ---      ---       #90
      0100144BH   LINE      ---      ---       #91
      0100144DH   LINE      ---      ---       #92
      0100144FH   LINE      ---      ---       #94
      01001458H   LINE      ---      ---       #95
      0100145EH   LINE      ---      ---       #96
      01001469H   LINE      ---      ---       #98
      0100146BH   LINE      ---      ---       #99
      00000002H   SYMBOL    DATA     INT       i
      ---         BLOCKEND  CODE     ---       LVL=1
      ---         BLOCKEND  CODE     ---       LVL=0

      01001311H   BLOCK     CODE     ---       LVL=0
      01001311H   LINE      ---      ---       #106
      01001311H   LINE      ---      ---       #107
      01001311H   LINE      ---      ---       #115
      01001319H   LINE      ---      ---       #116
      01001321H   LINE      ---      ---       #117
      01001329H   LINE      ---      ---       #118
      01001331H   LINE      ---      ---       #119
      01001339H   LINE      ---      ---       #120
      01001340H   LINE      ---      ---       #121
      01001348H   LINE      ---      ---       #122
      01001350H   LINE      ---      ---       #123
      01001358H   LINE      ---      ---       #124
      01001360H   LINE      ---      ---       #125
      01001367H   LINE      ---      ---       #126
      0100136FH   LINE      ---      ---       #127
      01001377H   LINE      ---      ---       #128
      0100137FH   LINE      ---      ---       #129
      01001387H   LINE      ---      ---       #130
      0100138FH   LINE      ---      ---       #131
      01001397H   LINE      ---      ---       #132
      0100139FH   LINE      ---      ---       #133
      010013A7H   LINE      ---      ---       #134
      010013AFH   LINE      ---      ---       #135
      010013B7H   LINE      ---      ---       #136
      010013BFH   LINE      ---      ---       #137
      010013C7H   LINE      ---      ---       #139
LX51 LINKER/LOCATER V4.66.41.0                                                        03/26/2019  15:13:05  PAGE 104


      010013CFH   LINE      ---      ---       #140
      010013D7H   LINE      ---      ---       #141
      010013DFH   LINE      ---      ---       #142
      010013E7H   LINE      ---      ---       #144
      010013EFH   LINE      ---      ---       #146
      010013F7H   LINE      ---      ---       #151
      010013FFH   LINE      ---      ---       #154
      ---         BLOCKEND  ---      ---       LVL=0

      0100111DH   BLOCK     CODE     ---       LVL=0
      0100111DH   LINE      ---      ---       #207
      0100111DH   LINE      ---      ---       #208
      0100111DH   BLOCK     CODE     NEAR LAB  LVL=1
      0100111FH   LINE      ---      ---       #209
      01001124H   LINE      ---      ---       #217
      01001128H   LINE      ---      ---       #218
      01001128H   LINE      ---      ---       #219
      01001128H   LINE      ---      ---       #225
      01001128H   LINE      ---      ---       #227
      0100112DH   LINE      ---      ---       #229
      0100112DH   LINE      ---      ---       #230
      0100112DH   LINE      ---      ---       #256
      0100112FH   LINE      ---      ---       #257
      01001136H   LINE      ---      ---       #258
      0100113EH   LINE      ---      ---       #259
      01001141H   LINE      ---      ---       #261
      01001141H   LINE      ---      ---       #262
      01001154H   LINE      ---      ---       #263
      01001154H   LINE      ---      ---       #264
      01001154H   LINE      ---      ---       #266
      0100115CH   LINE      ---      ---       #267
      01001164H   LINE      ---      ---       #268
      01001169H   LINE      ---      ---       #269
      0100116BH   LINE      ---      ---       #270
      0100116BH   LINE      ---      ---       #272
      0100116FH   LINE      ---      ---       #273
      01001179H   LINE      ---      ---       #274
      0100117DH   LINE      ---      ---       #276
      0100117FH   LINE      ---      ---       #277
      01001182H   LINE      ---      ---       #278
      01001182H   LINE      ---      ---       #279
      01001187H   LINE      ---      ---       #280
      0100118BH   LINE      ---      ---       #281
      01001190H   LINE      ---      ---       #282
      01001198H   LINE      ---      ---       #283
      01001198H   LINE      ---      ---       #285
      0100119CH   LINE      ---      ---       #286
      010011B4H   LINE      ---      ---       #287
      010011CCH   LINE      ---      ---       #288
      010011D3H   LINE      ---      ---       #289
      010011D5H   LINE      ---      ---       #290
      010011D7H   LINE      ---      ---       #293
      010011DBH   LINE      ---      ---       #294
      010011E2H   LINE      ---      ---       #295
      010011E2H   LINE      ---      ---       #297
      010011EAH   LINE      ---      ---       #298
      010011EAH   LINE      ---      ---       #299
      010011ECH   LINE      ---      ---       #300
      010011F1H   LINE      ---      ---       #301
      010011F3H   LINE      ---      ---       #302
      010011F7H   LINE      ---      ---       #303
      010011F7H   LINE      ---      ---       #304
      010011F9H   LINE      ---      ---       #305
      010011FEH   LINE      ---      ---       #306
      010011FEH   LINE      ---      ---       #307
LX51 LINKER/LOCATER V4.66.41.0                                                        03/26/2019  15:13:05  PAGE 105


      010011FEH   LINE      ---      ---       #309
      01001204H   LINE      ---      ---       #311
      01001204H   LINE      ---      ---       #312
      01001206H   LINE      ---      ---       #314
      01001206H   LINE      ---      ---       #316
      0100120EH   LINE      ---      ---       #319
      01001216H   LINE      ---      ---       #321
      0100121EH   LINE      ---      ---       #323
      01001226H   LINE      ---      ---       #325
      01001229H   LINE      ---      ---       #326
      0100122DH   LINE      ---      ---       #327
      01001237H   LINE      ---      ---       #328
      0100123BH   LINE      ---      ---       #330
      0100123FH   LINE      ---      ---       #332
      01001243H   LINE      ---      ---       #333
      0100124BH   LINE      ---      ---       #334
      0100124BH   LINE      ---      ---       #335
      0100124DH   LINE      ---      ---       #336
      01001251H   LINE      ---      ---       #337
      01001251H   LINE      ---      ---       #339
      01001257H   LINE      ---      ---       #340
      01001259H   LINE      ---      ---       #342
      01001259H   LINE      ---      ---       #344
      01001261H   LINE      ---      ---       #345
      01001266H   LINE      ---      ---       #347
      0100126DH   LINE      ---      ---       #349
      01001275H   LINE      ---      ---       #351
      0100127DH   LINE      ---      ---       #353
      01001280H   LINE      ---      ---       #354
      01001284H   LINE      ---      ---       #355
      0100128EH   LINE      ---      ---       #356
      01001292H   LINE      ---      ---       #358
      01001296H   LINE      ---      ---       #360
      0100129AH   LINE      ---      ---       #361
      010012A2H   LINE      ---      ---       #362
      010012A2H   LINE      ---      ---       #363
      010012A4H   LINE      ---      ---       #364
      010012A8H   LINE      ---      ---       #365
      010012A8H   LINE      ---      ---       #367
      010012AEH   LINE      ---      ---       #368
      010012B0H   LINE      ---      ---       #370
      010012B0H   LINE      ---      ---       #371
      010012B0H   LINE      ---      ---       #373
      00000021H.7 SYMBOL    BIT      BIT       PKT
      020001E9H   SYMBOL    XDATA    BYTE      count
      020001EAH   SYMBOL    XDATA    BYTE      i
      00000006H   SYMBOL    DATA     BYTE      j
      ---         BLOCKEND  CODE     ---       LVL=1
      ---         BLOCKEND  CODE     ---       LVL=0

      ---         MODULE    ---      ---       ?C?FPADD
      01000065H   PUBLIC    CODE     ---       ?C?FPADD
      01000061H   PUBLIC    CODE     ---       ?C?FPSUB

      ---         MODULE    ---      ---       ?C?FPMUL
      01000156H   PUBLIC    CODE     ---       ?C?FPMUL

      ---         MODULE    ---      ---       ?C?FPDIV
      0100025FH   PUBLIC    CODE     ---       ?C?FPDIV

      ---         MODULE    ---      ---       ?C?FPCMP
      010002FEH   PUBLIC    CODE     ---       ?C?FPCMP
      010002FCH   PUBLIC    CODE     ---       ?C?FPCMP3

      ---         MODULE    ---      ---       ?C?FPNEG
LX51 LINKER/LOCATER V4.66.41.0                                                        03/26/2019  15:13:05  PAGE 106


      01000375H   PUBLIC    CODE     ---       ?C?FPNEG

      ---         MODULE    ---      ---       ?C?FCAST
      01000390H   PUBLIC    CODE     ---       ?C?FCASTC
      0100038BH   PUBLIC    CODE     ---       ?C?FCASTI
      01000386H   PUBLIC    CODE     ---       ?C?FCASTL

      ---         MODULE    ---      ---       ?C?CASTF
      010003C4H   PUBLIC    CODE     ---       ?C?CASTF

      ---         MODULE    ---      ---       ?C?FPGETOPN
      010003FBH   PUBLIC    CODE     ---       ?C?FPGETOPN2
      01000430H   PUBLIC    CODE     ---       ?C?FPNANRESULT
      0100043AH   PUBLIC    CODE     ---       ?C?FPOVERFLOW
      01000412H   PUBLIC    CODE     ---       ?C?FPRESULT
      01000426H   PUBLIC    CODE     ---       ?C?FPRESULT2
      01000437H   PUBLIC    CODE     ---       ?C?FPUNDERFLOW

      ---         MODULE    ---      ---       ?C_INIT
      01000BB5H   PUBLIC    CODE     ---       ?C_START

      ---         MODULE    ---      ---       ?C?COPY
      01000515H   PUBLIC    CODE     ---       ?C?COPY

      ---         MODULE    ---      ---       ?C?CLDPTR
      0100053BH   PUBLIC    CODE     ---       ?C?CLDPTR

      ---         MODULE    ---      ---       ?C?CLDOPTR
      01000554H   PUBLIC    CODE     ---       ?C?CLDOPTR

      ---         MODULE    ---      ---       ?C?CILDPTR
      01000581H   PUBLIC    CODE     ---       ?C?CILDPTR

      ---         MODULE    ---      ---       ?C?CSTPTR
      010005A3H   PUBLIC    CODE     ---       ?C?CSTPTR

      ---         MODULE    ---      ---       ?C?CSTOPTR
      010005B5H   PUBLIC    CODE     ---       ?C?CSTOPTR

      ---         MODULE    ---      ---       ?C?IMUL
      010005D7H   PUBLIC    CODE     ---       ?C?IMUL

      ---         MODULE    ---      ---       ?C?SIDIV
      010005E9H   PUBLIC    CODE     ---       ?C?SIDIV

      ---         MODULE    ---      ---       ?C?ILDIX
      0100061FH   PUBLIC    CODE     ---       ?C?ILDIX

      ---         MODULE    ---      ---       ?C?ILDOPTR
      01000635H   PUBLIC    CODE     ---       ?C?ILDOPTR

      ---         MODULE    ---      ---       ?C?ISTOPTR
      0100066DH   PUBLIC    CODE     ---       ?C?ISTOPTR

      ---         MODULE    ---      ---       ?C?LMUL
      0100069AH   PUBLIC    CODE     ---       ?C?LMUL

      ---         MODULE    ---      ---       ?C?ULDIV
      01000725H   PUBLIC    CODE     ---       ?C?ULDIV

      ---         MODULE    ---      ---       ?C?SLDIV
      01000BFAH   PUBLIC    CODE     ---       ?C?SLDIV

      ---         MODULE    ---      ---       ?C?LNEG
      010007B7H   PUBLIC    CODE     ---       ?C?LNEG
LX51 LINKER/LOCATER V4.66.41.0                                                        03/26/2019  15:13:05  PAGE 107



      ---         MODULE    ---      ---       ?C?SLCMP
      010007C5H   PUBLIC    CODE     ---       ?C?SLCMP

      ---         MODULE    ---      ---       ?C?ULCMP
      010007DBH   PUBLIC    CODE     ---       ?C?ULCMP

      ---         MODULE    ---      ---       ?C?ULSHR
      010007ECH   PUBLIC    CODE     ---       ?C?ULSHR

      ---         MODULE    ---      ---       ?C?SLSHR
      010007FFH   PUBLIC    CODE     ---       ?C?SLSHR

      ---         MODULE    ---      ---       ?C?LSHL
      01000813H   PUBLIC    CODE     ---       ?C?LSHL

      ---         MODULE    ---      ---       ?C?LLDPTR
      01000826H   PUBLIC    CODE     ---       ?C?LLDPTR

      ---         MODULE    ---      ---       ?C?LLDOPTR
      01000846H   PUBLIC    CODE     ---       ?C?LLDOPTR

      ---         MODULE    ---      ---       ?C?LSTPTR
      01000876H   PUBLIC    CODE     ---       ?C?LSTPTR

      ---         MODULE    ---      ---       ?C?LLDCODE
      01000890H   PUBLIC    CODE     ---       ?C?LLDCODE

      ---         MODULE    ---      ---       ?C?LLDPTR0
      010008A0H   PUBLIC    CODE     ---       ?C?LLDPTR0

      ---         MODULE    ---      ---       ?C?LSTXDATA
      010008C0H   PUBLIC    CODE     ---       ?C?LSTXDATA

      ---         MODULE    ---      ---       ?C?LSTKXDATA
      010008CCH   PUBLIC    CODE     ---       ?C?LSTKXDATA

      ---         MODULE    ---      ---       ?C?LSTKOPTR
      010008FDH   PUBLIC    CODE     ---       ?C?LSTKOPTR

      ---         MODULE    ---      ---       ?C?LIMUL
      01000921H   PUBLIC    CODE     ---       ?C?LIMUL

      ---         MODULE    ---      ---       ?C?UIDIV
      0100094EH   PUBLIC    CODE     ---       ?C?UIDIV

      ---         MODULE    ---      ---       ?C?LLDIDATA
      010009A3H   PUBLIC    CODE     ---       ?C?LLDIDATA

      ---         MODULE    ---      ---       ?C?LLDXDATA
      010009AFH   PUBLIC    CODE     ---       ?C?LLDXDATA

      ---         MODULE    ---      ---       ?C?LLDPDATA
      010009BBH   PUBLIC    CODE     ---       ?C?LLDPDATA

      ---         MODULE    ---      ---       ?C?LLDIDATA0
      010009C7H   PUBLIC    CODE     ---       ?C?LLDIDATA0

      ---         MODULE    ---      ---       ?C?LLDXDATA0
      010009D4H   PUBLIC    CODE     ---       ?C?LLDXDATA0

      ---         MODULE    ---      ---       ?C?LLDPDATA0
      010009E0H   PUBLIC    CODE     ---       ?C?LLDPDATA0

      ---         MODULE    ---      ---       ?C?LLDCODE0
LX51 LINKER/LOCATER V4.66.41.0                                                        03/26/2019  15:13:05  PAGE 108


      010009EDH   PUBLIC    CODE     ---       ?C?LLDCODE0

      ---         MODULE    ---      ---       ?C?LSTIDATA
      010009FDH   PUBLIC    CODE     ---       ?C?LSTIDATA

      ---         MODULE    ---      ---       ?C?LSTPDATA
      01000A09H   PUBLIC    CODE     ---       ?C?LSTPDATA

      ---         MODULE    ---      ---       ?C?LSTKIDATA
      01000A15H   PUBLIC    CODE     ---       ?C?LSTKIDATA

      ---         MODULE    ---      ---       ?C?LSTKPDATA
      01000A2EH   PUBLIC    CODE     ---       ?C?LSTKPDATA



*** WARNING L57: UNCALLED FUNCTION, IGNORED FOR OVERLAY PROCESS
    NAME:    SWITCHTOTXMODE/BK2421_INITIALIZE

*** WARNING L57: UNCALLED FUNCTION, IGNORED FOR OVERLAY PROCESS
    NAME:    _SETCHANNELNUM/BK2421_INITIALIZE

*** WARNING L57: UNCALLED FUNCTION, IGNORED FOR OVERLAY PROCESS
    NAME:    _EEPROM_READ_BLOCK/EEPROM

*** WARNING L57: UNCALLED FUNCTION, IGNORED FOR OVERLAY PROCESS
    NAME:    EEPROM_ERASE/EEPROM

*** WARNING L57: UNCALLED FUNCTION, IGNORED FOR OVERLAY PROCESS
    NAME:    EEPROM_RESTORE_REGISTERS/EEPROM

*** WARNING L57: UNCALLED FUNCTION, IGNORED FOR OVERLAY PROCESS
    NAME:    EEPROM_SAVE_REGISTERS/EEPROM

*** WARNING L57: UNCALLED FUNCTION, IGNORED FOR OVERLAY PROCESS
    NAME:    MOTION_BUFFER_LEFT/MOTION

*** WARNING L57: UNCALLED FUNCTION, IGNORED FOR OVERLAY PROCESS
    NAME:    _INITIALUART0_TIMER3/UART

*** WARNING L57: UNCALLED FUNCTION, IGNORED FOR OVERLAY PROCESS
    NAME:    RECEIVE_DATA_FROM_UART0/UART

*** WARNING L57: UNCALLED FUNCTION, IGNORED FOR OVERLAY PROCESS
    NAME:    _SEND_DATA_TO_UART0/UART

*** WARNING L57: UNCALLED FUNCTION, IGNORED FOR OVERLAY PROCESS
    NAME:    _SEND_WORD_TO_UART0/UART

*** WARNING L57: UNCALLED FUNCTION, IGNORED FOR OVERLAY PROCESS
    NAME:    _SEND_DATA_TO_UART1/UART

*** WARNING L57: UNCALLED FUNCTION, IGNORED FOR OVERLAY PROCESS
    NAME:    LT8900_INIT/LT8920

Program Size: data=11.0 xdata=623 const=123 code=16628
LX51 RUN COMPLETE.  13 WARNING(S),  0 ERROR(S)
