LX51 LINKER/LOCATER V4.66.1.0                                                           10/28/2019  14:49:17  PAGE 1


LX51 LINKER/LOCATER V4.66.1.0, INVOKED BY:
C:\KEIL_V5\C51\BIN\LX51.EXE ..\Output\STARTUP.obj, ..\Output\System.obj, ..\Output\main.obj, ..\Output\adc.obj, ..\Outpu
>> t\eeprom.obj, ..\Output\i2c_software.obj, ..\Output\registers.obj, ..\Output\SC7A21.obj, ..\Output\UART.obj, ..\Outpu
>> t\Work.obj, ..\Output\SL_SC7A21_Application.obj, ..\Output\SL_Sc7a21_Driver.obj TO ..\Output\LED_12T PRINT (..\LST\LE
>> D_12T.map) DISABLEWARNING (16)


CPU MODE:     8051 MODE
MEMORY MODEL: LARGE


INPUT MODULES INCLUDED:
  ..\Output\STARTUP.obj (?C_STARTUP)
         COMMENT TYPE 1: A51 / ASM51 Assembler
  ..\Output\System.obj (SYSTEM)
         COMMENT TYPE 0: C51 V9.52.0.0
  ..\Output\main.obj (MAIN)
         COMMENT TYPE 0: C51 V9.52.0.0
  ..\Output\adc.obj (ADC)
         COMMENT TYPE 0: C51 V9.52.0.0
  ..\Output\eeprom.obj (EEPROM)
         COMMENT TYPE 0: C51 V9.52.0.0
  ..\Output\i2c_software.obj (I2C_SOFTWARE)
         COMMENT TYPE 0: C51 V9.52.0.0
  ..\Output\registers.obj (REGISTERS)
         COMMENT TYPE 0: C51 V9.52.0.0
  ..\Output\SC7A21.obj (SC7A21)
         COMMENT TYPE 0: C51 V9.52.0.0
  ..\Output\UART.obj (UART)
         COMMENT TYPE 0: C51 V9.52.0.0
  ..\Output\Work.obj (WORK)
         COMMENT TYPE 0: C51 V9.52.0.0
  ..\Output\SL_SC7A21_Application.obj (SL_SC7A21_APPLICATION)
         COMMENT TYPE 0: C51 V9.52.0.0
  ..\Output\SL_Sc7a21_Driver.obj (SL_SC7A21_DRIVER)
         COMMENT TYPE 0: C51 V9.52.0.0
  C:\KEIL_V5\C51\LIB\C51L.LIB (?C_INIT)
         COMMENT TYPE 1: A51 / ASM51 Assembler
  C:\KEIL_V5\C51\LIB\C51L.LIB (?C?COPY)
         COMMENT TYPE 1: A51 / ASM51 Assembler
  C:\KEIL_V5\C51\LIB\C51L.LIB (?C?CLDPTR)
         COMMENT TYPE 1: A51 / ASM51 Assembler
  C:\KEIL_V5\C51\LIB\C51L.LIB (?C?CLDOPTR)
         COMMENT TYPE 1: A51 / ASM51 Assembler
  C:\KEIL_V5\C51\LIB\C51L.LIB (?C?CSTPTR)
         COMMENT TYPE 1: A51 / ASM51 Assembler
  C:\KEIL_V5\C51\LIB\C51L.LIB (?C?CSTOPTR)
         COMMENT TYPE 1: A51 / ASM51 Assembler
  C:\KEIL_V5\C51\LIB\C51L.LIB (?C?IMUL)
         COMMENT TYPE 1: A51 / ASM51 Assembler
  C:\KEIL_V5\C51\LIB\C51L.LIB (?C?ILDIX)
         COMMENT TYPE 1: A51 / ASM51 Assembler
  C:\KEIL_V5\C51\LIB\C51L.LIB (?C?ILDOPTR)
         COMMENT TYPE 1: A51 / ASM51 Assembler
  C:\KEIL_V5\C51\LIB\C51L.LIB (?C?ISTPTR)
         COMMENT TYPE 1: A51 / ASM51 Assembler
  C:\KEIL_V5\C51\LIB\C51L.LIB (?C?ISTOPTR)
         COMMENT TYPE 1: A51 / ASM51 Assembler
  C:\KEIL_V5\C51\LIB\C51L.LIB (?C?ULDIV)
         COMMENT TYPE 1: A51 / ASM51 Assembler
  C:\KEIL_V5\C51\LIB\C51L.LIB (?C?ULSHR)
         COMMENT TYPE 1: A51 / ASM51 Assembler
  C:\KEIL_V5\C51\LIB\C51L.LIB (?C?LSTXDATA)
         COMMENT TYPE 1: A51 / ASM51 Assembler


LX51 LINKER/LOCATER V4.66.1.0                                                         10/28/2019  14:49:17  PAGE 2


ACTIVE MEMORY CLASSES OF MODULE:  ..\Output\LED_12T (?C_STARTUP)

BASE        START       END         USED      MEMORY CLASS
==========================================================
C:000000H   C:000000H   C:00FFFFH   002210H   CODE
I:000000H   I:000000H   I:0000FFH   000001H   IDATA
X:000000H   X:000000H   X:00FFFFH   00033BH   XDATA
I:000020H.0 I:000020H.0 I:00002FH.7 000000H.3 BIT
C:000000H   C:000000H   C:00FFFFH   00005BH   CONST
I:000000H   I:000000H   I:00007FH   000008H   DATA


MEMORY MAP OF MODULE:  ..\Output\LED_12T (?C_STARTUP)


START     STOP      LENGTH    ALIGN  RELOC    MEMORY CLASS   SEGMENT NAME
=========================================================================

* * * * * * * * * * *   D A T A   M E M O R Y   * * * * * * * * * * * * *
000000H   000007H   000008H   ---    AT..     DATA           "REG BANK 0"
000008H.0 00001FH.7 000018H.0 ---    ---      **GAP**
000020H.0 000020H.0 000000H.1 BIT    UNIT     BIT            ?BI?SYSTEM
000020H.1 000020H.1 000000H.1 BIT    UNIT     BIT            ?BI?MAIN
000020H.2 000020H.2 000000H.1 BIT    UNIT     BIT            ?BI?WORK
000020H.3 000020H   000000H.5 ---    ---      **GAP**
000021H   000021H   000001H   BYTE   UNIT     IDATA          ?STACK

* * * * * * * * * * *   C O D E   M E M O R Y   * * * * * * * * * * * * *
000000H   000002H   000003H   ---    OFFS..   CODE           ?CO??C_STARTUP?0
000003H   000005H   000003H   BYTE   OFFS..   CODE           ?SYSTEM?00003
000006H   000008H   000003H   BYTE   UNIT     CODE           ?PR?SL_OPEN_SC7A21_CLICK_TIMER?MAIN
000009H   000009H   000001H   BYTE   UNIT     CODE           ?PR?I2CS_INIT?I2C_SOFTWARE
00000AH   00000AH   000001H   ---    ---      **GAP**
00000BH   00000DH   000003H   BYTE   OFFS..   CODE           ?SYSTEM?0000B
00000EH   000010H   000003H   BYTE   UNIT     CODE           ?PR?TIMER2_ISR?SYSTEM
000011H   000012H   000002H   ---    ---      **GAP**
000013H   000015H   000003H   BYTE   OFFS..   CODE           ?SYSTEM?00013
000016H   000018H   000003H   BYTE   UNIT     CODE           ?PR?SL_CLOSE_SC7A21_CLICK_TIMER?MAIN
000019H   00001AH   000002H   ---    ---      **GAP**
00001BH   00001DH   000003H   BYTE   OFFS..   CODE           ?SYSTEM?0001B
00001EH   00002AH   00000DH   BYTE   UNIT     CONST          ?CO?WORK
00002BH   00002CH   000002H   BYTE   OFFS..   CODE           ?SYSTEM?0002B
00002DH   000034H   000008H   BYTE   UNIT     CODE           ?PR?_SEND_DATA_TO_UART0?UART
000035H   000037H   000003H   BYTE   UNIT     CODE           ?PR?READEEPROM?WORK
000038H   00003AH   000003H   ---    ---      **GAP**
00003BH   00003DH   000003H   BYTE   OFFS..   CODE           ?SYSTEM?0003B
00003EH   000051H   000014H   BYTE   UNIT     CONST          ?CO?SL_SC7A21_APPLICATION
000052H   00005AH   000009H   BYTE   UNIT     CODE           ?PR?INIT_EXT0_INTERRUPT?SYSTEM
00005BH   00005DH   000003H   BYTE   OFFS..   CODE           ?ADC?0005B
00005EH   00006CH   00000FH   BYTE   UNIT     CODE           ?PR?DELAY300MS?SYSTEM
00006DH   00007EH   000012H   BYTE   UNIT     CODE           ?PR?SYSTIMER_PROCESS?SYSTEM
00007FH   000087H   000009H   BYTE   UNIT     CODE           ?PR?SL_SC7A21_WRIST_INT12_SERVICE_FUNCTION?SL_SC7A21_APPLI
                                                             -CATION
000088H   00008AH   000003H   ---    ---      **GAP**
00008BH   00008DH   000003H   BYTE   OFFS..   CODE           ?SYSTEM?0008B
00008EH   000396H   000309H   BYTE   UNIT     CODE           ?C?LIB_CODE
000397H   000430H   00009AH   BYTE   UNIT     CODE           ?C_C51STARTUP
000431H   0004C7H   000097H   BYTE   UNIT     CODE           ?C_INITSEG
0004C8H   000501H   00003AH   BYTE   UNIT     CONST          ?CO?SC7A21
000502H   000535H   000034H   BYTE   UNIT     CODE           ?PR?SYSTICK_HANDLER2?SYSTEM
000536H   000591H   00005CH   BYTE   UNIT     CODE           ?PR?INITSYSTEM?SYSTEM
000592H   000649H   0000B8H   BYTE   UNIT     CODE           ?PR?MAIN?MAIN
00064AH   000789H   000140H   BYTE   UNIT     CODE           ?PR?_ANO_DT_SEND_VERSION?UART
00078AH   0007B4H   00002BH   BYTE   UNIT     CODE           ?PR?_UARTSENDBUF?UART
0007B5H   000821H   00006DH   BYTE   UNIT     CODE           ?PR?SYSTICK_HANDLER?SYSTEM
LX51 LINKER/LOCATER V4.66.1.0                                                         10/28/2019  14:49:17  PAGE 3


000822H   000837H   000016H   BYTE   UNIT     CODE           ?PR?TIMER0INIT?SYSTEM
000838H   000844H   00000DH   BYTE   UNIT     CODE           ?PR?TIMER1INIT?SYSTEM
000845H   000880H   00003CH   BYTE   UNIT     CODE           ?PR?EXT0_ISR?SYSTEM
000881H   0008BCH   00003CH   BYTE   UNIT     CODE           ?PR?SL_SC7A21_CLICK_SERVICE?SL_SC7A21_APPLICATION
0008BDH   000B49H   00028DH   BYTE   UNIT     CODE           ?PR?_SL_SC7A21_CLICK_ALGO?SL_SC7A21_DRIVER
000B4AH   000C40H   0000F7H   BYTE   UNIT     CODE           ?PR?_SL_SC7A21_READ_XYZ_FIFO_DATA?SL_SC7A21_DRIVER
000C41H   000C5DH   00001DH   BYTE   UNIT     CODE           ?PR?_SL_SC7A21_I2C_SPI_READ?I2C_SOFTWARE
000C5EH   000D5FH   000102H   BYTE   UNIT     CODE           ?PR?_SL_SC7A21_FIFO_CONFIG?SL_SC7A21_DRIVER
000D60H   000D7BH   00001CH   BYTE   UNIT     CODE           ?PR?_SL_SC7A21_I2C_SPI_WRITE?I2C_SOFTWARE
000D7CH   000E42H   0000C7H   BYTE   UNIT     CODE           ?PR?_SL_SC7A21_SINGLE_CLICK_CONFIG?SL_SC7A21_DRIVER
000E43H   000F02H   0000C0H   BYTE   UNIT     CODE           ?PR?_SL_SC7A21_POWER_CONFIG?SL_SC7A21_DRIVER
000F03H   000FA7H   0000A5H   BYTE   UNIT     CODE           ?PR?_SL_SC7A21_PEDO_CONFIG?SL_SC7A21_DRIVER
000FA8H   000FD4H   00002DH   BYTE   UNIT     CODE           ?PR?SL_SC7A21_PEDO_RESET?SL_SC7A21_DRIVER
000FD5H   000FF3H   00001FH   BYTE   UNIT     CODE           ?PR?_SL_SC7A21_SLEEP_CONFIG?SL_SC7A21_DRIVER
000FF4H   001021H   00002EH   BYTE   UNIT     CODE           ?PR?TIMER0_ISR?SYSTEM
001022H   00105EH   00003DH   BYTE   UNIT     CODE           ?PR?EXT1_ISR?SYSTEM
00105FH   001068H   00000AH   BYTE   UNIT     CODE           ?PR?TIMER1_ISR?SYSTEM
001069H   001122H   0000BAH   BYTE   UNIT     CODE           ?PR?EXT_IO_ISR?SYSTEM
001123H   00112BH   000009H   BYTE   UNIT     CODE           ?PR?ADC_INIT?ADC
00112CH   001174H   000049H   BYTE   UNIT     CODE           ?PR?_ADC_READ?ADC
001175H   0011AEH   00003AH   BYTE   UNIT     CODE           ?PR?WKT_ISR?SYSTEM
0011AFH   0011F5H   000047H   BYTE   UNIT     CODE           ?PR?SCAN_LED1?WORK
0011F6H   001212H   00001DH   BYTE   UNIT     CODE           ?PR?INIT_IO?SYSTEM
001213H   001285H   000073H   BYTE   UNIT     CODE           ?PR?SET_SYSTEM_FRE_10K?SYSTEM
001286H   0012F8H   000073H   BYTE   UNIT     CODE           ?PR?SET_SYSTEM_FRE_16M?SYSTEM
0012F9H   001304H   00000CH   BYTE   UNIT     CODE           ?PR?INIT_WKT?SYSTEM
001305H   001310H   00000CH   BYTE   UNIT     CODE           ?PR?INIT_EXT_IO_INTERRUPT?SYSTEM
001311H   001319H   000009H   BYTE   UNIT     CODE           ?PR?INIT_EXT1_INTERRUPT?SYSTEM
00131AH   001321H   000008H   BYTE   UNIT     CODE           ?PR?ADC_GO?ADC
001322H   001361H   000040H   BYTE   UNIT     CODE           ?PR?ADC_ISR?ADC
001362H   001374H   000013H   BYTE   UNIT     CODE           ?PR?ISP_DIS?EEPROM
001375H   001392H   00001EH   BYTE   UNIT     CODE           ?PR?_ERASE?EEPROM
001393H   0013B1H   00001FH   BYTE   UNIT     CODE           ?PR?_WRITE_ISP?EEPROM
0013B2H   0013C4H   000013H   BYTE   UNIT     CODE           ?PR?ISP_OPEN?EEPROM
0013C5H   0013EEH   00002AH   BYTE   UNIT     CODE           ?PR?_WRITEDATA_ISP?EEPROM
0013EFH   001447H   000059H   BYTE   UNIT     CODE           ?PR?_WRITEROM?EEPROM
001448H   001450H   000009H   BYTE   UNIT     CODE           ?PR?EEPROM_ERASE?EEPROM
001451H   00145AH   00000AH   BYTE   UNIT     CODE           ?PR?WRITEEEPROM?WORK
00145BH   001464H   00000AH   BYTE   UNIT     CODE           ?PR?PARAMETERRESET?WORK
001465H   0014D6H   000072H   BYTE   UNIT     CODE           ?PR?_READROM?EEPROM
0014D7H   0014F8H   000022H   BYTE   UNIT     CODE           ?PR?_READDATA_ISP?EEPROM
0014F9H   001500H   000008H   BYTE   UNIT     CODE           ?PR?_READ_APROM_BYTE?EEPROM
001501H   001522H   000022H   BYTE   UNIT     CODE           ?PR?EEPROM_RESTORE_REGISTERS?EEPROM
001523H   001542H   000020H   BYTE   UNIT     CODE           ?PR?EEPROM_SAVE_REGISTERS?EEPROM
001543H   00159EH   00005CH   BYTE   UNIT     CODE           ?PR?_EEPROM_WRITE_BLOCK?EEPROM
00159FH   0015FAH   00005CH   BYTE   UNIT     CODE           ?PR?_EEPROM_READ_BLOCK?EEPROM
0015FBH   00161CH   000022H   BYTE   UNIT     CODE           ?PR?_EEPROM_CHECKSUM?EEPROM
00161DH   001627H   00000BH   BYTE   UNIT     CODE           ?PR?_DELAY?I2C_SOFTWARE
001628H   001634H   00000DH   BYTE   UNIT     CODE           ?PR?I2CS_STOP?I2C_SOFTWARE
001635H   0016A9H   000075H   BYTE   UNIT     CODE           ?PR?_I2CS_TX_DATA?I2C_SOFTWARE
0016AAH   001736H   00008DH   BYTE   UNIT     CODE           ?PR?_I2CS_RX_DATA?I2C_SOFTWARE
001737H   00176DH   000037H   BYTE   UNIT     CODE           ?PR?_I2CS_TX_BYTE?I2C_SOFTWARE
00176EH   001782H   000015H   BYTE   UNIT     CODE           ?PR?I2CS_START?I2C_SOFTWARE
001783H   0017C8H   000046H   BYTE   UNIT     CODE           ?PR?_I2CS_RX_BYTE?I2C_SOFTWARE
0017C9H   0017F3H   00002BH   BYTE   UNIT     CODE           ?PR?CLEAN_STEP_COUNTER?SC7A21
0017F4H   00183EH   00004BH   BYTE   UNIT     CODE           ?PR?INIT_SC7A21?SC7A21
00183FH   001851H   000013H   BYTE   UNIT     CODE           ?PR?READ_STEP_COUNTER?SC7A21
001852H   0018C8H   000077H   BYTE   UNIT     CODE           ?PR?_INITIALUART0_TIMER3?UART
0018C9H   0018D0H   000008H   BYTE   UNIT     CODE           ?PR?RECEIVE_DATA_FROM_UART0?UART
0018D1H   0018E6H   000016H   BYTE   UNIT     CODE           ?PR?_SEND_WORD_TO_UART0?UART
0018E7H   00194DH   000067H   BYTE   UNIT     CODE           ?PR?_INITIALUART1_TIMER3?UART
00194EH   001955H   000008H   BYTE   UNIT     CODE           ?PR?_SEND_DATA_TO_UART1?UART
001956H   00196BH   000016H   BYTE   UNIT     CODE           ?PR?_SEND_WORD_TO_UART1?UART
00196CH   001B87H   00021CH   BYTE   UNIT     CODE           ?PR?SCAN_LED?WORK
001B88H   001BCBH   000044H   BYTE   UNIT     CODE           ?PR?LED_CTRL?WORK
LX51 LINKER/LOCATER V4.66.1.0                                                         10/28/2019  14:49:17  PAGE 4


001BCCH   001C87H   0000BCH   BYTE   UNIT     CODE           ?PR?SL_SC7A21_INIT?SL_SC7A21_APPLICATION
001C88H   001CBBH   000034H   BYTE   UNIT     CODE           ?PR?_SL_SC7A21_INT_CONFIG?SL_SC7A21_DRIVER
001CBCH   001D16H   00005BH   BYTE   UNIT     CODE           ?PR?_SL_SC7A21_ONLINE_TEST?SL_SC7A21_DRIVER
001D17H   001D72H   00005CH   BYTE   UNIT     CODE           ?PR?_SL_SC7A21_FS_CONFIG?SL_SC7A21_DRIVER
001D73H   001DF7H   000085H   BYTE   UNIT     CODE           ?PR?_SL_SC7A21_WRIST_CONFIG?SL_SC7A21_DRIVER
001DF8H   001E63H   00006CH   BYTE   UNIT     CODE           ?PR?SL_SC7A21_GET_SLEEP_VALUE?SL_SC7A21_APPLICATION
001E64H   001EC1H   00005EH   BYTE   UNIT     CODE           ?PR?SL_SC7A21_GET_PEDO_VALUE?SL_SC7A21_APPLICATION
001EC2H   001EDEH   00001DH   BYTE   UNIT     CODE           ?PR?SL_SC7A21_GET_SLEEP_STATUS?SL_SC7A21_DRIVER
001EDFH   001F40H   000062H   BYTE   UNIT     CODE           ?PR?SL_SC7A21_GET_PEDO_COUNT?SL_SC7A21_DRIVER
001F41H   002007H   0000C7H   BYTE   UNIT     CODE           ?PR?SL_SC7A21_CLICK_TIMER_CNT?SL_SC7A21_APPLICATION
002008H   00205EH   000057H   BYTE   UNIT     CODE           ?PR?SL_SC7A21_BOOT_RESET?SL_SC7A21_DRIVER
00205FH   002102H   0000A4H   BYTE   UNIT     CODE           ?PR?_SL_SC7A21_READ_XYZ_DATA?SL_SC7A21_DRIVER
002103H   002178H   000076H   BYTE   UNIT     CODE           ?PR?SL_SC7A21_GET_WRIST_STATUS?SL_SC7A21_DRIVER
002179H   002268H   0000F0H   BYTE   UNIT     CODE           ?PR?_SL_CLICK_SQRT?SL_SC7A21_DRIVER
002269H   002275H   00000DH   BYTE   UNIT     CODE           ?PR?_SL_GET_CLICK_PP_CNT?SL_SC7A21_DRIVER

* * * * * * * * * * *  X D A T A   M E M O R Y  * * * * * * * * * * * * *
000000H   000261H   000262H   BYTE   UNIT     XDATA          _XDATA_GROUP_
000262H   0002A1H   000040H   BYTE   UNIT     XDATA          ?XD?SC7A21
0002A2H   0002C3H   000022H   BYTE   UNIT     XDATA          ?XD?WORK
0002C4H   0002D7H   000014H   BYTE   UNIT     XDATA          ?XD?UART
0002D8H   0002E8H   000011H   BYTE   UNIT     XDATA          ?XD?SL_SC7A21_APPLICATION
0002E9H   0002F8H   000010H   BYTE   UNIT     XDATA          ?XD?SYSTEM
0002F9H   000301H   000009H   BYTE   UNIT     XDATA          ?XD?_SL_SC7A21_READ_XYZ_DATA?SL_SC7A21_DRIVER
000302H   000308H   000007H   BYTE   UNIT     XDATA          ?XD?_EEPROM_READ_BLOCK?EEPROM
000309H   00030FH   000007H   BYTE   UNIT     XDATA          ?XD?_EEPROM_WRITE_BLOCK?EEPROM
000310H   000315H   000006H   BYTE   UNIT     XDATA          ?XD?_READROM?EEPROM
000316H   00031BH   000006H   BYTE   UNIT     XDATA          ?XD?_EEPROM_CHECKSUM?EEPROM
00031CH   000320H   000005H   BYTE   UNIT     XDATA          ?XD?ADC
000321H   000325H   000005H   BYTE   UNIT     XDATA          ?XD?_WRITEROM?EEPROM
000326H   00032AH   000005H   BYTE   UNIT     XDATA          ?XD?SL_SC7A21_DRIVER
00032BH   00032EH   000004H   BYTE   UNIT     XDATA          ?XD?_WRITEDATA_ISP?EEPROM
00032FH   000332H   000004H   BYTE   UNIT     XDATA          ?XD?_INITIALUART1_TIMER3?UART
000333H   000334H   000002H   BYTE   UNIT     XDATA          ?XD?EEPROM_RESTORE_REGISTERS?EEPROM
000335H   000336H   000002H   BYTE   UNIT     XDATA          ?XD?EEPROM_SAVE_REGISTERS?EEPROM
000337H   000338H   000002H   BYTE   UNIT     XDATA          ?XD?INIT_SC7A21?SC7A21
000339H   000339H   000001H   BYTE   UNIT     XDATA          ?XD?CLEAN_STEP_COUNTER?SC7A21
00033AH   00033AH   000001H   BYTE   UNIT     XDATA          ?XD?SL_SC7A21_BOOT_RESET?SL_SC7A21_DRIVER



OVERLAY MAP OF MODULE:   ..\Output\LED_12T (?C_STARTUP)


FUNCTION/MODULE                               XDATA_GROUP
--> CALLED FUNCTION/MODULE                    START  STOP
=========================================================
?C_C51STARTUP                                 ----- -----
  +--> MAIN/MAIN
  +--> ?C_INITSEG

MAIN/MAIN                                     0000H 0006H
  +--> INITSYSTEM/SYSTEM
  +--> SYSTIMER_PROCESS/SYSTEM
  +--> _SL_SC7A21_READ_XYZ_FIFO_DATA/SL_SC7A21_DRIVER
  +--> _ANO_DT_SEND_VERSION/UART
  +--> SL_SC7A21_CLICK_TIMER_CNT/SL_SC7A21_APPLICATION
  +--> SL_SC7A21_GET_PEDO_VALUE/SL_SC7A21_APPLICATION

INITSYSTEM/SYSTEM                             0007H 000AH
  +--> INIT_IO/SYSTEM
  +--> DELAY300MS/SYSTEM
  +--> SL_SC7A21_INIT/SL_SC7A21_APPLICATION
  +--> ADC_INIT/ADC
  +--> _INITIALUART0_TIMER3/UART
LX51 LINKER/LOCATER V4.66.1.0                                                         10/28/2019  14:49:17  PAGE 5


  +--> INIT_EXT0_INTERRUPT/SYSTEM
  +--> INIT_EXT1_INTERRUPT/SYSTEM
  +--> INIT_EXT_IO_INTERRUPT/SYSTEM
  +--> INIT_WKT/SYSTEM
  +--> SET_SYSTEM_FRE_10K/SYSTEM
  +--> LED_CTRL/WORK

INIT_IO/SYSTEM                                ----- -----

DELAY300MS/SYSTEM                             ----- -----

SL_SC7A21_INIT/SL_SC7A21_APPLICATION          000BH 0020H
  +--> ?CO?SL_SC7A21_APPLICATION
  +--> _SL_SC7A21_ONLINE_TEST/SL_SC7A21_DRIVER
  +--> _SL_SC7A21_FS_CONFIG/SL_SC7A21_DRIVER
  +--> _SL_SC7A21_POWER_CONFIG/SL_SC7A21_DRIVER
  +--> _SL_SC7A21_FIFO_CONFIG/SL_SC7A21_DRIVER
  +--> _SL_SC7A21_INT_CONFIG/SL_SC7A21_DRIVER
  +--> _SL_SC7A21_PEDO_CONFIG/SL_SC7A21_DRIVER
  +--> _SL_SC7A21_WRIST_CONFIG/SL_SC7A21_DRIVER
  +--> _SL_SC7A21_SLEEP_CONFIG/SL_SC7A21_DRIVER
  +--> _SL_SC7A21_SINGLE_CLICK_CONFIG/SL_SC7A21_DRIVER

?CO?SL_SC7A21_APPLICATION                     ----- -----

_SL_SC7A21_ONLINE_TEST/SL_SC7A21_DRIVER       0021H 0022H
  +--> _SL_SC7A21_I2C_SPI_READ/I2C_SOFTWARE
  +--> _SL_SC7A21_I2C_SPI_WRITE/I2C_SOFTWARE

_SL_SC7A21_I2C_SPI_READ/I2C_SOFTWARE          0253H 0258H
  +--> _I2CS_RX_DATA/I2C_SOFTWARE

_I2CS_RX_DATA/I2C_SOFTWARE                    0259H 025FH
  +--> I2CS_START/I2C_SOFTWARE
  +--> _I2CS_TX_BYTE/I2C_SOFTWARE
  +--> I2CS_STOP/I2C_SOFTWARE
  +--> _I2CS_RX_BYTE/I2C_SOFTWARE

I2CS_START/I2C_SOFTWARE                       ----- -----
  +--> _DELAY/I2C_SOFTWARE

_DELAY/I2C_SOFTWARE                           ----- -----

_I2CS_TX_BYTE/I2C_SOFTWARE                    ----- -----

I2CS_STOP/I2C_SOFTWARE                        ----- -----
  +--> _DELAY/I2C_SOFTWARE

_I2CS_RX_BYTE/I2C_SOFTWARE                    ----- -----
  +--> _DELAY/I2C_SOFTWARE

_SL_SC7A21_I2C_SPI_WRITE/I2C_SOFTWARE         0253H 0253H
  +--> _I2CS_TX_DATA/I2C_SOFTWARE

_I2CS_TX_DATA/I2C_SOFTWARE                    0254H 025BH
  +--> I2CS_START/I2C_SOFTWARE
  +--> _I2CS_TX_BYTE/I2C_SOFTWARE
  +--> I2CS_STOP/I2C_SOFTWARE

_SL_SC7A21_FS_CONFIG/SL_SC7A21_DRIVER         0021H 0023H
  +--> _SL_SC7A21_I2C_SPI_READ/I2C_SOFTWARE
  +--> _SL_SC7A21_I2C_SPI_WRITE/I2C_SOFTWARE

_SL_SC7A21_POWER_CONFIG/SL_SC7A21_DRIVER      0024H 0027H
  +--> _SL_SC7A21_I2C_SPI_READ/I2C_SOFTWARE
LX51 LINKER/LOCATER V4.66.1.0                                                         10/28/2019  14:49:17  PAGE 6


  +--> _SL_SC7A21_I2C_SPI_WRITE/I2C_SOFTWARE

_SL_SC7A21_FIFO_CONFIG/SL_SC7A21_DRIVER       0024H 0027H
  +--> _SL_SC7A21_I2C_SPI_READ/I2C_SOFTWARE
  +--> _SL_SC7A21_I2C_SPI_WRITE/I2C_SOFTWARE

_SL_SC7A21_INT_CONFIG/SL_SC7A21_DRIVER        0021H 0022H
  +--> _SL_SC7A21_I2C_SPI_WRITE/I2C_SOFTWARE
  +--> _SL_SC7A21_I2C_SPI_READ/I2C_SOFTWARE

_SL_SC7A21_PEDO_CONFIG/SL_SC7A21_DRIVER       0021H 0024H
  +--> _SL_SC7A21_I2C_SPI_WRITE/I2C_SOFTWARE
  +--> SL_SC7A21_PEDO_RESET/SL_SC7A21_DRIVER

SL_SC7A21_PEDO_RESET/SL_SC7A21_DRIVER         00C8H 00C8H
  +--> _SL_SC7A21_I2C_SPI_READ/I2C_SOFTWARE
  +--> _SL_SC7A21_I2C_SPI_WRITE/I2C_SOFTWARE

_SL_SC7A21_WRIST_CONFIG/SL_SC7A21_DRIVER      0021H 0023H
  +--> _SL_SC7A21_I2C_SPI_WRITE/I2C_SOFTWARE

_SL_SC7A21_SLEEP_CONFIG/SL_SC7A21_DRIVER      0021H 0024H
  +--> _SL_SC7A21_I2C_SPI_WRITE/I2C_SOFTWARE

_SL_SC7A21_SINGLE_CLICK_CONFIG/SL_SC7A21+     0021H 0023H
... _DRIVER
  +--> _SL_SC7A21_POWER_CONFIG/SL_SC7A21_DRIVER
  +--> _SL_SC7A21_FIFO_CONFIG/SL_SC7A21_DRIVER
  +--> _SL_SC7A21_I2C_SPI_WRITE/I2C_SOFTWARE

ADC_INIT/ADC                                  ----- -----

_INITIALUART0_TIMER3/UART                     000BH 000EH

INIT_EXT0_INTERRUPT/SYSTEM                    ----- -----

INIT_EXT1_INTERRUPT/SYSTEM                    ----- -----

INIT_EXT_IO_INTERRUPT/SYSTEM                  ----- -----

INIT_WKT/SYSTEM                               ----- -----

SET_SYSTEM_FRE_10K/SYSTEM                     ----- -----

LED_CTRL/WORK                                 ----- -----
  +--> ?CO?WORK

?CO?WORK                                      ----- -----

SYSTIMER_PROCESS/SYSTEM                       ----- -----

_SL_SC7A21_READ_XYZ_FIFO_DATA/SL_SC7A21_+     0234H 0244H
... DRIVER
  +--> _SL_SC7A21_I2C_SPI_READ/I2C_SOFTWARE

_ANO_DT_SEND_VERSION/UART                     0007H 0011H
  +--> _UARTSENDBUF/UART

_UARTSENDBUF/UART                             0012H 0014H
  +--> _SEND_DATA_TO_UART0/UART

_SEND_DATA_TO_UART0/UART                      ----- -----

SL_SC7A21_CLICK_TIMER_CNT/SL_SC7A21_APPL+     0007H 0007H
... ICATION
LX51 LINKER/LOCATER V4.66.1.0                                                         10/28/2019  14:49:17  PAGE 7


  +--> _SL_GET_CLICK_PP_CNT/SL_SC7A21_DRIVER
  +--> SL_CLOSE_SC7A21_CLICK_TIMER/MAIN

_SL_GET_CLICK_PP_CNT/SL_SC7A21_DRIVER         ----- -----

SL_CLOSE_SC7A21_CLICK_TIMER/MAIN              ----- -----

SL_SC7A21_GET_PEDO_VALUE/SL_SC7A21_APPLI+     0007H 00C7H
... CATION
  +--> _SL_SC7A21_READ_XYZ_FIFO_DATA/SL_SC7A21_DRIVER
  +--> SL_SC7A21_GET_PEDO_COUNT/SL_SC7A21_DRIVER
  +--> SL_SC7A21_PEDO_RESET/SL_SC7A21_DRIVER
  +--> SL_SC7A21_GET_SLEEP_VALUE/SL_SC7A21_APPLICATION

SL_SC7A21_GET_PEDO_COUNT/SL_SC7A21_DRIVE+     00C8H 00CAH
... R
  +--> _SL_SC7A21_I2C_SPI_READ/I2C_SOFTWARE

SL_SC7A21_GET_SLEEP_VALUE/SL_SC7A21_APPL+     ----- -----
... ICATION
  +--> SL_SC7A21_GET_SLEEP_STATUS/SL_SC7A21_DRIVER

SL_SC7A21_GET_SLEEP_STATUS/SL_SC7A21_DRI+     00C8H 00C8H
... VER
  +--> _SL_SC7A21_I2C_SPI_READ/I2C_SOFTWARE

?C_INITSEG                                    ----- -----

*** NEW ROOT ********************************

EXT0_ISR/SYSTEM                               ----- -----
  +--> SL_SC7A21_CLICK_SERVICE/SL_SC7A21_APPLICATION

SL_SC7A21_CLICK_SERVICE/SL_SC7A21_APPLIC+     00E6H 00E6H
... ATION
  +--> _SL_SC7A21_CLICK_ALGO/SL_SC7A21_DRIVER
  +--> SL_OPEN_SC7A21_CLICK_TIMER/MAIN

_SL_SC7A21_CLICK_ALGO/SL_SC7A21_DRIVER        00E7H 0233H
  +--> _SL_SC7A21_READ_XYZ_FIFO_DATA/SL_SC7A21_DRIVER
  +--> _SL_CLICK_SQRT/SL_SC7A21_DRIVER

_SL_CLICK_SQRT/SL_SC7A21_DRIVER               0234H 023BH

SL_OPEN_SC7A21_CLICK_TIMER/MAIN               ----- -----

*** NEW ROOT ********************************

TIMER0_ISR/SYSTEM                             ----- -----
  +--> SYSTICK_HANDLER/SYSTEM

SYSTICK_HANDLER/SYSTEM                        ----- -----
  +--> SYSTICK_HANDLER2/SYSTEM

SYSTICK_HANDLER2/SYSTEM                       ----- -----

*** NEW ROOT ********************************

EXT1_ISR/SYSTEM                               ----- -----
  +--> SL_SC7A21_WRIST_INT12_SERVICE_FUNCTION/SL_SC7A21_APPLICATION

SL_SC7A21_WRIST_INT12_SERVICE_FUNCTION/S+     ----- -----
... L_SC7A21_APPLICATION
  +--> SL_SC7A21_GET_WRIST_STATUS/SL_SC7A21_DRIVER

LX51 LINKER/LOCATER V4.66.1.0                                                         10/28/2019  14:49:17  PAGE 8


SL_SC7A21_GET_WRIST_STATUS/SL_SC7A21_DRI+     0252H 0252H
... VER
  +--> _SL_SC7A21_I2C_SPI_READ/I2C_SOFTWARE
  +--> _SL_SC7A21_I2C_SPI_WRITE/I2C_SOFTWARE

*** NEW ROOT ********************************

TIMER1_ISR/SYSTEM                             ----- -----

*** NEW ROOT ********************************

TIMER2_ISR/SYSTEM                             ----- -----

*** NEW ROOT ********************************

EXT_IO_ISR/SYSTEM                             ----- -----
  +--> ADC_INIT/ADC
  +--> _ADC_READ/ADC

_ADC_READ/ADC                                 ----- -----

*** NEW ROOT ********************************

WKT_ISR/SYSTEM                                ----- -----
  +--> SCAN_LED1/WORK

SCAN_LED1/WORK                                ----- -----

*** NEW ROOT ********************************

ADC_ISR/ADC                                   0260H 0261H



PUBLIC SYMBOLS OF MODULE:  ..\Output\LED_12T (?C_STARTUP)


      VALUE       CLASS    TYPE      PUBLIC SYMBOL NAME
      =================================================
      02000007H   XDATA    BYTE      ?_ANO_DT_Send_Version?BYTE
      02000302H   XDATA    BYTE      ?_eeprom_read_block?BYTE
      02000309H   XDATA    BYTE      ?_eeprom_write_block?BYTE
      02000259H   XDATA    BYTE      ?_i2cs_rx_data?BYTE
      02000254H   XDATA    BYTE      ?_i2cs_tx_data?BYTE
      02000253H   XDATA    BYTE      ?_SL_SC7A21_I2c_Spi_Read?BYTE
      02000234H   XDATA    BYTE      ?_SL_SC7A21_Read_XYZ_FIFO_Data?BYTE
      0100019DH   CODE     ---       ?C?CLDOPTR
      01000184H   CODE     ---       ?C?CLDPTR
      00000000H   NUMBER   ---       ?C?CODESEG
      0100015EH   CODE     ---       ?C?COPY
      010001DCH   CODE     ---       ?C?CSTOPTR
      010001CAH   CODE     ---       ?C?CSTPTR
      01000210H   CODE     ---       ?C?ILDIX
      01000226H   CODE     ---       ?C?ILDOPTR
      010001FEH   CODE     ---       ?C?IMUL
      0100027DH   CODE     ---       ?C?ISTOPTR
      0100025EH   CODE     ---       ?C?ISTPTR
      0100038BH   CODE     ---       ?C?LSTXDATA
      010002E6H   CODE     ---       ?C?ULDIV
      01000378H   CODE     ---       ?C?ULSHR
      00000000H   NUMBER   ---       ?C?XDATASEG
      010003ECH   CODE     ---       ?C_START
      01000000H   CODE     ---       ?C_STARTUP
      0100112CH   CODE     ---       _ADC_Read
      0100064AH   CODE     ---       _ANO_DT_Send_Version
LX51 LINKER/LOCATER V4.66.1.0                                                         10/28/2019  14:49:17  PAGE 9


      0100161DH   CODE     ---       _delay
      0100159FH   CODE     ---       _eeprom_read_block
      01001543H   CODE     ---       _eeprom_write_block
      01001375H   CODE     ---       _ERASE
      01001783H   CODE     ---       _i2cs_rx_byte
      010016AAH   CODE     ---       _i2cs_rx_data
      01001737H   CODE     ---       _i2cs_tx_byte
      01001635H   CODE     ---       _i2cs_tx_data
      01001852H   CODE     ---       _InitialUART0_Timer3
      010018E7H   CODE     ---       _InitialUART1_Timer3
      010014F9H   CODE     ---       _Read_APROM_BYTE
      010014D7H   CODE     ---       _ReadDATA_ISP
      01001465H   CODE     ---       _readrom
      0100002DH   CODE     ---       _Send_Data_To_UART0
      0100194EH   CODE     ---       _Send_Data_To_UART1
      010018D1H   CODE     ---       _Send_Word_To_UART0
      01001956H   CODE     ---       _Send_Word_To_UART1
      01002179H   CODE     ---       _SL_Click_Sqrt
      01002269H   CODE     ---       _SL_Get_CLICK_PP_CNT
      010008BDH   CODE     ---       _SL_SC7A21_Click_Algo
      01000C5EH   CODE     ---       _SL_SC7A21_FIFO_Config
      01001D17H   CODE     ---       _SL_SC7A21_FS_Config
      01000C41H   CODE     ---       _SL_SC7A21_I2c_Spi_Read
      01000D60H   CODE     ---       _SL_SC7A21_I2c_Spi_Write
      01001C88H   CODE     ---       _SL_SC7A21_INT_Config
      01001CBCH   CODE     ---       _SL_SC7A21_Online_Test
      01000F03H   CODE     ---       _SL_SC7A21_Pedo_Config
      01000E43H   CODE     ---       _SL_SC7A21_Power_Config
      0100205FH   CODE     ---       _SL_SC7A21_Read_XYZ_Data
      01000B4AH   CODE     ---       _SL_SC7A21_Read_XYZ_FIFO_Data
      01000D7CH   CODE     ---       _SL_SC7A21_Single_Click_Config
      01000FD5H   CODE     ---       _SL_SC7A21_Sleep_Config
      01001D73H   CODE     ---       _SL_SC7A21_Wrist_Config
      0100078AH   CODE     ---       _UartSendBuf
      01001393H   CODE     ---       _Write_ISP
      010013C5H   CODE     ---       _WriteDATA_ISP
      010013EFH   CODE     ---       _writerom
*SFR* 000000C0H.2 DATA     BIT       AA
*SFR* 000000D0H.6 DATA     BIT       AC
*SFR* 000000E0H   DATA     BYTE      ACC
      0100131AH   CODE     ---       ADC_GO
      01001123H   CODE     ---       adc_init
      01001322H   CODE     ---       ADC_ISR
      02000320H   XDATA    BYTE      adc_position_ready
      0200031CH   XDATA    WORD      adc_position_value
      0200031EH   XDATA    WORD      adc_seek_position_value
      020002EFH   XDATA    WORD      ADC_VAL
*SFR* 000000E8H   DATA     BYTE      ADCCON0
*SFR* 000000E1H   DATA     BYTE      ADCCON1
*SFR* 000000E2H   DATA     BYTE      ADCCON2
*SFR* 000000E3H   DATA     BYTE      ADCDLY
*SFR* 000000E8H.7 DATA     BIT       ADCF
*SFR* 000000E8H   DATA     BIT       ADCHS0
*SFR* 000000E8H.1 DATA     BIT       ADCHS1
*SFR* 000000E8H.2 DATA     BIT       ADCHS2
*SFR* 000000E8H.3 DATA     BIT       ADCHS3
*SFR* 000000CFH   DATA     BYTE      ADCMPH
*SFR* 000000CEH   DATA     BYTE      ADCMPL
*SFR* 000000C3H   DATA     BYTE      ADCRH
*SFR* 000000C2H   DATA     BYTE      ADCRL
*SFR* 000000E8H.6 DATA     BIT       ADCS
*SFR* 000000F6H   DATA     BYTE      AINDIDS
*SFR* 000000A2H   DATA     BYTE      AUXR1
*SFR* 000000F0H   DATA     BYTE      B
      00000020H.0 BIT      BIT       BIT_TMP
LX51 LINKER/LOCATER V4.66.1.0                                                         10/28/2019  14:49:17  PAGE 10


*SFR* 000000A3H   DATA     BYTE      BODCON0
*SFR* 000000ABH   DATA     BYTE      BODCON1
*SFR* 000000E5H   DATA     BYTE      C0H
*SFR* 000000E4H   DATA     BYTE      C0L
*SFR* 000000E7H   DATA     BYTE      C1H
*SFR* 000000E6H   DATA     BYTE      C1L
*SFR* 000000EEH   DATA     BYTE      C2H
*SFR* 000000EDH   DATA     BYTE      C2L
*SFR* 00000092H   DATA     BYTE      CAPCON0
*SFR* 00000093H   DATA     BYTE      CAPCON1
*SFR* 00000094H   DATA     BYTE      CAPCON2
*SFR* 000000F1H   DATA     BYTE      CAPCON3
*SFR* 000000F2H   DATA     BYTE      CAPCON4
*SFR* 0000009FH   DATA     BYTE      CHPCON
*SFR* 0000008EH   DATA     BYTE      CKCON
*SFR* 00000095H   DATA     BYTE      CKDIV
*SFR* 00000097H   DATA     BYTE      CKEN
*SFR* 00000096H   DATA     BYTE      CKSWT
      010017C9H   CODE     ---       Clean_STEP_COUNTER
      020002DBH   XDATA    BYTE      click_click_final_cnt
      020002DDH   XDATA    WORD      click_timer_cnt
      020002E1H   XDATA    WORD      click_timer_total_cnt
*SFR* 000000D8H.4 DATA     BIT       CLRPWM
*SFR* 000000C8H   DATA     BIT       CM_RL2
*SFR* 000000D0H.7 DATA     BIT       CY
      020002C4H   XDATA    ---       data_to_send
      0100005EH   CODE     ---       Delay300ms
      020002F1H   XDATA    WORD      DelaymS
*SFR* 00000083H   DATA     BYTE      DPH
*SFR* 00000082H   DATA     BYTE      DPL
*SFR* 000000A8H.7 DATA     BIT       EA
*SFR* 000000A8H.6 DATA     BIT       EADC
*SFR* 000000A8H.5 DATA     BIT       EBOD
      020002A8H   XDATA    ---       EEPROM_DATA
      01001448H   CODE     ---       eeprom_erase
      01001501H   CODE     ---       eeprom_restore_registers
      01001523H   CODE     ---       eeprom_save_registers
*SFR* 0000009BH   DATA     BYTE      EIE
*SFR* 0000009CH   DATA     BYTE      EIE1
*SFR* 000000EFH   DATA     BYTE      EIP
*SFR* 000000FEH   DATA     BYTE      EIP1
*SFR* 000000F7H   DATA     BYTE      EIPH
*SFR* 000000FFH   DATA     BYTE      EIPH1
*SFR* 000000A8H.4 DATA     BIT       ES
*SFR* 000000A8H.1 DATA     BIT       ET0
*SFR* 000000A8H.3 DATA     BIT       ET1
*SFR* 000000E8H.4 DATA     BIT       ETGSEL0
*SFR* 000000E8H.5 DATA     BIT       ETGSEL1
*SFR* 000000A8H   DATA     BIT       EX0
*SFR* 000000A8H.2 DATA     BIT       EX1
      01000845H   CODE     ---       EXT0_ISR
      01001022H   CODE     ---       EXT1_ISR
      01001069H   CODE     ---       EXT_IO_ISR
*SFR* 000000D0H.5 DATA     BIT       F0
*SFR* 000000D7H   DATA     BYTE      FBD
*SFR* 00000098H.7 DATA     BIT       FE
*SFR* 000000F8H.7 DATA     BIT       FE_1
      020002F3H   XDATA    ---       gTimer
*SFR* 000000C1H   DATA     BYTE      I2ADDR
*SFR* 000000C0H.6 DATA     BIT       I2CEN
*SFR* 000000BEH   DATA     BYTE      I2CLK
*SFR* 000000C0H   DATA     BYTE      I2CON
*SFR* 000000C0H   DATA     BIT       I2CPX
      01000009H   CODE     ---       i2cs_init
      0100176EH   CODE     ---       i2cs_start
LX51 LINKER/LOCATER V4.66.1.0                                                         10/28/2019  14:49:17  PAGE 11


      01001628H   CODE     ---       i2cs_stop
*SFR* 000000BCH   DATA     BYTE      I2DAT
*SFR* 000000BDH   DATA     BYTE      I2STAT
*SFR* 000000BFH   DATA     BYTE      I2TOC
*SFR* 000000A7H   DATA     BYTE      IAPAH
*SFR* 000000A6H   DATA     BYTE      IAPAL
*SFR* 000000AFH   DATA     BYTE      IAPCN
*SFR* 000000AEH   DATA     BYTE      IAPFD
*SFR* 000000A4H   DATA     BYTE      IAPTRG
*SFR* 000000A5H   DATA     BYTE      IAPUEN
*SFR* 000000A8H   DATA     BYTE      IE
*SFR* 00000088H.1 DATA     BIT       IE0
*SFR* 00000088H.3 DATA     BIT       IE1
      01000052H   CODE     ---       Init_EXT0_Interrupt
      01001311H   CODE     ---       Init_EXT1_Interrupt
      01001305H   CODE     ---       Init_EXT_IO_Interrupt
      010011F6H   CODE     ---       Init_IO
      010017F4H   CODE     ---       INIT_SC7A21
      010012F9H   CODE     ---       Init_WKT
      01000536H   CODE     ---       InitSystem
*SFR* 000000B0H   DATA     BIT       INT0
*SFR* 000000B8H   DATA     BYTE      IP
*SFR* 000000B7H   DATA     BYTE      IPH
      01001362H   CODE     ---       ISP_DIS
      010013B2H   CODE     ---       ISP_OPEN
*SFR* 00000088H   DATA     BIT       IT0
*SFR* 00000088H.2 DATA     BIT       IT1
      020002BDH   XDATA    BYTE      LED_Bri
      020002C0H   XDATA    BYTE      LED_CLOSE_T
      020002A5H   XDATA    BYTE      LED_CNT
      020002A7H   XDATA    BYTE      LED_Count
      020002C2H   XDATA    BYTE      LED_Count2
      01001B88H   CODE     ---       LED_Ctrl
      020002BCH   XDATA    BYTE      LED_cycle
      020002BFH   XDATA    BYTE      LED_Duty
      0100001EH   CONST    ---       LED_MA
      020002A6H   XDATA    BYTE      LED_OPEN_T
      020002BEH   XDATA    BYTE      LED_OPEN_Time
      00000020H.2 BIT      BIT       LED_State
      020002A4H   XDATA    BYTE      LED_T
      020002E9H   XDATA    WORD      Light_Val
*SFR* 000000D8H.6 DATA     BIT       LOAD
      01000592H   CODE     ---       main
*SFR* 000000D0H.2 DATA     BIT       OV
*SFR* 000000D0H   DATA     BIT       P
*SFR* 00000080H   DATA     BYTE      P0
*SFR* 00000080H   DATA     BIT       P00
*SFR* 00000080H.1 DATA     BIT       P01
*SFR* 00000080H.2 DATA     BIT       P02
*SFR* 00000080H.3 DATA     BIT       P03
*SFR* 00000080H.4 DATA     BIT       P04
*SFR* 00000080H.5 DATA     BIT       P05
*SFR* 00000080H.6 DATA     BIT       P06
*SFR* 00000080H.7 DATA     BIT       P07
*SFR* 000000B1H   DATA     BYTE      P0M1
*SFR* 000000B2H   DATA     BYTE      P0M2
*SFR* 000000B1H   DATA     BYTE      P0S
*SFR* 000000B2H   DATA     BYTE      P0SR
*SFR* 00000090H   DATA     BYTE      P1
*SFR* 00000090H   DATA     BIT       P10
*SFR* 00000090H.1 DATA     BIT       P11
*SFR* 00000090H.2 DATA     BIT       P12
*SFR* 00000090H.3 DATA     BIT       P13
*SFR* 00000090H.4 DATA     BIT       P14
*SFR* 00000090H.5 DATA     BIT       P15
LX51 LINKER/LOCATER V4.66.1.0                                                         10/28/2019  14:49:17  PAGE 12


*SFR* 00000090H.6 DATA     BIT       P16
*SFR* 00000090H.7 DATA     BIT       P17
*SFR* 000000B3H   DATA     BYTE      P1M1
*SFR* 000000B4H   DATA     BYTE      P1M2
*SFR* 000000B3H   DATA     BYTE      P1S
*SFR* 000000B4H   DATA     BYTE      P1SR
*SFR* 000000A0H   DATA     BYTE      P2
*SFR* 000000A0H   DATA     BIT       P20
*SFR* 000000B5H   DATA     BYTE      P2S
*SFR* 000000B0H   DATA     BYTE      P3
*SFR* 000000B0H   DATA     BIT       P30
*SFR* 000000ACH   DATA     BYTE      P3M1
*SFR* 000000ADH   DATA     BYTE      P3M2
*SFR* 000000ACH   DATA     BYTE      P3S
*SFR* 000000ADH   DATA     BYTE      P3SR
*SFR* 000000B8H.6 DATA     BIT       PADC
      0100145BH   CODE     ---       ParameterReset
*SFR* 000000B8H.5 DATA     BIT       PBOD
*SFR* 00000087H   DATA     BYTE      PCON
*SFR* 000000FAH   DATA     BYTE      PDTCNT
*SFR* 000000F9H   DATA     BYTE      PDTEN
*SFR* 000000E9H   DATA     BYTE      PICON
*SFR* 000000ECH   DATA     BYTE      PIF
*SFR* 000000EAH   DATA     BYTE      PINEN
*SFR* 000000DEH   DATA     BYTE      PIOCON0
*SFR* 000000C6H   DATA     BYTE      PIOCON1
*SFR* 000000EBH   DATA     BYTE      PIPEN
*SFR* 000000FCH   DATA     BYTE      PMD
*SFR* 000000FBH   DATA     BYTE      PMEN
*SFR* 000000D6H   DATA     BYTE      PNP
*SFR* 000000B8H.4 DATA     BIT       PS
*SFR* 000000D0H   DATA     BYTE      PSW
*SFR* 000000B8H.1 DATA     BIT       PT0
*SFR* 000000B8H.3 DATA     BIT       PT1
*SFR* 000000D2H   DATA     BYTE      PWM0H
*SFR* 000000DAH   DATA     BYTE      PWM0L
*SFR* 000000D3H   DATA     BYTE      PWM1H
*SFR* 000000DBH   DATA     BYTE      PWM1L
*SFR* 000000D4H   DATA     BYTE      PWM2H
*SFR* 000000DCH   DATA     BYTE      PWM2L
*SFR* 000000D5H   DATA     BYTE      PWM3H
*SFR* 000000DDH   DATA     BYTE      PWM3L
*SFR* 000000C4H   DATA     BYTE      PWM4H
*SFR* 000000CCH   DATA     BYTE      PWM4L
*SFR* 000000C5H   DATA     BYTE      PWM5H
*SFR* 000000CDH   DATA     BYTE      PWM5L
*SFR* 000000D8H   DATA     BYTE      PWMCON0
*SFR* 000000DFH   DATA     BYTE      PWMCON1
*SFR* 000000D8H.5 DATA     BIT       PWMF
*SFR* 000000B7H   DATA     BYTE      PWMINTC
*SFR* 000000D1H   DATA     BYTE      PWMPH
*SFR* 000000D9H   DATA     BYTE      PWMPL
*SFR* 000000D8H.7 DATA     BIT       PWMRUN
*SFR* 000000B8H   DATA     BIT       PX0
*SFR* 000000B8H.2 DATA     BIT       PX1
*SFR* 00000098H.2 DATA     BIT       RB8
*SFR* 000000F8H.2 DATA     BIT       RB8_1
*SFR* 000000CBH   DATA     BYTE      RCMP2H
*SFR* 000000CAH   DATA     BYTE      RCMP2L
      0100183FH   CODE     ---       Read_STEP_COUNTER
      01000035H   CODE     ---       ReadEeprom
      010018C9H   CODE     ---       Receive_Data_From_UART0
      010004C8H   CONST    ---       Reg
*SFR* 00000098H.4 DATA     BIT       REN
*SFR* 000000F8H.4 DATA     BIT       REN_1
LX51 LINKER/LOCATER V4.66.1.0                                                         10/28/2019  14:49:17  PAGE 13


*SFR* 000000C6H   DATA     BYTE      RH3
*SFR* 00000098H   DATA     BIT       RI
*SFR* 000000F8H   DATA     BIT       RI_1
*SFR* 000000C5H   DATA     BYTE      RL3
*SFR* 000000D0H.3 DATA     BIT       RS0
*SFR* 000000D0H.4 DATA     BIT       RS1
*SFR* 00000086H   DATA     BYTE      RWK
      02000282H   XDATA    ---       Rx_buf
*SFR* 000000A9H   DATA     BYTE      SADDR
*SFR* 000000BBH   DATA     BYTE      SADDR_1
*SFR* 000000B9H   DATA     BYTE      SADEN
*SFR* 000000BAH   DATA     BYTE      SADEN_1
*SFR* 00000099H   DATA     BYTE      SBUF
*SFR* 0000009AH   DATA     BYTE      SBUF_1
      0100196CH   CODE     ---       Scan_LED
      010011AFH   CODE     ---       Scan_LED1
*SFR* 00000090H.3 DATA     BIT       SCL
*SFR* 00000098H   DATA     BYTE      SCON
*SFR* 000000F8H   DATA     BYTE      SCON_1
*SFR* 00000090H.4 DATA     BIT       SDA
      01001213H   CODE     ---       Set_System_Fre_10K
      01001286H   CODE     ---       Set_System_Fre_16M
*SFR* 00000091H   DATA     BYTE      SFRS
*SFR* 000000C0H.3 DATA     BIT       SI
      020002E5H   XDATA    BYTE      sl_click_status
      020002D8H   XDATA    BYTE      sl_click_timer_en
      01000016H   CODE     ---       SL_Close_Sc7a21_Click_Timer
      01000006H   CODE     ---       SL_Open_Sc7a21_Click_Timer
      02000327H   XDATA    BYTE      sl_pp_num
      01002008H   CODE     ---       SL_SC7A21_BOOT_RESET
      01000881H   CODE     ---       SL_SC7A21_CLICK_SERVICE
      01001F41H   CODE     ---       SL_SC7A21_Click_Timer_Cnt
      00000020H.1 BIT      BIT       SL_SC7A21_Click_Timer_Cnt_f
      01001EDFH   CODE     ---       SL_SC7A21_Get_Pedo_Count
      01001E64H   CODE     ---       SL_SC7A21_GET_PEDO_VALUE
      01001EC2H   CODE     ---       SL_SC7A21_Get_Sleep_Status
      01001DF8H   CODE     ---       SL_SC7A21_GET_SLEEP_VALUE
      01002103H   CODE     ---       SL_SC7A21_Get_Wrist_Status
      01001BCCH   CODE     ---       SL_SC7A21_INIT
      01000FA8H   CODE     ---       SL_SC7A21_Pedo_Reset
      0100007FH   CODE     ---       SL_SC7A21_WRIST_INT12_SERVICE_FUNCTION
*SFR* 00000098H.7 DATA     BIT       SM0
*SFR* 000000F8H.7 DATA     BIT       SM0_1
*SFR* 00000098H.6 DATA     BIT       SM1
*SFR* 000000F8H.6 DATA     BIT       SM1_1
*SFR* 00000098H.5 DATA     BIT       SM2
*SFR* 000000F8H.5 DATA     BIT       SM2_1
*SFR* 00000081H   DATA     BYTE      SP
*SFR* 000000F3H   DATA     BYTE      SPCR
*SFR* 000000F3H   DATA     BYTE      SPCR2
*SFR* 000000F5H   DATA     BYTE      SPDR
*SFR* 000000F4H   DATA     BYTE      SPSR
*SFR* 000000C0H.5 DATA     BIT       STA
*SFR* 000000C0H.4 DATA     BIT       STO
      020002F7H   XDATA    WORD      System_Timer
      010007B5H   CODE     ---       SysTick_Handler
      01000502H   CODE     ---       SysTick_Handler2
      0100006DH   CODE     ---       SysTimer_Process
*SFR* 000000C8H   DATA     BYTE      T2CON
*SFR* 000000C9H   DATA     BYTE      T2MOD
*SFR* 000000C4H   DATA     BYTE      T3CON
*SFR* 000000C7H   DATA     BYTE      TA
*SFR* 00000098H.3 DATA     BIT       TB8
*SFR* 000000F8H.3 DATA     BIT       TB8_1
*SFR* 00000088H   DATA     BYTE      TCON
LX51 LINKER/LOCATER V4.66.1.0                                                         10/28/2019  14:49:17  PAGE 14


*SFR* 00000088H.5 DATA     BIT       TF0
*SFR* 00000088H.7 DATA     BIT       TF1
*SFR* 000000C8H.7 DATA     BIT       TF2
*SFR* 0000008CH   DATA     BYTE      TH0
*SFR* 0000008DH   DATA     BYTE      TH1
*SFR* 000000CDH   DATA     BYTE      TH2
*SFR* 00000098H.1 DATA     BIT       TI
*SFR* 000000F8H.1 DATA     BIT       TI_1
      020002C3H   XDATA    BYTE      TIME_MIN
      020002C1H   XDATA    BYTE      TIME_S
      01000FF4H   CODE     ---       Timer0_ISR
      01000822H   CODE     ---       Timer0Init
      0100105FH   CODE     ---       Timer1_ISR
      01000838H   CODE     ---       Timer1Init
      0100000EH   CODE     ---       Timer2_ISR
      020002EBH   XDATA    DWORD     Timer_1s
*SFR* 0000008AH   DATA     BYTE      TL0
*SFR* 0000008BH   DATA     BYTE      TL1
*SFR* 000000CCH   DATA     BYTE      TL2
*SFR* 00000089H   DATA     BYTE      TMOD
*SFR* 00000088H.4 DATA     BIT       TR0
*SFR* 00000088H.6 DATA     BIT       TR1
*SFR* 000000C8H.2 DATA     BIT       TR2
      02000262H   XDATA    ---       TX_buf
*SFR* 000000AAH   DATA     BYTE      WDCON
*SFR* 0000008FH   DATA     BYTE      WKCON
      01001175H   CODE     ---       WKT_ISR
      01001451H   CODE     ---       WriteEeprom



SYMBOL TABLE OF MODULE:  ..\Output\LED_12T (?C_STARTUP)

      VALUE       REP       CLASS    TYPE      SYMBOL NAME
      ====================================================
      ---         MODULE    ---      ---       ?C_STARTUP
      01000000H   PUBLIC    CODE     ---       ?C_STARTUP
      000000E0H   SYMBOL    DATA     ---       ACC
      000000F0H   SYMBOL    DATA     ---       B
      00000083H   SYMBOL    DATA     ---       DPH
      00000082H   SYMBOL    DATA     ---       DPL
      00000000H   SYMBOL    NUMBER   ---       IBPSTACK
      00000100H   SYMBOL    NUMBER   ---       IBPSTACKTOP
      00000080H   SYMBOL    NUMBER   ---       IDATALEN
      0100039AH   SYMBOL    CODE     ---       IDATALOOP
      00000000H   SYMBOL    NUMBER   ---       PBPSTACK
      00000000H   SYMBOL    NUMBER   ---       PBPSTACKTOP
      00000000H   SYMBOL    NUMBER   ---       PDATALEN
      00000000H   SYMBOL    NUMBER   ---       PDATASTART
      00000000H   SYMBOL    NUMBER   ---       PPAGE
      00000000H   SYMBOL    NUMBER   ---       PPAGEENABLE
      000000A0H   SYMBOL    DATA     ---       PPAGE_SFR
      00000081H   SYMBOL    DATA     ---       SP
      01000397H   SYMBOL    CODE     ---       STARTUP1
      00000000H   SYMBOL    NUMBER   ---       XBPSTACK
      00000000H   SYMBOL    NUMBER   ---       XBPSTACKTOP
      000002FFH   SYMBOL    NUMBER   ---       XDATALEN
      010003A5H   SYMBOL    CODE     ---       XDATALOOP
      00000000H   SYMBOL    NUMBER   ---       XDATASTART
      01000000H   LINE      CODE     ---       #92
      01000397H   LINE      CODE     ---       #99
      01000399H   LINE      CODE     ---       #100
      0100039AH   LINE      CODE     ---       #101
      0100039BH   LINE      CODE     ---       #102
      0100039DH   LINE      CODE     ---       #106
LX51 LINKER/LOCATER V4.66.1.0                                                         10/28/2019  14:49:17  PAGE 15


      010003A0H   LINE      CODE     ---       #107
      010003A2H   LINE      CODE     ---       #109
      010003A4H   LINE      CODE     ---       #113
      010003A5H   LINE      CODE     ---       #114
      010003A6H   LINE      CODE     ---       #115
      010003A7H   LINE      CODE     ---       #116
      010003A9H   LINE      CODE     ---       #117
      010003ABH   LINE      CODE     ---       #151
      010003AEH   LINE      CODE     ---       #155

      ---         MODULE    ---      ---       SYSTEM
      020002F7H   PUBLIC    XDATA    WORD      System_Timer
      020002F3H   PUBLIC    XDATA    ---       gTimer
      020002F1H   PUBLIC    XDATA    WORD      DelaymS
      00000020H.0 PUBLIC    BIT      BIT       BIT_TMP
      020002EFH   PUBLIC    XDATA    WORD      ADC_VAL
      020002EBH   PUBLIC    XDATA    DWORD     Timer_1s
      020002E9H   PUBLIC    XDATA    WORD      Light_Val
      01000536H   PUBLIC    CODE     ---       InitSystem
      01001311H   PUBLIC    CODE     ---       Init_EXT1_Interrupt
      01000052H   PUBLIC    CODE     ---       Init_EXT0_Interrupt
      01001305H   PUBLIC    CODE     ---       Init_EXT_IO_Interrupt
      010012F9H   PUBLIC    CODE     ---       Init_WKT
      01001286H   PUBLIC    CODE     ---       Set_System_Fre_16M
      01001213H   PUBLIC    CODE     ---       Set_System_Fre_10K
      010011F6H   PUBLIC    CODE     ---       Init_IO
      01001175H   PUBLIC    CODE     ---       WKT_ISR
      01001069H   PUBLIC    CODE     ---       EXT_IO_ISR
      0100000EH   PUBLIC    CODE     ---       Timer2_ISR
      0100105FH   PUBLIC    CODE     ---       Timer1_ISR
      01001022H   PUBLIC    CODE     ---       EXT1_ISR
      01000FF4H   PUBLIC    CODE     ---       Timer0_ISR
      01000845H   PUBLIC    CODE     ---       EXT0_ISR
      01000838H   PUBLIC    CODE     ---       Timer1Init
      01000822H   PUBLIC    CODE     ---       Timer0Init
      0100006DH   PUBLIC    CODE     ---       SysTimer_Process
      010007B5H   PUBLIC    CODE     ---       SysTick_Handler
      01000502H   PUBLIC    CODE     ---       SysTick_Handler2
      0100005EH   PUBLIC    CODE     ---       Delay300ms
      000000F6H   SFRSYM    DATA     BYTE      AINDIDS
      000000B1H   SFRSYM    DATA     BYTE      P0M1
      000000B3H   SFRSYM    DATA     BYTE      P1M1
      000000B2H   SFRSYM    DATA     BYTE      P0M2
      00000080H   SFRSYM    DATA     BYTE      P0
      000000BBH   SFRSYM    DATA     BYTE      SADDR_1
      000000B4H   SFRSYM    DATA     BYTE      P1M2
      00000090H   SFRSYM    DATA     BYTE      P1
      000000C0H.2 SFRSYM    DATA     BIT       AA
      000000ACH   SFRSYM    DATA     BYTE      P3M1
      000000A0H   SFRSYM    DATA     BYTE      P2
      000000B0H   SFRSYM    DATA     BYTE      P3
      000000ADH   SFRSYM    DATA     BYTE      P3M2
      000000D0H.6 SFRSYM    DATA     BIT       AC
      0000008FH   SFRSYM    DATA     BYTE      WKCON
      0000009CH   SFRSYM    DATA     BYTE      EIE1
      000000A8H.7 SFRSYM    DATA     BIT       EA
      000000D8H   SFRSYM    DATA     BYTE      PWMCON0
      000000DFH   SFRSYM    DATA     BYTE      PWMCON1
      00000098H.7 SFRSYM    DATA     BIT       FE
      000000A8H.6 SFRSYM    DATA     BIT       EADC
      000000D1H   SFRSYM    DATA     BYTE      PWMPH
      000000A8H   SFRSYM    DATA     BYTE      IE
      00000096H   SFRSYM    DATA     BYTE      CKSWT
      000000E8H.7 SFRSYM    DATA     BIT       ADCF
      000000FEH   SFRSYM    DATA     BYTE      EIP1
LX51 LINKER/LOCATER V4.66.1.0                                                         10/28/2019  14:49:17  PAGE 16


      000000D9H   SFRSYM    DATA     BYTE      PWMPL
      000000E8H   SFRSYM    DATA     BIT       ADCHS0
      000000C7H   SFRSYM    DATA     BYTE      TA
      000000E8H.1 SFRSYM    DATA     BIT       ADCHS1
      000000E8H.2 SFRSYM    DATA     BIT       ADCHS2
      000000E8H.3 SFRSYM    DATA     BIT       ADCHS3
      000000A8H.4 SFRSYM    DATA     BIT       ES
      000000C1H   SFRSYM    DATA     BYTE      I2ADDR
      000000B8H.6 SFRSYM    DATA     BIT       PADC
      000000B8H   SFRSYM    DATA     BYTE      IP
      000000A8H.5 SFRSYM    DATA     BIT       EBOD
      00000098H   SFRSYM    DATA     BIT       RI
      000000F8H.7 SFRSYM    DATA     BIT       FE_1
      000000E8H.6 SFRSYM    DATA     BIT       ADCS
      000000D0H.7 SFRSYM    DATA     BIT       CY
      000000C0H.3 SFRSYM    DATA     BIT       SI
      000000B0H   SFRSYM    DATA     BIT       INT0
      00000098H.1 SFRSYM    DATA     BIT       TI
      000000D8H.6 SFRSYM    DATA     BIT       LOAD
      00000097H   SFRSYM    DATA     BYTE      CKEN
      000000B8H.4 SFRSYM    DATA     BIT       PS
      00000081H   SFRSYM    DATA     BYTE      SP
      000000D0H.2 SFRSYM    DATA     BIT       OV
      000000B7H   SFRSYM    DATA     BYTE      PWMINTC
      000000B8H.5 SFRSYM    DATA     BIT       PBOD
      000000B2H   SFRSYM    DATA     BYTE      P0SR
      000000F7H   SFRSYM    DATA     BYTE      EIPH
      000000B4H   SFRSYM    DATA     BYTE      P1SR
      000000ADH   SFRSYM    DATA     BYTE      P3SR
      000000F8H   SFRSYM    DATA     BIT       RI_1
      000000F8H.1 SFRSYM    DATA     BIT       TI_1
      000000CBH   SFRSYM    DATA     BYTE      RCMP2H
      000000CFH   SFRSYM    DATA     BYTE      ADCMPH
      00000080H   SFRSYM    DATA     BIT       P00
      00000090H   SFRSYM    DATA     BIT       P10
      00000080H.1 SFRSYM    DATA     BIT       P01
      000000FBH   SFRSYM    DATA     BYTE      PMEN
      00000099H   SFRSYM    DATA     BYTE      SBUF
      00000087H   SFRSYM    DATA     BYTE      PCON
      000000A0H   SFRSYM    DATA     BIT       P20
      00000090H.1 SFRSYM    DATA     BIT       P11
      00000080H.2 SFRSYM    DATA     BIT       P02
      000000CAH   SFRSYM    DATA     BYTE      RCMP2L
      000000B0H   SFRSYM    DATA     BIT       P30
      00000090H.2 SFRSYM    DATA     BIT       P12
      00000080H.3 SFRSYM    DATA     BIT       P03
      000000E3H   SFRSYM    DATA     BYTE      ADCDLY
      000000CEH   SFRSYM    DATA     BYTE      ADCMPL
      00000090H.3 SFRSYM    DATA     BIT       P13
      00000080H.4 SFRSYM    DATA     BIT       P04
      00000098H   SFRSYM    DATA     BYTE      SCON
      00000090H.4 SFRSYM    DATA     BIT       P14
      00000080H.5 SFRSYM    DATA     BIT       P05
      00000089H   SFRSYM    DATA     BYTE      TMOD
      00000088H   SFRSYM    DATA     BYTE      TCON
      00000090H.5 SFRSYM    DATA     BIT       P15
      00000080H.6 SFRSYM    DATA     BIT       P06
      00000090H.6 SFRSYM    DATA     BIT       P16
      00000080H.7 SFRSYM    DATA     BIT       P07
      00000090H.7 SFRSYM    DATA     BIT       P17
      000000F3H   SFRSYM    DATA     BYTE      SPCR
      000000BDH   SFRSYM    DATA     BYTE      I2STAT
      000000F5H   SFRSYM    DATA     BYTE      SPDR
      000000D8H.5 SFRSYM    DATA     BIT       PWMF
      000000E5H   SFRSYM    DATA     BYTE      C0H
LX51 LINKER/LOCATER V4.66.1.0                                                         10/28/2019  14:49:17  PAGE 17


      000000E7H   SFRSYM    DATA     BYTE      C1H
      000000EEH   SFRSYM    DATA     BYTE      C2H
      0000009FH   SFRSYM    DATA     BYTE      CHPCON
      00000088H.1 SFRSYM    DATA     BIT       IE0
      00000088H.3 SFRSYM    DATA     BIT       IE1
      000000E4H   SFRSYM    DATA     BYTE      C0L
      00000091H   SFRSYM    DATA     BYTE      SFRS
      000000E6H   SFRSYM    DATA     BYTE      C1L
      000000C8H   SFRSYM    DATA     BIT       CM_RL2
      000000F0H   SFRSYM    DATA     BYTE      B
      000000EDH   SFRSYM    DATA     BYTE      C2L
      0000009AH   SFRSYM    DATA     BYTE      SBUF_1
      000000A5H   SFRSYM    DATA     BYTE      IAPUEN
      000000F8H   SFRSYM    DATA     BYTE      SCON_1
      000000E0H   SFRSYM    DATA     BYTE      ACC
      000000A8H.1 SFRSYM    DATA     BIT       ET0
      000000F4H   SFRSYM    DATA     BYTE      SPSR
      000000A4H   SFRSYM    DATA     BYTE      IAPTRG
      000000A8H.3 SFRSYM    DATA     BIT       ET1
      00000088H.5 SFRSYM    DATA     BIT       TF0
      00000088H.7 SFRSYM    DATA     BIT       TF1
      000000C8H.7 SFRSYM    DATA     BIT       TF2
      00000098H.2 SFRSYM    DATA     BIT       RB8
      000000D7H   SFRSYM    DATA     BYTE      FBD
      0000008CH   SFRSYM    DATA     BYTE      TH0
      000000A8H   SFRSYM    DATA     BIT       EX0
      00000088H   SFRSYM    DATA     BIT       IT0
      000000C6H   SFRSYM    DATA     BYTE      RH3
      0000008DH   SFRSYM    DATA     BYTE      TH1
      000000A8H.2 SFRSYM    DATA     BIT       EX1
      00000098H.3 SFRSYM    DATA     BIT       TB8
      00000088H.2 SFRSYM    DATA     BIT       IT1
      000000CDH   SFRSYM    DATA     BYTE      TH2
      000000D0H   SFRSYM    DATA     BIT       P
      000000FAH   SFRSYM    DATA     BYTE      PDTCNT
      00000098H.7 SFRSYM    DATA     BIT       SM0
      0000008AH   SFRSYM    DATA     BYTE      TL0
      00000098H.6 SFRSYM    DATA     BIT       SM1
      000000C5H   SFRSYM    DATA     BYTE      RL3
      0000008BH   SFRSYM    DATA     BYTE      TL1
      000000C0H.6 SFRSYM    DATA     BIT       I2CEN
      00000098H.5 SFRSYM    DATA     BIT       SM2
      000000CCH   SFRSYM    DATA     BYTE      TL2
      000000B1H   SFRSYM    DATA     BYTE      P0S
      0000009BH   SFRSYM    DATA     BYTE      EIE
      000000B8H.1 SFRSYM    DATA     BIT       PT0
      000000B3H   SFRSYM    DATA     BYTE      P1S
      000000D0H.3 SFRSYM    DATA     BIT       RS0
      000000B8H.3 SFRSYM    DATA     BIT       PT1
      000000BCH   SFRSYM    DATA     BYTE      I2DAT
      000000B5H   SFRSYM    DATA     BYTE      P2S
      000000D0H.4 SFRSYM    DATA     BIT       RS1
      00000088H.4 SFRSYM    DATA     BIT       TR0
      000000BEH   SFRSYM    DATA     BYTE      I2CLK
      000000ACH   SFRSYM    DATA     BYTE      P3S
      000000D8H.4 SFRSYM    DATA     BIT       CLRPWM
      00000088H.6 SFRSYM    DATA     BIT       TR1
      000000C8H.2 SFRSYM    DATA     BIT       TR2
      000000B8H   SFRSYM    DATA     BIT       PX0
      00000090H.4 SFRSYM    DATA     BIT       SDA
      000000FFH   SFRSYM    DATA     BYTE      EIPH1
      000000B8H.2 SFRSYM    DATA     BIT       PX1
      000000E8H   SFRSYM    DATA     BYTE      ADCCON0
      000000E1H   SFRSYM    DATA     BYTE      ADCCON1
      000000E2H   SFRSYM    DATA     BYTE      ADCCON2
LX51 LINKER/LOCATER V4.66.1.0                                                         10/28/2019  14:49:17  PAGE 18


      000000C0H   SFRSYM    DATA     BYTE      I2CON
      00000083H   SFRSYM    DATA     BYTE      DPH
      000000F8H.2 SFRSYM    DATA     BIT       RB8_1
      000000EFH   SFRSYM    DATA     BYTE      EIP
      000000F8H.3 SFRSYM    DATA     BIT       TB8_1
      000000ECH   SFRSYM    DATA     BYTE      PIF
      00000082H   SFRSYM    DATA     BYTE      DPL
      000000F8H.7 SFRSYM    DATA     BIT       SM0_1
      000000FCH   SFRSYM    DATA     BYTE      PMD
      000000B7H   SFRSYM    DATA     BYTE      IPH
      000000F8H.6 SFRSYM    DATA     BIT       SM1_1
      00000090H.3 SFRSYM    DATA     BIT       SCL
      000000BFH   SFRSYM    DATA     BYTE      I2TOC
      000000F8H.5 SFRSYM    DATA     BIT       SM2_1
      000000C3H   SFRSYM    DATA     BYTE      ADCRH
      000000A7H   SFRSYM    DATA     BYTE      IAPAH
      00000098H.4 SFRSYM    DATA     BIT       REN
      000000AEH   SFRSYM    DATA     BYTE      IAPFD
      00000092H   SFRSYM    DATA     BYTE      CAPCON0
      000000C0H   SFRSYM    DATA     BIT       I2CPX
      000000C9H   SFRSYM    DATA     BYTE      T2MOD
      000000C8H   SFRSYM    DATA     BYTE      T2CON
      000000C2H   SFRSYM    DATA     BYTE      ADCRL
      000000A3H   SFRSYM    DATA     BYTE      BODCON0
      00000093H   SFRSYM    DATA     BYTE      CAPCON1
      000000C0H.5 SFRSYM    DATA     BIT       STA
      000000C4H   SFRSYM    DATA     BYTE      T3CON
      000000ABH   SFRSYM    DATA     BYTE      BODCON1
      000000A6H   SFRSYM    DATA     BYTE      IAPAL
      00000094H   SFRSYM    DATA     BYTE      CAPCON2
      000000F1H   SFRSYM    DATA     BYTE      CAPCON3
      000000F2H   SFRSYM    DATA     BYTE      CAPCON4
      000000D8H.7 SFRSYM    DATA     BIT       PWMRUN
      000000F3H   SFRSYM    DATA     BYTE      SPCR2
      000000B9H   SFRSYM    DATA     BYTE      SADEN
      000000AFH   SFRSYM    DATA     BYTE      IAPCN
      000000D2H   SFRSYM    DATA     BYTE      PWM0H
      000000D6H   SFRSYM    DATA     BYTE      PNP
      000000D3H   SFRSYM    DATA     BYTE      PWM1H
      000000D4H   SFRSYM    DATA     BYTE      PWM2H
      000000A9H   SFRSYM    DATA     BYTE      SADDR
      0000008EH   SFRSYM    DATA     BYTE      CKCON
      000000D5H   SFRSYM    DATA     BYTE      PWM3H
      000000DAH   SFRSYM    DATA     BYTE      PWM0L
      000000C4H   SFRSYM    DATA     BYTE      PWM4H
      000000DBH   SFRSYM    DATA     BYTE      PWM1L
      000000C5H   SFRSYM    DATA     BYTE      PWM5H
      000000A2H   SFRSYM    DATA     BYTE      AUXR1
      00000095H   SFRSYM    DATA     BYTE      CKDIV
      000000DCH   SFRSYM    DATA     BYTE      PWM2L
      000000DDH   SFRSYM    DATA     BYTE      PWM3L
      00000086H   SFRSYM    DATA     BYTE      RWK
      000000D0H.5 SFRSYM    DATA     BIT       F0
      000000CCH   SFRSYM    DATA     BYTE      PWM4L
      000000F8H.4 SFRSYM    DATA     BIT       REN_1
      000000E8H.4 SFRSYM    DATA     BIT       ETGSEL0
      000000C0H.4 SFRSYM    DATA     BIT       STO
      000000CDH   SFRSYM    DATA     BYTE      PWM5L
      000000E8H.5 SFRSYM    DATA     BIT       ETGSEL1
      000000E9H   SFRSYM    DATA     BYTE      PICON
      000000DEH   SFRSYM    DATA     BYTE      PIOCON0
      000000D0H   SFRSYM    DATA     BYTE      PSW
      000000EAH   SFRSYM    DATA     BYTE      PINEN
      000000C6H   SFRSYM    DATA     BYTE      PIOCON1
      000000F9H   SFRSYM    DATA     BYTE      PDTEN
LX51 LINKER/LOCATER V4.66.1.0                                                         10/28/2019  14:49:17  PAGE 19


      000000AAH   SFRSYM    DATA     BYTE      WDCON
      000000EBH   SFRSYM    DATA     BYTE      PIPEN
      000000BAH   SFRSYM    DATA     BYTE      SADEN_1

      0100005EH   BLOCK     CODE     ---       LVL=0
      0100005EH   LINE      ---      ---       #7
      0100005EH   LINE      ---      ---       #8
      0100005EH   BLOCK     CODE     NEAR LAB  LVL=1
      0100005EH   LINE      ---      ---       #11
      0100005FH   LINE      ---      ---       #12
      01000060H   LINE      ---      ---       #13
      01000062H   LINE      ---      ---       #14
      01000064H   LINE      ---      ---       #15
      01000066H   LINE      ---      ---       #17
      01000066H   LINE      ---      ---       #19
      01000066H   LINE      ---      ---       #20
      01000068H   LINE      ---      ---       #21
      0100006AH   LINE      ---      ---       #22
      0100006CH   LINE      ---      ---       #23
      00000007H   SYMBOL    DATA     BYTE      i
      00000006H   SYMBOL    DATA     BYTE      j
      00000005H   SYMBOL    DATA     BYTE      k
      ---         BLOCKEND  CODE     ---       LVL=1
      ---         BLOCKEND  CODE     ---       LVL=0

      01000502H   BLOCK     CODE     ---       LVL=0
      01000502H   LINE      ---      ---       #35
      01000502H   LINE      ---      ---       #36
      01000502H   LINE      ---      ---       #37
      01000508H   LINE      ---      ---       #38
      01000511H   LINE      ---      ---       #39
      01000511H   LINE      ---      ---       #40
      01000516H   LINE      ---      ---       #41
      01000516H   LINE      ---      ---       #42
      01000522H   LINE      ---      ---       #43
      01000522H   LINE      ---      ---       #44
      01000527H   LINE      ---      ---       #45
      01000527H   LINE      ---      ---       #46
      0100052EH   LINE      ---      ---       #47
      01000530H   LINE      ---      ---       #48
      01000535H   LINE      ---      ---       #49
      01000535H   LINE      ---      ---       #50
      ---         BLOCKEND  ---      ---       LVL=0

      010007B5H   BLOCK     CODE     ---       LVL=0
      010007B5H   LINE      ---      ---       #51
      010007B5H   LINE      ---      ---       #52
      010007B5H   LINE      ---      ---       #53
      010007BCH   LINE      ---      ---       #54
      010007C2H   LINE      ---      ---       #55
      010007C6H   LINE      ---      ---       #56
      010007C6H   LINE      ---      ---       #57
      010007CDH   LINE      ---      ---       #58
      010007CDH   LINE      ---      ---       #59
      010007D9H   LINE      ---      ---       #60
      010007D9H   LINE      ---      ---       #61
      010007E0H   LINE      ---      ---       #62
      010007E0H   LINE      ---      ---       #63
      010007ECH   LINE      ---      ---       #64
      010007ECH   LINE      ---      ---       #65
      010007F3H   LINE      ---      ---       #66
      010007F3H   LINE      ---      ---       #67
      010007FAH   LINE      ---      ---       #68
      010007FAH   LINE      ---      ---       #69
      010007FCH   LINE      ---      ---       #70
LX51 LINKER/LOCATER V4.66.1.0                                                         10/28/2019  14:49:17  PAGE 20


      01000803H   LINE      ---      ---       #71
      01000806H   LINE      ---      ---       #72
      01000806H   LINE      ---      ---       #73
      01000815H   LINE      ---      ---       #74
      01000815H   LINE      ---      ---       #75
      01000821H   LINE      ---      ---       #76
      01000821H   LINE      ---      ---       #78
      ---         BLOCKEND  ---      ---       LVL=0

      0100006DH   BLOCK     CODE     ---       LVL=0
      0100006DH   LINE      ---      ---       #80
      0100006DH   LINE      ---      ---       #81
      0100006DH   LINE      ---      ---       #82
      0100006FH   LINE      ---      ---       #83
      01000075H   LINE      ---      ---       #85
      0100007AH   LINE      ---      ---       #86
      0100007AH   LINE      ---      ---       #87
      0100007CH   LINE      ---      ---       #89
      0100007CH   LINE      ---      ---       #96
      0100007EH   LINE      ---      ---       #97
      ---         BLOCKEND  ---      ---       LVL=0

      01000822H   BLOCK     CODE     ---       LVL=0
      01000822H   LINE      ---      ---       #103
      01000822H   LINE      ---      ---       #104
      01000822H   LINE      ---      ---       #105
      01000825H   LINE      ---      ---       #106
      01000828H   LINE      ---      ---       #108
      0100082BH   LINE      ---      ---       #109
      0100082EH   LINE      ---      ---       #110
      01000831H   LINE      ---      ---       #111
      01000833H   LINE      ---      ---       #112
      01000835H   LINE      ---      ---       #113
      01000837H   LINE      ---      ---       #114
      ---         BLOCKEND  ---      ---       LVL=0

      01000838H   BLOCK     CODE     ---       LVL=0
      01000838H   LINE      ---      ---       #120
      01000838H   LINE      ---      ---       #121
      01000838H   LINE      ---      ---       #122
      0100083BH   LINE      ---      ---       #123
      0100083EH   LINE      ---      ---       #127
      01000840H   LINE      ---      ---       #128
      01000842H   LINE      ---      ---       #129
      01000844H   LINE      ---      ---       #130
      ---         BLOCKEND  ---      ---       LVL=0

      01000845H   BLOCK     CODE     ---       LVL=0
      01000862H   LINE      ---      ---       #136
      01000862H   LINE      ---      ---       #138
      01000864H   LINE      ---      ---       #139
      01000866H   LINE      ---      ---       #140
      ---         BLOCKEND  ---      ---       LVL=0

      01000FF4H   BLOCK     CODE     ---       LVL=0
      01000FFEH   LINE      ---      ---       #146
      01000FFEH   LINE      ---      ---       #148
      01001001H   LINE      ---      ---       #149
      01001004H   LINE      ---      ---       #153
      01001007H   LINE      ---      ---       #154
      01001015H   LINE      ---      ---       #156
      01001017H   LINE      ---      ---       #157
      ---         BLOCKEND  ---      ---       LVL=0

      01001022H   BLOCK     CODE     ---       LVL=0
LX51 LINKER/LOCATER V4.66.1.0                                                         10/28/2019  14:49:17  PAGE 21


      0100103FH   LINE      ---      ---       #158
      0100103FH   LINE      ---      ---       #160
      01001041H   LINE      ---      ---       #162
      01001044H   LINE      ---      ---       #164
      ---         BLOCKEND  ---      ---       LVL=0

      0100105FH   BLOCK     CODE     ---       LVL=0
      01001061H   LINE      ---      ---       #171
      01001061H   BLOCK     CODE     NEAR LAB  LVL=1
      01001061H   LINE      ---      ---       #173
      01001062H   LINE      ---      ---       #175
      01001064H   LINE      ---      ---       #176
      01001066H   LINE      ---      ---       #178
      00000006H   SYMBOL    DATA     WORD      T1_Reload
      ---         BLOCKEND  CODE     ---       LVL=1
      ---         BLOCKEND  CODE     ---       LVL=0

      0100000EH   BLOCK     CODE     ---       LVL=0
      0100000EH   LINE      ---      ---       #179
      0100000EH   LINE      ---      ---       #181
      01000010H   LINE      ---      ---       #182
      ---         BLOCKEND  ---      ---       LVL=0

      01001069H   BLOCK     CODE     ---       LVL=0
      01001086H   LINE      ---      ---       #185
      01001086H   LINE      ---      ---       #187
      0100108CH   LINE      ---      ---       #188
      0100108CH   LINE      ---      ---       #189
      0100108CH   LINE      ---      ---       #190
      0100108EH   LINE      ---      ---       #191
      01001090H   LINE      ---      ---       #192
      010010AAH   LINE      ---      ---       #193
      010010B5H   LINE      ---      ---       #194
      010010B8H   LINE      ---      ---       #195
      010010BAH   LINE      ---      ---       #196
      010010CEH   LINE      ---      ---       #197
      010010E0H   LINE      ---      ---       #198
      010010EDH   LINE      ---      ---       #199
      010010F9H   LINE      ---      ---       #200
      010010FEH   LINE      ---      ---       #201
      01001102H   LINE      ---      ---       #203
      01001105H   LINE      ---      ---       #204
      01001105H   LINE      ---      ---       #205
      01001105H   LINE      ---      ---       #207
      01001105H   LINE      ---      ---       #209
      01001105H   LINE      ---      ---       #210
      01001108H   LINE      ---      ---       #211
      ---         BLOCKEND  ---      ---       LVL=0

      01001175H   BLOCK     CODE     ---       LVL=0
      01001192H   LINE      ---      ---       #213
      01001192H   LINE      ---      ---       #218
      01001194H   LINE      ---      ---       #220
      ---         BLOCKEND  ---      ---       LVL=0

      010011F6H   BLOCK     CODE     ---       LVL=0
      010011F6H   LINE      ---      ---       #265
      010011F6H   LINE      ---      ---       #266
      010011F6H   LINE      ---      ---       #267
      010011F9H   LINE      ---      ---       #268
      010011FCH   LINE      ---      ---       #269
      010011FFH   LINE      ---      ---       #271
      01001202H   LINE      ---      ---       #272
      01001205H   LINE      ---      ---       #273
      01001208H   LINE      ---      ---       #275
LX51 LINKER/LOCATER V4.66.1.0                                                         10/28/2019  14:49:17  PAGE 22


      0100120BH   LINE      ---      ---       #277
      0100120DH   LINE      ---      ---       #278
      0100120FH   LINE      ---      ---       #279
      01001212H   LINE      ---      ---       #281
      ---         BLOCKEND  ---      ---       LVL=0

      01001213H   BLOCK     CODE     ---       LVL=0
      01001213H   LINE      ---      ---       #282
      01001213H   LINE      ---      ---       #283
      01001213H   LINE      ---      ---       #284
      01001226H   LINE      ---      ---       #285
      01001239H   LINE      ---      ---       #286
      0100124CH   LINE      ---      ---       #288
      0100125FH   LINE      ---      ---       #289
      01001272H   LINE      ---      ---       #290
      01001285H   LINE      ---      ---       #291
      ---         BLOCKEND  ---      ---       LVL=0

      01001286H   BLOCK     CODE     ---       LVL=0
      01001286H   LINE      ---      ---       #292
      01001286H   LINE      ---      ---       #293
      01001286H   LINE      ---      ---       #294
      01001299H   LINE      ---      ---       #295
      010012ACH   LINE      ---      ---       #296
      010012BFH   LINE      ---      ---       #297
      010012D2H   LINE      ---      ---       #298
      010012E5H   LINE      ---      ---       #299
      010012F8H   LINE      ---      ---       #301
      ---         BLOCKEND  ---      ---       LVL=0

      010012F9H   BLOCK     CODE     ---       LVL=0
      010012F9H   LINE      ---      ---       #307
      010012F9H   LINE      ---      ---       #308
      010012F9H   LINE      ---      ---       #309
      010012FCH   LINE      ---      ---       #310
      010012FFH   LINE      ---      ---       #311
      01001302H   LINE      ---      ---       #312
      01001304H   LINE      ---      ---       #313
      ---         BLOCKEND  ---      ---       LVL=0

      01001305H   BLOCK     CODE     ---       LVL=0
      01001305H   LINE      ---      ---       #319
      01001305H   LINE      ---      ---       #320
      01001305H   LINE      ---      ---       #322
      01001308H   LINE      ---      ---       #323
      0100130BH   LINE      ---      ---       #324
      0100130EH   LINE      ---      ---       #325
      01001310H   LINE      ---      ---       #326
      ---         BLOCKEND  ---      ---       LVL=0

      01000052H   BLOCK     CODE     ---       LVL=0
      01000052H   LINE      ---      ---       #332
      01000052H   LINE      ---      ---       #333
      01000052H   LINE      ---      ---       #334
      01000054H   LINE      ---      ---       #335
      01000056H   LINE      ---      ---       #336
      01000058H   LINE      ---      ---       #337
      0100005AH   LINE      ---      ---       #338
      ---         BLOCKEND  ---      ---       LVL=0

      01001311H   BLOCK     CODE     ---       LVL=0
      01001311H   LINE      ---      ---       #345
      01001311H   LINE      ---      ---       #346
      01001311H   LINE      ---      ---       #347
      01001313H   LINE      ---      ---       #348
LX51 LINKER/LOCATER V4.66.1.0                                                         10/28/2019  14:49:17  PAGE 23


      01001315H   LINE      ---      ---       #349
      01001317H   LINE      ---      ---       #350
      01001319H   LINE      ---      ---       #351
      ---         BLOCKEND  ---      ---       LVL=0

      01000536H   BLOCK     CODE     ---       LVL=0
      01000536H   LINE      ---      ---       #357
      01000536H   LINE      ---      ---       #358
      01000536H   BLOCK     CODE     NEAR LAB  LVL=1
      01000536H   LINE      ---      ---       #361
      01000539H   LINE      ---      ---       #362
      0100053BH   LINE      ---      ---       #363
      0100054BH   LINE      ---      ---       #365
      0100054EH   LINE      ---      ---       #368
      01000551H   LINE      ---      ---       #369
      0100055CH   LINE      ---      ---       #372
      0100055EH   LINE      ---      ---       #373
      01000561H   LINE      ---      ---       #374
      01000564H   LINE      ---      ---       #375
      01000567H   LINE      ---      ---       #376
      0100056AH   LINE      ---      ---       #379
      0100056AH   LINE      ---      ---       #380
      0100056AH   LINE      ---      ---       #389
      01000573H   LINE      ---      ---       #390
      01000583H   LINE      ---      ---       #391
      01000586H   LINE      ---      ---       #392
      01000589H   LINE      ---      ---       #393
      0100058CH   LINE      ---      ---       #394
      0100058CH   LINE      ---      ---       #395
      0100058FH   LINE      ---      ---       #399
      02000007H   SYMBOL    XDATA    WORD      BG_1_22V
      02000009H   SYMBOL    XDATA    WORD      VDD_VAL
      ---         BLOCKEND  CODE     ---       LVL=1
      ---         BLOCKEND  CODE     ---       LVL=0

      ---         MODULE    ---      ---       MAIN
      00000020H.1 PUBLIC    BIT      BIT       SL_SC7A21_Click_Timer_Cnt_f
      01000592H   PUBLIC    CODE     ---       main
      01000016H   PUBLIC    CODE     ---       SL_Close_Sc7a21_Click_Timer
      01000006H   PUBLIC    CODE     ---       SL_Open_Sc7a21_Click_Timer
      000000F6H   SFRSYM    DATA     BYTE      AINDIDS
      000000B1H   SFRSYM    DATA     BYTE      P0M1
      000000B3H   SFRSYM    DATA     BYTE      P1M1
      000000B2H   SFRSYM    DATA     BYTE      P0M2
      00000080H   SFRSYM    DATA     BYTE      P0
      000000BBH   SFRSYM    DATA     BYTE      SADDR_1
      000000B4H   SFRSYM    DATA     BYTE      P1M2
      00000090H   SFRSYM    DATA     BYTE      P1
      000000C0H.2 SFRSYM    DATA     BIT       AA
      000000ACH   SFRSYM    DATA     BYTE      P3M1
      000000A0H   SFRSYM    DATA     BYTE      P2
      000000B0H   SFRSYM    DATA     BYTE      P3
      000000ADH   SFRSYM    DATA     BYTE      P3M2
      000000D0H.6 SFRSYM    DATA     BIT       AC
      0000008FH   SFRSYM    DATA     BYTE      WKCON
      0000009CH   SFRSYM    DATA     BYTE      EIE1
      000000A8H.7 SFRSYM    DATA     BIT       EA
      000000D8H   SFRSYM    DATA     BYTE      PWMCON0
      000000DFH   SFRSYM    DATA     BYTE      PWMCON1
      00000098H.7 SFRSYM    DATA     BIT       FE
      000000A8H.6 SFRSYM    DATA     BIT       EADC
      000000D1H   SFRSYM    DATA     BYTE      PWMPH
      000000A8H   SFRSYM    DATA     BYTE      IE
      00000096H   SFRSYM    DATA     BYTE      CKSWT
      000000E8H.7 SFRSYM    DATA     BIT       ADCF
LX51 LINKER/LOCATER V4.66.1.0                                                         10/28/2019  14:49:17  PAGE 24


      000000FEH   SFRSYM    DATA     BYTE      EIP1
      000000D9H   SFRSYM    DATA     BYTE      PWMPL
      000000E8H   SFRSYM    DATA     BIT       ADCHS0
      000000C7H   SFRSYM    DATA     BYTE      TA
      000000E8H.1 SFRSYM    DATA     BIT       ADCHS1
      000000E8H.2 SFRSYM    DATA     BIT       ADCHS2
      000000E8H.3 SFRSYM    DATA     BIT       ADCHS3
      000000A8H.4 SFRSYM    DATA     BIT       ES
      000000C1H   SFRSYM    DATA     BYTE      I2ADDR
      000000B8H.6 SFRSYM    DATA     BIT       PADC
      000000B8H   SFRSYM    DATA     BYTE      IP
      000000A8H.5 SFRSYM    DATA     BIT       EBOD
      00000098H   SFRSYM    DATA     BIT       RI
      000000F8H.7 SFRSYM    DATA     BIT       FE_1
      000000E8H.6 SFRSYM    DATA     BIT       ADCS
      000000D0H.7 SFRSYM    DATA     BIT       CY
      000000C0H.3 SFRSYM    DATA     BIT       SI
      000000B0H   SFRSYM    DATA     BIT       INT0
      00000098H.1 SFRSYM    DATA     BIT       TI
      000000D8H.6 SFRSYM    DATA     BIT       LOAD
      00000097H   SFRSYM    DATA     BYTE      CKEN
      000000B8H.4 SFRSYM    DATA     BIT       PS
      00000081H   SFRSYM    DATA     BYTE      SP
      000000D0H.2 SFRSYM    DATA     BIT       OV
      000000B7H   SFRSYM    DATA     BYTE      PWMINTC
      000000B8H.5 SFRSYM    DATA     BIT       PBOD
      000000B2H   SFRSYM    DATA     BYTE      P0SR
      000000F7H   SFRSYM    DATA     BYTE      EIPH
      000000B4H   SFRSYM    DATA     BYTE      P1SR
      000000ADH   SFRSYM    DATA     BYTE      P3SR
      000000F8H   SFRSYM    DATA     BIT       RI_1
      000000F8H.1 SFRSYM    DATA     BIT       TI_1
      000000CBH   SFRSYM    DATA     BYTE      RCMP2H
      000000CFH   SFRSYM    DATA     BYTE      ADCMPH
      00000080H   SFRSYM    DATA     BIT       P00
      00000090H   SFRSYM    DATA     BIT       P10
      00000080H.1 SFRSYM    DATA     BIT       P01
      000000FBH   SFRSYM    DATA     BYTE      PMEN
      00000099H   SFRSYM    DATA     BYTE      SBUF
      00000087H   SFRSYM    DATA     BYTE      PCON
      000000A0H   SFRSYM    DATA     BIT       P20
      00000090H.1 SFRSYM    DATA     BIT       P11
      00000080H.2 SFRSYM    DATA     BIT       P02
      000000CAH   SFRSYM    DATA     BYTE      RCMP2L
      000000B0H   SFRSYM    DATA     BIT       P30
      00000090H.2 SFRSYM    DATA     BIT       P12
      00000080H.3 SFRSYM    DATA     BIT       P03
      000000E3H   SFRSYM    DATA     BYTE      ADCDLY
      000000CEH   SFRSYM    DATA     BYTE      ADCMPL
      00000090H.3 SFRSYM    DATA     BIT       P13
      00000080H.4 SFRSYM    DATA     BIT       P04
      00000098H   SFRSYM    DATA     BYTE      SCON
      00000090H.4 SFRSYM    DATA     BIT       P14
      00000080H.5 SFRSYM    DATA     BIT       P05
      00000089H   SFRSYM    DATA     BYTE      TMOD
      00000088H   SFRSYM    DATA     BYTE      TCON
      00000090H.5 SFRSYM    DATA     BIT       P15
      00000080H.6 SFRSYM    DATA     BIT       P06
      00000090H.6 SFRSYM    DATA     BIT       P16
      00000080H.7 SFRSYM    DATA     BIT       P07
      00000090H.7 SFRSYM    DATA     BIT       P17
      000000F3H   SFRSYM    DATA     BYTE      SPCR
      000000BDH   SFRSYM    DATA     BYTE      I2STAT
      000000F5H   SFRSYM    DATA     BYTE      SPDR
      000000D8H.5 SFRSYM    DATA     BIT       PWMF
LX51 LINKER/LOCATER V4.66.1.0                                                         10/28/2019  14:49:17  PAGE 25


      000000E5H   SFRSYM    DATA     BYTE      C0H
      000000E7H   SFRSYM    DATA     BYTE      C1H
      000000EEH   SFRSYM    DATA     BYTE      C2H
      0000009FH   SFRSYM    DATA     BYTE      CHPCON
      00000088H.1 SFRSYM    DATA     BIT       IE0
      00000088H.3 SFRSYM    DATA     BIT       IE1
      000000E4H   SFRSYM    DATA     BYTE      C0L
      00000091H   SFRSYM    DATA     BYTE      SFRS
      000000E6H   SFRSYM    DATA     BYTE      C1L
      000000C8H   SFRSYM    DATA     BIT       CM_RL2
      000000F0H   SFRSYM    DATA     BYTE      B
      000000EDH   SFRSYM    DATA     BYTE      C2L
      0000009AH   SFRSYM    DATA     BYTE      SBUF_1
      000000A5H   SFRSYM    DATA     BYTE      IAPUEN
      000000F8H   SFRSYM    DATA     BYTE      SCON_1
      000000E0H   SFRSYM    DATA     BYTE      ACC
      000000A8H.1 SFRSYM    DATA     BIT       ET0
      000000F4H   SFRSYM    DATA     BYTE      SPSR
      000000A4H   SFRSYM    DATA     BYTE      IAPTRG
      000000A8H.3 SFRSYM    DATA     BIT       ET1
      00000088H.5 SFRSYM    DATA     BIT       TF0
      00000088H.7 SFRSYM    DATA     BIT       TF1
      000000C8H.7 SFRSYM    DATA     BIT       TF2
      00000098H.2 SFRSYM    DATA     BIT       RB8
      000000D7H   SFRSYM    DATA     BYTE      FBD
      0000008CH   SFRSYM    DATA     BYTE      TH0
      000000A8H   SFRSYM    DATA     BIT       EX0
      00000088H   SFRSYM    DATA     BIT       IT0
      000000C6H   SFRSYM    DATA     BYTE      RH3
      0000008DH   SFRSYM    DATA     BYTE      TH1
      000000A8H.2 SFRSYM    DATA     BIT       EX1
      00000098H.3 SFRSYM    DATA     BIT       TB8
      00000088H.2 SFRSYM    DATA     BIT       IT1
      000000CDH   SFRSYM    DATA     BYTE      TH2
      000000D0H   SFRSYM    DATA     BIT       P
      000000FAH   SFRSYM    DATA     BYTE      PDTCNT
      00000098H.7 SFRSYM    DATA     BIT       SM0
      0000008AH   SFRSYM    DATA     BYTE      TL0
      00000098H.6 SFRSYM    DATA     BIT       SM1
      000000C5H   SFRSYM    DATA     BYTE      RL3
      0000008BH   SFRSYM    DATA     BYTE      TL1
      000000C0H.6 SFRSYM    DATA     BIT       I2CEN
      00000098H.5 SFRSYM    DATA     BIT       SM2
      000000CCH   SFRSYM    DATA     BYTE      TL2
      000000B1H   SFRSYM    DATA     BYTE      P0S
      0000009BH   SFRSYM    DATA     BYTE      EIE
      000000B8H.1 SFRSYM    DATA     BIT       PT0
      000000B3H   SFRSYM    DATA     BYTE      P1S
      000000D0H.3 SFRSYM    DATA     BIT       RS0
      000000B8H.3 SFRSYM    DATA     BIT       PT1
      000000BCH   SFRSYM    DATA     BYTE      I2DAT
      000000B5H   SFRSYM    DATA     BYTE      P2S
      000000D0H.4 SFRSYM    DATA     BIT       RS1
      00000088H.4 SFRSYM    DATA     BIT       TR0
      000000BEH   SFRSYM    DATA     BYTE      I2CLK
      000000ACH   SFRSYM    DATA     BYTE      P3S
      000000D8H.4 SFRSYM    DATA     BIT       CLRPWM
      00000088H.6 SFRSYM    DATA     BIT       TR1
      000000C8H.2 SFRSYM    DATA     BIT       TR2
      000000B8H   SFRSYM    DATA     BIT       PX0
      00000090H.4 SFRSYM    DATA     BIT       SDA
      000000FFH   SFRSYM    DATA     BYTE      EIPH1
      000000B8H.2 SFRSYM    DATA     BIT       PX1
      000000E8H   SFRSYM    DATA     BYTE      ADCCON0
      000000E1H   SFRSYM    DATA     BYTE      ADCCON1
LX51 LINKER/LOCATER V4.66.1.0                                                         10/28/2019  14:49:17  PAGE 26


      000000E2H   SFRSYM    DATA     BYTE      ADCCON2
      000000C0H   SFRSYM    DATA     BYTE      I2CON
      00000083H   SFRSYM    DATA     BYTE      DPH
      000000F8H.2 SFRSYM    DATA     BIT       RB8_1
      000000EFH   SFRSYM    DATA     BYTE      EIP
      000000F8H.3 SFRSYM    DATA     BIT       TB8_1
      000000ECH   SFRSYM    DATA     BYTE      PIF
      00000082H   SFRSYM    DATA     BYTE      DPL
      000000F8H.7 SFRSYM    DATA     BIT       SM0_1
      000000FCH   SFRSYM    DATA     BYTE      PMD
      000000B7H   SFRSYM    DATA     BYTE      IPH
      000000F8H.6 SFRSYM    DATA     BIT       SM1_1
      00000090H.3 SFRSYM    DATA     BIT       SCL
      000000BFH   SFRSYM    DATA     BYTE      I2TOC
      000000F8H.5 SFRSYM    DATA     BIT       SM2_1
      000000C3H   SFRSYM    DATA     BYTE      ADCRH
      000000A7H   SFRSYM    DATA     BYTE      IAPAH
      00000098H.4 SFRSYM    DATA     BIT       REN
      000000AEH   SFRSYM    DATA     BYTE      IAPFD
      00000092H   SFRSYM    DATA     BYTE      CAPCON0
      000000C0H   SFRSYM    DATA     BIT       I2CPX
      000000C9H   SFRSYM    DATA     BYTE      T2MOD
      000000C8H   SFRSYM    DATA     BYTE      T2CON
      000000C2H   SFRSYM    DATA     BYTE      ADCRL
      000000A3H   SFRSYM    DATA     BYTE      BODCON0
      00000093H   SFRSYM    DATA     BYTE      CAPCON1
      000000C0H.5 SFRSYM    DATA     BIT       STA
      000000C4H   SFRSYM    DATA     BYTE      T3CON
      000000ABH   SFRSYM    DATA     BYTE      BODCON1
      000000A6H   SFRSYM    DATA     BYTE      IAPAL
      00000094H   SFRSYM    DATA     BYTE      CAPCON2
      000000F1H   SFRSYM    DATA     BYTE      CAPCON3
      000000F2H   SFRSYM    DATA     BYTE      CAPCON4
      000000D8H.7 SFRSYM    DATA     BIT       PWMRUN
      000000F3H   SFRSYM    DATA     BYTE      SPCR2
      000000B9H   SFRSYM    DATA     BYTE      SADEN
      000000AFH   SFRSYM    DATA     BYTE      IAPCN
      000000D2H   SFRSYM    DATA     BYTE      PWM0H
      000000D6H   SFRSYM    DATA     BYTE      PNP
      000000D3H   SFRSYM    DATA     BYTE      PWM1H
      000000D4H   SFRSYM    DATA     BYTE      PWM2H
      000000A9H   SFRSYM    DATA     BYTE      SADDR
      0000008EH   SFRSYM    DATA     BYTE      CKCON
      000000D5H   SFRSYM    DATA     BYTE      PWM3H
      000000DAH   SFRSYM    DATA     BYTE      PWM0L
      000000C4H   SFRSYM    DATA     BYTE      PWM4H
      000000DBH   SFRSYM    DATA     BYTE      PWM1L
      000000C5H   SFRSYM    DATA     BYTE      PWM5H
      000000A2H   SFRSYM    DATA     BYTE      AUXR1
      00000095H   SFRSYM    DATA     BYTE      CKDIV
      000000DCH   SFRSYM    DATA     BYTE      PWM2L
      000000DDH   SFRSYM    DATA     BYTE      PWM3L
      00000086H   SFRSYM    DATA     BYTE      RWK
      000000D0H.5 SFRSYM    DATA     BIT       F0
      000000CCH   SFRSYM    DATA     BYTE      PWM4L
      000000F8H.4 SFRSYM    DATA     BIT       REN_1
      000000E8H.4 SFRSYM    DATA     BIT       ETGSEL0
      000000C0H.4 SFRSYM    DATA     BIT       STO
      000000CDH   SFRSYM    DATA     BYTE      PWM5L
      000000E8H.5 SFRSYM    DATA     BIT       ETGSEL1
      000000E9H   SFRSYM    DATA     BYTE      PICON
      000000DEH   SFRSYM    DATA     BYTE      PIOCON0
      000000D0H   SFRSYM    DATA     BYTE      PSW
      000000EAH   SFRSYM    DATA     BYTE      PINEN
      000000C6H   SFRSYM    DATA     BYTE      PIOCON1
LX51 LINKER/LOCATER V4.66.1.0                                                         10/28/2019  14:49:17  PAGE 27


      000000F9H   SFRSYM    DATA     BYTE      PDTEN
      000000AAH   SFRSYM    DATA     BYTE      WDCON
      000000EBH   SFRSYM    DATA     BYTE      PIPEN
      000000BAH   SFRSYM    DATA     BYTE      SADEN_1

      01000006H   BLOCK     CODE     ---       LVL=0
      01000006H   LINE      ---      ---       #4
      01000006H   LINE      ---      ---       #5
      ---         BLOCKEND  ---      ---       LVL=0

      01000016H   BLOCK     CODE     ---       LVL=0
      01000016H   LINE      ---      ---       #6
      01000016H   LINE      ---      ---       #7
      ---         BLOCKEND  ---      ---       LVL=0

      01000592H   BLOCK     CODE     ---       LVL=0
      01000592H   LINE      ---      ---       #8
      01000592H   LINE      ---      ---       #9
      01000592H   BLOCK     CODE     NEAR LAB  LVL=1
      01000592H   LINE      ---      ---       #11
      01000597H   LINE      ---      ---       #12
      01000599H   LINE      ---      ---       #15
      01000599H   LINE      ---      ---       #16
      01000599H   LINE      ---      ---       #23
      0100059BH   LINE      ---      ---       #24
      010005A2H   LINE      ---      ---       #25
      010005A2H   LINE      ---      ---       #27
      010005C5H   LINE      ---      ---       #28
      010005EDH   LINE      ---      ---       #29
      010005EDH   LINE      ---      ---       #30
      010005EDH   LINE      ---      ---       #31
      010005EDH   LINE      ---      ---       #34
      010005EDH   LINE      ---      ---       #35
      010005F4H   LINE      ---      ---       #36
      010005F4H   LINE      ---      ---       #37
      010005F7H   LINE      ---      ---       #38
      010005FDH   LINE      ---      ---       #39
      01000602H   LINE      ---      ---       #40
      01000603H   LINE      ---      ---       #41
      01000608H   LINE      ---      ---       #42
      01000634H   LINE      ---      ---       #44
      01000634H   LINE      ---      ---       #45
      0100063BH   LINE      ---      ---       #46
      0100063BH   LINE      ---      ---       #47
      0100063EH   LINE      ---      ---       #49
      0100063EH   LINE      ---      ---       #51
      01000647H   LINE      ---      ---       #52
      01000647H   LINE      ---      ---       #56
      01000647H   LINE      ---      ---       #58
      02000000H   SYMBOL    XDATA    INT       x_agg
      02000002H   SYMBOL    XDATA    INT       y_agg
      02000004H   SYMBOL    XDATA    INT       z_agg
      00000001H   SYMBOL    DATA     BYTE      Click_count
      02000006H   SYMBOL    XDATA    BYTE      SL_SC7A21_Click_Timer_Count
      ---         BLOCKEND  CODE     ---       LVL=1
      ---         BLOCKEND  CODE     ---       LVL=0

      ---         MODULE    ---      ---       ADC
      02000320H   PUBLIC    XDATA    BYTE      adc_position_ready
      0200031EH   PUBLIC    XDATA    WORD      adc_seek_position_value
      0200031CH   PUBLIC    XDATA    WORD      adc_position_value
      01001322H   PUBLIC    CODE     ---       ADC_ISR
      0100131AH   PUBLIC    CODE     ---       ADC_GO
      0100112CH   PUBLIC    CODE     ---       _ADC_Read
      01001123H   PUBLIC    CODE     ---       adc_init
LX51 LINKER/LOCATER V4.66.1.0                                                         10/28/2019  14:49:17  PAGE 28


      000000F6H   SFRSYM    DATA     BYTE      AINDIDS
      000000B1H   SFRSYM    DATA     BYTE      P0M1
      000000B3H   SFRSYM    DATA     BYTE      P1M1
      000000B2H   SFRSYM    DATA     BYTE      P0M2
      00000080H   SFRSYM    DATA     BYTE      P0
      000000BBH   SFRSYM    DATA     BYTE      SADDR_1
      000000B4H   SFRSYM    DATA     BYTE      P1M2
      00000090H   SFRSYM    DATA     BYTE      P1
      000000C0H.2 SFRSYM    DATA     BIT       AA
      000000ACH   SFRSYM    DATA     BYTE      P3M1
      000000A0H   SFRSYM    DATA     BYTE      P2
      000000B0H   SFRSYM    DATA     BYTE      P3
      000000ADH   SFRSYM    DATA     BYTE      P3M2
      000000D0H.6 SFRSYM    DATA     BIT       AC
      0000008FH   SFRSYM    DATA     BYTE      WKCON
      0000009CH   SFRSYM    DATA     BYTE      EIE1
      000000A8H.7 SFRSYM    DATA     BIT       EA
      000000D8H   SFRSYM    DATA     BYTE      PWMCON0
      000000DFH   SFRSYM    DATA     BYTE      PWMCON1
      00000098H.7 SFRSYM    DATA     BIT       FE
      000000A8H.6 SFRSYM    DATA     BIT       EADC
      000000D1H   SFRSYM    DATA     BYTE      PWMPH
      000000A8H   SFRSYM    DATA     BYTE      IE
      00000096H   SFRSYM    DATA     BYTE      CKSWT
      000000E8H.7 SFRSYM    DATA     BIT       ADCF
      000000FEH   SFRSYM    DATA     BYTE      EIP1
      000000D9H   SFRSYM    DATA     BYTE      PWMPL
      000000E8H   SFRSYM    DATA     BIT       ADCHS0
      000000C7H   SFRSYM    DATA     BYTE      TA
      000000E8H.1 SFRSYM    DATA     BIT       ADCHS1
      000000E8H.2 SFRSYM    DATA     BIT       ADCHS2
      000000E8H.3 SFRSYM    DATA     BIT       ADCHS3
      000000A8H.4 SFRSYM    DATA     BIT       ES
      000000C1H   SFRSYM    DATA     BYTE      I2ADDR
      000000B8H.6 SFRSYM    DATA     BIT       PADC
      000000B8H   SFRSYM    DATA     BYTE      IP
      000000A8H.5 SFRSYM    DATA     BIT       EBOD
      00000098H   SFRSYM    DATA     BIT       RI
      000000F8H.7 SFRSYM    DATA     BIT       FE_1
      000000E8H.6 SFRSYM    DATA     BIT       ADCS
      000000D0H.7 SFRSYM    DATA     BIT       CY
      000000C0H.3 SFRSYM    DATA     BIT       SI
      000000B0H   SFRSYM    DATA     BIT       INT0
      00000098H.1 SFRSYM    DATA     BIT       TI
      000000D8H.6 SFRSYM    DATA     BIT       LOAD
      00000097H   SFRSYM    DATA     BYTE      CKEN
      000000B8H.4 SFRSYM    DATA     BIT       PS
      00000081H   SFRSYM    DATA     BYTE      SP
      000000D0H.2 SFRSYM    DATA     BIT       OV
      000000B7H   SFRSYM    DATA     BYTE      PWMINTC
      000000B8H.5 SFRSYM    DATA     BIT       PBOD
      000000B2H   SFRSYM    DATA     BYTE      P0SR
      000000F7H   SFRSYM    DATA     BYTE      EIPH
      000000B4H   SFRSYM    DATA     BYTE      P1SR
      000000ADH   SFRSYM    DATA     BYTE      P3SR
      000000F8H   SFRSYM    DATA     BIT       RI_1
      000000F8H.1 SFRSYM    DATA     BIT       TI_1
      000000CBH   SFRSYM    DATA     BYTE      RCMP2H
      000000CFH   SFRSYM    DATA     BYTE      ADCMPH
      00000080H   SFRSYM    DATA     BIT       P00
      00000090H   SFRSYM    DATA     BIT       P10
      00000080H.1 SFRSYM    DATA     BIT       P01
      000000FBH   SFRSYM    DATA     BYTE      PMEN
      00000099H   SFRSYM    DATA     BYTE      SBUF
      00000087H   SFRSYM    DATA     BYTE      PCON
LX51 LINKER/LOCATER V4.66.1.0                                                         10/28/2019  14:49:17  PAGE 29


      000000A0H   SFRSYM    DATA     BIT       P20
      00000090H.1 SFRSYM    DATA     BIT       P11
      00000080H.2 SFRSYM    DATA     BIT       P02
      000000CAH   SFRSYM    DATA     BYTE      RCMP2L
      000000B0H   SFRSYM    DATA     BIT       P30
      00000090H.2 SFRSYM    DATA     BIT       P12
      00000080H.3 SFRSYM    DATA     BIT       P03
      000000E3H   SFRSYM    DATA     BYTE      ADCDLY
      000000CEH   SFRSYM    DATA     BYTE      ADCMPL
      00000090H.3 SFRSYM    DATA     BIT       P13
      00000080H.4 SFRSYM    DATA     BIT       P04
      00000098H   SFRSYM    DATA     BYTE      SCON
      00000090H.4 SFRSYM    DATA     BIT       P14
      00000080H.5 SFRSYM    DATA     BIT       P05
      00000089H   SFRSYM    DATA     BYTE      TMOD
      00000088H   SFRSYM    DATA     BYTE      TCON
      00000090H.5 SFRSYM    DATA     BIT       P15
      00000080H.6 SFRSYM    DATA     BIT       P06
      00000090H.6 SFRSYM    DATA     BIT       P16
      00000080H.7 SFRSYM    DATA     BIT       P07
      00000090H.7 SFRSYM    DATA     BIT       P17
      000000F3H   SFRSYM    DATA     BYTE      SPCR
      000000BDH   SFRSYM    DATA     BYTE      I2STAT
      000000F5H   SFRSYM    DATA     BYTE      SPDR
      000000D8H.5 SFRSYM    DATA     BIT       PWMF
      000000E5H   SFRSYM    DATA     BYTE      C0H
      000000E7H   SFRSYM    DATA     BYTE      C1H
      000000EEH   SFRSYM    DATA     BYTE      C2H
      0000009FH   SFRSYM    DATA     BYTE      CHPCON
      00000088H.1 SFRSYM    DATA     BIT       IE0
      00000088H.3 SFRSYM    DATA     BIT       IE1
      000000E4H   SFRSYM    DATA     BYTE      C0L
      00000091H   SFRSYM    DATA     BYTE      SFRS
      000000E6H   SFRSYM    DATA     BYTE      C1L
      000000C8H   SFRSYM    DATA     BIT       CM_RL2
      000000F0H   SFRSYM    DATA     BYTE      B
      000000EDH   SFRSYM    DATA     BYTE      C2L
      0000009AH   SFRSYM    DATA     BYTE      SBUF_1
      000000A5H   SFRSYM    DATA     BYTE      IAPUEN
      000000F8H   SFRSYM    DATA     BYTE      SCON_1
      000000E0H   SFRSYM    DATA     BYTE      ACC
      000000A8H.1 SFRSYM    DATA     BIT       ET0
      000000F4H   SFRSYM    DATA     BYTE      SPSR
      000000A4H   SFRSYM    DATA     BYTE      IAPTRG
      000000A8H.3 SFRSYM    DATA     BIT       ET1
      00000088H.5 SFRSYM    DATA     BIT       TF0
      00000088H.7 SFRSYM    DATA     BIT       TF1
      000000C8H.7 SFRSYM    DATA     BIT       TF2
      00000098H.2 SFRSYM    DATA     BIT       RB8
      000000D7H   SFRSYM    DATA     BYTE      FBD
      0000008CH   SFRSYM    DATA     BYTE      TH0
      000000A8H   SFRSYM    DATA     BIT       EX0
      00000088H   SFRSYM    DATA     BIT       IT0
      000000C6H   SFRSYM    DATA     BYTE      RH3
      0000008DH   SFRSYM    DATA     BYTE      TH1
      000000A8H.2 SFRSYM    DATA     BIT       EX1
      00000098H.3 SFRSYM    DATA     BIT       TB8
      00000088H.2 SFRSYM    DATA     BIT       IT1
      000000CDH   SFRSYM    DATA     BYTE      TH2
      000000D0H   SFRSYM    DATA     BIT       P
      000000FAH   SFRSYM    DATA     BYTE      PDTCNT
      00000098H.7 SFRSYM    DATA     BIT       SM0
      0000008AH   SFRSYM    DATA     BYTE      TL0
      00000098H.6 SFRSYM    DATA     BIT       SM1
      000000C5H   SFRSYM    DATA     BYTE      RL3
LX51 LINKER/LOCATER V4.66.1.0                                                         10/28/2019  14:49:17  PAGE 30


      0000008BH   SFRSYM    DATA     BYTE      TL1
      000000C0H.6 SFRSYM    DATA     BIT       I2CEN
      00000098H.5 SFRSYM    DATA     BIT       SM2
      000000CCH   SFRSYM    DATA     BYTE      TL2
      000000B1H   SFRSYM    DATA     BYTE      P0S
      0000009BH   SFRSYM    DATA     BYTE      EIE
      000000B8H.1 SFRSYM    DATA     BIT       PT0
      000000B3H   SFRSYM    DATA     BYTE      P1S
      000000D0H.3 SFRSYM    DATA     BIT       RS0
      000000B8H.3 SFRSYM    DATA     BIT       PT1
      000000BCH   SFRSYM    DATA     BYTE      I2DAT
      000000B5H   SFRSYM    DATA     BYTE      P2S
      000000D0H.4 SFRSYM    DATA     BIT       RS1
      00000088H.4 SFRSYM    DATA     BIT       TR0
      000000BEH   SFRSYM    DATA     BYTE      I2CLK
      000000ACH   SFRSYM    DATA     BYTE      P3S
      000000D8H.4 SFRSYM    DATA     BIT       CLRPWM
      00000088H.6 SFRSYM    DATA     BIT       TR1
      000000C8H.2 SFRSYM    DATA     BIT       TR2
      000000B8H   SFRSYM    DATA     BIT       PX0
      00000090H.4 SFRSYM    DATA     BIT       SDA
      000000FFH   SFRSYM    DATA     BYTE      EIPH1
      000000B8H.2 SFRSYM    DATA     BIT       PX1
      000000E8H   SFRSYM    DATA     BYTE      ADCCON0
      000000E1H   SFRSYM    DATA     BYTE      ADCCON1
      000000E2H   SFRSYM    DATA     BYTE      ADCCON2
      000000C0H   SFRSYM    DATA     BYTE      I2CON
      00000083H   SFRSYM    DATA     BYTE      DPH
      000000F8H.2 SFRSYM    DATA     BIT       RB8_1
      000000EFH   SFRSYM    DATA     BYTE      EIP
      000000F8H.3 SFRSYM    DATA     BIT       TB8_1
      000000ECH   SFRSYM    DATA     BYTE      PIF
      00000082H   SFRSYM    DATA     BYTE      DPL
      000000F8H.7 SFRSYM    DATA     BIT       SM0_1
      000000FCH   SFRSYM    DATA     BYTE      PMD
      000000B7H   SFRSYM    DATA     BYTE      IPH
      000000F8H.6 SFRSYM    DATA     BIT       SM1_1
      00000090H.3 SFRSYM    DATA     BIT       SCL
      000000BFH   SFRSYM    DATA     BYTE      I2TOC
      000000F8H.5 SFRSYM    DATA     BIT       SM2_1
      000000C3H   SFRSYM    DATA     BYTE      ADCRH
      000000A7H   SFRSYM    DATA     BYTE      IAPAH
      00000098H.4 SFRSYM    DATA     BIT       REN
      000000AEH   SFRSYM    DATA     BYTE      IAPFD
      00000092H   SFRSYM    DATA     BYTE      CAPCON0
      000000C0H   SFRSYM    DATA     BIT       I2CPX
      000000C9H   SFRSYM    DATA     BYTE      T2MOD
      000000C8H   SFRSYM    DATA     BYTE      T2CON
      000000C2H   SFRSYM    DATA     BYTE      ADCRL
      000000A3H   SFRSYM    DATA     BYTE      BODCON0
      00000093H   SFRSYM    DATA     BYTE      CAPCON1
      000000C0H.5 SFRSYM    DATA     BIT       STA
      000000C4H   SFRSYM    DATA     BYTE      T3CON
      000000ABH   SFRSYM    DATA     BYTE      BODCON1
      000000A6H   SFRSYM    DATA     BYTE      IAPAL
      00000094H   SFRSYM    DATA     BYTE      CAPCON2
      000000F1H   SFRSYM    DATA     BYTE      CAPCON3
      000000F2H   SFRSYM    DATA     BYTE      CAPCON4
      000000D8H.7 SFRSYM    DATA     BIT       PWMRUN
      000000F3H   SFRSYM    DATA     BYTE      SPCR2
      000000B9H   SFRSYM    DATA     BYTE      SADEN
      000000AFH   SFRSYM    DATA     BYTE      IAPCN
      000000D2H   SFRSYM    DATA     BYTE      PWM0H
      000000D6H   SFRSYM    DATA     BYTE      PNP
      000000D3H   SFRSYM    DATA     BYTE      PWM1H
LX51 LINKER/LOCATER V4.66.1.0                                                         10/28/2019  14:49:17  PAGE 31


      000000D4H   SFRSYM    DATA     BYTE      PWM2H
      000000A9H   SFRSYM    DATA     BYTE      SADDR
      0000008EH   SFRSYM    DATA     BYTE      CKCON
      000000D5H   SFRSYM    DATA     BYTE      PWM3H
      000000DAH   SFRSYM    DATA     BYTE      PWM0L
      000000C4H   SFRSYM    DATA     BYTE      PWM4H
      000000DBH   SFRSYM    DATA     BYTE      PWM1L
      000000C5H   SFRSYM    DATA     BYTE      PWM5H
      000000A2H   SFRSYM    DATA     BYTE      AUXR1
      00000095H   SFRSYM    DATA     BYTE      CKDIV
      000000DCH   SFRSYM    DATA     BYTE      PWM2L
      000000DDH   SFRSYM    DATA     BYTE      PWM3L
      00000086H   SFRSYM    DATA     BYTE      RWK
      000000D0H.5 SFRSYM    DATA     BIT       F0
      000000CCH   SFRSYM    DATA     BYTE      PWM4L
      000000F8H.4 SFRSYM    DATA     BIT       REN_1
      000000E8H.4 SFRSYM    DATA     BIT       ETGSEL0
      000000C0H.4 SFRSYM    DATA     BIT       STO
      000000CDH   SFRSYM    DATA     BYTE      PWM5L
      000000E8H.5 SFRSYM    DATA     BIT       ETGSEL1
      000000E9H   SFRSYM    DATA     BYTE      PICON
      000000DEH   SFRSYM    DATA     BYTE      PIOCON0
      000000D0H   SFRSYM    DATA     BYTE      PSW
      000000EAH   SFRSYM    DATA     BYTE      PINEN
      000000C6H   SFRSYM    DATA     BYTE      PIOCON1
      000000F9H   SFRSYM    DATA     BYTE      PDTEN
      000000AAH   SFRSYM    DATA     BYTE      WDCON
      000000EBH   SFRSYM    DATA     BYTE      PIPEN
      000000BAH   SFRSYM    DATA     BYTE      SADEN_1

      01001123H   BLOCK     CODE     ---       LVL=0
      01001123H   LINE      ---      ---       #15
      01001123H   LINE      ---      ---       #16
      01001123H   LINE      ---      ---       #20
      01001126H   LINE      ---      ---       #21
      01001129H   LINE      ---      ---       #22
      0100112BH   LINE      ---      ---       #24
      ---         BLOCKEND  ---      ---       LVL=0

      0100112CH   BLOCK     CODE     ---       LVL=0
      0100112CH   LINE      ---      ---       #26
      0100112CH   LINE      ---      ---       #27
      00000007H   SYMBOL    DATA     BYTE      CHS
      0100112CH   BLOCK     CODE     NEAR LAB  LVL=1
      0100112CH   LINE      ---      ---       #28
      0100113FH   LINE      ---      ---       #29
      01001144H   LINE      ---      ---       #30
      01001146H   LINE      ---      ---       #31
      01001148H   LINE      ---      ---       #32
      0100114BH   LINE      ---      ---       #33
      0100114DH   LINE      ---      ---       #34
      01001161H   LINE      ---      ---       #35
      01001174H   LINE      ---      ---       #36
      01001174H   LINE      ---      ---       #37
      00000006H   SYMBOL    DATA     WORD      new_value
      ---         BLOCKEND  CODE     ---       LVL=1
      ---         BLOCKEND  CODE     ---       LVL=0

      0100131AH   BLOCK     CODE     ---       LVL=0
      0100131AH   LINE      ---      ---       #43
      0100131AH   LINE      ---      ---       #44
      0100131AH   LINE      ---      ---       #45
      0100131DH   LINE      ---      ---       #46
      0100131FH   LINE      ---      ---       #47
      01001321H   LINE      ---      ---       #48
LX51 LINKER/LOCATER V4.66.1.0                                                         10/28/2019  14:49:17  PAGE 32


      ---         BLOCKEND  ---      ---       LVL=0

      01001322H   BLOCK     CODE     ---       LVL=0
      01001335H   LINE      ---      ---       #92
      01001335H   BLOCK     CODE     NEAR LAB  LVL=1
      01001335H   LINE      ---      ---       #94
      0100134FH   LINE      ---      ---       #96
      01001351H   LINE      ---      ---       #117
      02000260H   SYMBOL    XDATA    WORD      new_value
      ---         BLOCKEND  CODE     ---       LVL=1
      ---         BLOCKEND  CODE     ---       LVL=0

      ---         MODULE    ---      ---       EEPROM
      01001523H   PUBLIC    CODE     ---       eeprom_save_registers
      01001501H   PUBLIC    CODE     ---       eeprom_restore_registers
      01001448H   PUBLIC    CODE     ---       eeprom_erase
      01001465H   PUBLIC    CODE     ---       _readrom
      010013EFH   PUBLIC    CODE     ---       _writerom
      02000309H   PUBLIC    XDATA    BYTE      ?_eeprom_write_block?BYTE
      01001543H   PUBLIC    CODE     ---       _eeprom_write_block
      02000302H   PUBLIC    XDATA    BYTE      ?_eeprom_read_block?BYTE
      0100159FH   PUBLIC    CODE     ---       _eeprom_read_block
      010013C5H   PUBLIC    CODE     ---       _WriteDATA_ISP
      01001393H   PUBLIC    CODE     ---       _Write_ISP
      010014D7H   PUBLIC    CODE     ---       _ReadDATA_ISP
      010014F9H   PUBLIC    CODE     ---       _Read_APROM_BYTE
      01001375H   PUBLIC    CODE     ---       _ERASE
      010013B2H   PUBLIC    CODE     ---       ISP_OPEN
      01001362H   PUBLIC    CODE     ---       ISP_DIS
      000000F6H   SFRSYM    DATA     BYTE      AINDIDS
      000000B1H   SFRSYM    DATA     BYTE      P0M1
      000000B3H   SFRSYM    DATA     BYTE      P1M1
      000000B2H   SFRSYM    DATA     BYTE      P0M2
      00000080H   SFRSYM    DATA     BYTE      P0
      000000BBH   SFRSYM    DATA     BYTE      SADDR_1
      000000B4H   SFRSYM    DATA     BYTE      P1M2
      00000090H   SFRSYM    DATA     BYTE      P1
      000000C0H.2 SFRSYM    DATA     BIT       AA
      000000ACH   SFRSYM    DATA     BYTE      P3M1
      000000A0H   SFRSYM    DATA     BYTE      P2
      000000B0H   SFRSYM    DATA     BYTE      P3
      000000ADH   SFRSYM    DATA     BYTE      P3M2
      000000D0H.6 SFRSYM    DATA     BIT       AC
      0000008FH   SFRSYM    DATA     BYTE      WKCON
      0000009CH   SFRSYM    DATA     BYTE      EIE1
      000000A8H.7 SFRSYM    DATA     BIT       EA
      000000D8H   SFRSYM    DATA     BYTE      PWMCON0
      000000DFH   SFRSYM    DATA     BYTE      PWMCON1
      00000098H.7 SFRSYM    DATA     BIT       FE
      000000A8H.6 SFRSYM    DATA     BIT       EADC
      000000D1H   SFRSYM    DATA     BYTE      PWMPH
      000000A8H   SFRSYM    DATA     BYTE      IE
      00000096H   SFRSYM    DATA     BYTE      CKSWT
      000000E8H.7 SFRSYM    DATA     BIT       ADCF
      000000FEH   SFRSYM    DATA     BYTE      EIP1
      000000D9H   SFRSYM    DATA     BYTE      PWMPL
      000000E8H   SFRSYM    DATA     BIT       ADCHS0
      000000C7H   SFRSYM    DATA     BYTE      TA
      000000E8H.1 SFRSYM    DATA     BIT       ADCHS1
      000000E8H.2 SFRSYM    DATA     BIT       ADCHS2
      000000E8H.3 SFRSYM    DATA     BIT       ADCHS3
      000000A8H.4 SFRSYM    DATA     BIT       ES
      000000C1H   SFRSYM    DATA     BYTE      I2ADDR
      000000B8H.6 SFRSYM    DATA     BIT       PADC
      000000B8H   SFRSYM    DATA     BYTE      IP
LX51 LINKER/LOCATER V4.66.1.0                                                         10/28/2019  14:49:17  PAGE 33


      000000A8H.5 SFRSYM    DATA     BIT       EBOD
      00000098H   SFRSYM    DATA     BIT       RI
      000000F8H.7 SFRSYM    DATA     BIT       FE_1
      000000E8H.6 SFRSYM    DATA     BIT       ADCS
      000000D0H.7 SFRSYM    DATA     BIT       CY
      000000C0H.3 SFRSYM    DATA     BIT       SI
      000000B0H   SFRSYM    DATA     BIT       INT0
      00000098H.1 SFRSYM    DATA     BIT       TI
      000000D8H.6 SFRSYM    DATA     BIT       LOAD
      00000097H   SFRSYM    DATA     BYTE      CKEN
      000000B8H.4 SFRSYM    DATA     BIT       PS
      00000081H   SFRSYM    DATA     BYTE      SP
      000000D0H.2 SFRSYM    DATA     BIT       OV
      000000B7H   SFRSYM    DATA     BYTE      PWMINTC
      000000B8H.5 SFRSYM    DATA     BIT       PBOD
      000000B2H   SFRSYM    DATA     BYTE      P0SR
      000000F7H   SFRSYM    DATA     BYTE      EIPH
      000000B4H   SFRSYM    DATA     BYTE      P1SR
      000000ADH   SFRSYM    DATA     BYTE      P3SR
      000000F8H   SFRSYM    DATA     BIT       RI_1
      000000F8H.1 SFRSYM    DATA     BIT       TI_1
      000000CBH   SFRSYM    DATA     BYTE      RCMP2H
      000000CFH   SFRSYM    DATA     BYTE      ADCMPH
      00000080H   SFRSYM    DATA     BIT       P00
      00000090H   SFRSYM    DATA     BIT       P10
      00000080H.1 SFRSYM    DATA     BIT       P01
      000000FBH   SFRSYM    DATA     BYTE      PMEN
      00000099H   SFRSYM    DATA     BYTE      SBUF
      00000087H   SFRSYM    DATA     BYTE      PCON
      000000A0H   SFRSYM    DATA     BIT       P20
      00000090H.1 SFRSYM    DATA     BIT       P11
      00000080H.2 SFRSYM    DATA     BIT       P02
      000000CAH   SFRSYM    DATA     BYTE      RCMP2L
      000000B0H   SFRSYM    DATA     BIT       P30
      00000090H.2 SFRSYM    DATA     BIT       P12
      00000080H.3 SFRSYM    DATA     BIT       P03
      000000E3H   SFRSYM    DATA     BYTE      ADCDLY
      000000CEH   SFRSYM    DATA     BYTE      ADCMPL
      00000090H.3 SFRSYM    DATA     BIT       P13
      00000080H.4 SFRSYM    DATA     BIT       P04
      00000098H   SFRSYM    DATA     BYTE      SCON
      00000090H.4 SFRSYM    DATA     BIT       P14
      00000080H.5 SFRSYM    DATA     BIT       P05
      00000089H   SFRSYM    DATA     BYTE      TMOD
      00000088H   SFRSYM    DATA     BYTE      TCON
      00000090H.5 SFRSYM    DATA     BIT       P15
      00000080H.6 SFRSYM    DATA     BIT       P06
      00000090H.6 SFRSYM    DATA     BIT       P16
      00000080H.7 SFRSYM    DATA     BIT       P07
      00000090H.7 SFRSYM    DATA     BIT       P17
      000000F3H   SFRSYM    DATA     BYTE      SPCR
      000000BDH   SFRSYM    DATA     BYTE      I2STAT
      000000F5H   SFRSYM    DATA     BYTE      SPDR
      000000D8H.5 SFRSYM    DATA     BIT       PWMF
      000000E5H   SFRSYM    DATA     BYTE      C0H
      000000E7H   SFRSYM    DATA     BYTE      C1H
      000000EEH   SFRSYM    DATA     BYTE      C2H
      0000009FH   SFRSYM    DATA     BYTE      CHPCON
      00000088H.1 SFRSYM    DATA     BIT       IE0
      00000088H.3 SFRSYM    DATA     BIT       IE1
      000000E4H   SFRSYM    DATA     BYTE      C0L
      00000091H   SFRSYM    DATA     BYTE      SFRS
      000000E6H   SFRSYM    DATA     BYTE      C1L
      000000C8H   SFRSYM    DATA     BIT       CM_RL2
      000000F0H   SFRSYM    DATA     BYTE      B
LX51 LINKER/LOCATER V4.66.1.0                                                         10/28/2019  14:49:17  PAGE 34


      000000EDH   SFRSYM    DATA     BYTE      C2L
      0000009AH   SFRSYM    DATA     BYTE      SBUF_1
      000000A5H   SFRSYM    DATA     BYTE      IAPUEN
      000000F8H   SFRSYM    DATA     BYTE      SCON_1
      000000E0H   SFRSYM    DATA     BYTE      ACC
      000000A8H.1 SFRSYM    DATA     BIT       ET0
      000000F4H   SFRSYM    DATA     BYTE      SPSR
      000000A4H   SFRSYM    DATA     BYTE      IAPTRG
      000000A8H.3 SFRSYM    DATA     BIT       ET1
      00000088H.5 SFRSYM    DATA     BIT       TF0
      00000088H.7 SFRSYM    DATA     BIT       TF1
      000000C8H.7 SFRSYM    DATA     BIT       TF2
      00000098H.2 SFRSYM    DATA     BIT       RB8
      000000D7H   SFRSYM    DATA     BYTE      FBD
      0000008CH   SFRSYM    DATA     BYTE      TH0
      000000A8H   SFRSYM    DATA     BIT       EX0
      00000088H   SFRSYM    DATA     BIT       IT0
      000000C6H   SFRSYM    DATA     BYTE      RH3
      0000008DH   SFRSYM    DATA     BYTE      TH1
      000000A8H.2 SFRSYM    DATA     BIT       EX1
      00000098H.3 SFRSYM    DATA     BIT       TB8
      00000088H.2 SFRSYM    DATA     BIT       IT1
      000000CDH   SFRSYM    DATA     BYTE      TH2
      000000D0H   SFRSYM    DATA     BIT       P
      000000FAH   SFRSYM    DATA     BYTE      PDTCNT
      00000098H.7 SFRSYM    DATA     BIT       SM0
      0000008AH   SFRSYM    DATA     BYTE      TL0
      00000098H.6 SFRSYM    DATA     BIT       SM1
      000000C5H   SFRSYM    DATA     BYTE      RL3
      0000008BH   SFRSYM    DATA     BYTE      TL1
      000000C0H.6 SFRSYM    DATA     BIT       I2CEN
      00000098H.5 SFRSYM    DATA     BIT       SM2
      000000CCH   SFRSYM    DATA     BYTE      TL2
      000000B1H   SFRSYM    DATA     BYTE      P0S
      0000009BH   SFRSYM    DATA     BYTE      EIE
      000000B8H.1 SFRSYM    DATA     BIT       PT0
      000000B3H   SFRSYM    DATA     BYTE      P1S
      000000D0H.3 SFRSYM    DATA     BIT       RS0
      000000B8H.3 SFRSYM    DATA     BIT       PT1
      000000BCH   SFRSYM    DATA     BYTE      I2DAT
      000000B5H   SFRSYM    DATA     BYTE      P2S
      000000D0H.4 SFRSYM    DATA     BIT       RS1
      00000088H.4 SFRSYM    DATA     BIT       TR0
      000000BEH   SFRSYM    DATA     BYTE      I2CLK
      000000ACH   SFRSYM    DATA     BYTE      P3S
      000000D8H.4 SFRSYM    DATA     BIT       CLRPWM
      00000088H.6 SFRSYM    DATA     BIT       TR1
      000000C8H.2 SFRSYM    DATA     BIT       TR2
      000000B8H   SFRSYM    DATA     BIT       PX0
      00000090H.4 SFRSYM    DATA     BIT       SDA
      000000FFH   SFRSYM    DATA     BYTE      EIPH1
      000000B8H.2 SFRSYM    DATA     BIT       PX1
      000000E8H   SFRSYM    DATA     BYTE      ADCCON0
      000000E1H   SFRSYM    DATA     BYTE      ADCCON1
      000000E2H   SFRSYM    DATA     BYTE      ADCCON2
      000000C0H   SFRSYM    DATA     BYTE      I2CON
      00000083H   SFRSYM    DATA     BYTE      DPH
      000000F8H.2 SFRSYM    DATA     BIT       RB8_1
      000000EFH   SFRSYM    DATA     BYTE      EIP
      000000F8H.3 SFRSYM    DATA     BIT       TB8_1
      000000ECH   SFRSYM    DATA     BYTE      PIF
      00000082H   SFRSYM    DATA     BYTE      DPL
      000000F8H.7 SFRSYM    DATA     BIT       SM0_1
      000000FCH   SFRSYM    DATA     BYTE      PMD
      000000B7H   SFRSYM    DATA     BYTE      IPH
LX51 LINKER/LOCATER V4.66.1.0                                                         10/28/2019  14:49:17  PAGE 35


      000000F8H.6 SFRSYM    DATA     BIT       SM1_1
      00000090H.3 SFRSYM    DATA     BIT       SCL
      000000BFH   SFRSYM    DATA     BYTE      I2TOC
      000000F8H.5 SFRSYM    DATA     BIT       SM2_1
      000000C3H   SFRSYM    DATA     BYTE      ADCRH
      000000A7H   SFRSYM    DATA     BYTE      IAPAH
      00000098H.4 SFRSYM    DATA     BIT       REN
      000000AEH   SFRSYM    DATA     BYTE      IAPFD
      00000092H   SFRSYM    DATA     BYTE      CAPCON0
      000000C0H   SFRSYM    DATA     BIT       I2CPX
      000000C9H   SFRSYM    DATA     BYTE      T2MOD
      000000C8H   SFRSYM    DATA     BYTE      T2CON
      000000C2H   SFRSYM    DATA     BYTE      ADCRL
      000000A3H   SFRSYM    DATA     BYTE      BODCON0
      00000093H   SFRSYM    DATA     BYTE      CAPCON1
      000000C0H.5 SFRSYM    DATA     BIT       STA
      000000C4H   SFRSYM    DATA     BYTE      T3CON
      000000ABH   SFRSYM    DATA     BYTE      BODCON1
      000000A6H   SFRSYM    DATA     BYTE      IAPAL
      00000094H   SFRSYM    DATA     BYTE      CAPCON2
      000000F1H   SFRSYM    DATA     BYTE      CAPCON3
      000000F2H   SFRSYM    DATA     BYTE      CAPCON4
      000000D8H.7 SFRSYM    DATA     BIT       PWMRUN
      000000F3H   SFRSYM    DATA     BYTE      SPCR2
      000000B9H   SFRSYM    DATA     BYTE      SADEN
      000000AFH   SFRSYM    DATA     BYTE      IAPCN
      000000D2H   SFRSYM    DATA     BYTE      PWM0H
      000000D6H   SFRSYM    DATA     BYTE      PNP
      000000D3H   SFRSYM    DATA     BYTE      PWM1H
      000000D4H   SFRSYM    DATA     BYTE      PWM2H
      000000A9H   SFRSYM    DATA     BYTE      SADDR
      0000008EH   SFRSYM    DATA     BYTE      CKCON
      000000D5H   SFRSYM    DATA     BYTE      PWM3H
      000000DAH   SFRSYM    DATA     BYTE      PWM0L
      000000C4H   SFRSYM    DATA     BYTE      PWM4H
      000000DBH   SFRSYM    DATA     BYTE      PWM1L
      000000C5H   SFRSYM    DATA     BYTE      PWM5H
      000000A2H   SFRSYM    DATA     BYTE      AUXR1
      00000095H   SFRSYM    DATA     BYTE      CKDIV
      000000DCH   SFRSYM    DATA     BYTE      PWM2L
      000000DDH   SFRSYM    DATA     BYTE      PWM3L
      00000086H   SFRSYM    DATA     BYTE      RWK
      000000D0H.5 SFRSYM    DATA     BIT       F0
      000000CCH   SFRSYM    DATA     BYTE      PWM4L
      000000F8H.4 SFRSYM    DATA     BIT       REN_1
      000000E8H.4 SFRSYM    DATA     BIT       ETGSEL0
      000000C0H.4 SFRSYM    DATA     BIT       STO
      000000CDH   SFRSYM    DATA     BYTE      PWM5L
      000000E8H.5 SFRSYM    DATA     BIT       ETGSEL1
      000000E9H   SFRSYM    DATA     BYTE      PICON
      000000DEH   SFRSYM    DATA     BYTE      PIOCON0
      000000D0H   SFRSYM    DATA     BYTE      PSW
      000000EAH   SFRSYM    DATA     BYTE      PINEN
      000000C6H   SFRSYM    DATA     BYTE      PIOCON1
      000000F9H   SFRSYM    DATA     BYTE      PDTEN
      000000AAH   SFRSYM    DATA     BYTE      WDCON
      000000EBH   SFRSYM    DATA     BYTE      PIPEN
      000000BAH   SFRSYM    DATA     BYTE      SADEN_1
      010015FBH   SYMBOL    CODE     ---       _eeprom_checksum

      01001362H   BLOCK     CODE     ---       LVL=0
      01001362H   LINE      ---      ---       #12
      01001362H   LINE      ---      ---       #13
      01001362H   LINE      ---      ---       #14
      01001365H   LINE      ---      ---       #15
LX51 LINKER/LOCATER V4.66.1.0                                                         10/28/2019  14:49:17  PAGE 36


      01001368H   LINE      ---      ---       #16
      0100136BH   LINE      ---      ---       #17
      0100136EH   LINE      ---      ---       #18
      01001371H   LINE      ---      ---       #19
      01001374H   LINE      ---      ---       #20
      ---         BLOCKEND  ---      ---       LVL=0

      010013B2H   BLOCK     CODE     ---       LVL=0
      010013B2H   LINE      ---      ---       #24
      010013B2H   LINE      ---      ---       #25
      010013B2H   LINE      ---      ---       #26
      010013B5H   LINE      ---      ---       #27
      010013B8H   LINE      ---      ---       #28
      010013BBH   LINE      ---      ---       #29
      010013BEH   LINE      ---      ---       #30
      010013C1H   LINE      ---      ---       #31
      010013C4H   LINE      ---      ---       #32
      ---         BLOCKEND  ---      ---       LVL=0

      01001375H   BLOCK     CODE     ---       LVL=0
      01001375H   LINE      ---      ---       #36
      01001379H   LINE      ---      ---       #37
      01001379H   LINE      ---      ---       #38
      0100137BH   LINE      ---      ---       #39
      0100137EH   LINE      ---      ---       #40
      01001381H   LINE      ---      ---       #41
      01001385H   LINE      ---      ---       #42
      01001388H   LINE      ---      ---       #43
      0100138BH   LINE      ---      ---       #44
      0100138EH   LINE      ---      ---       #45
      01001391H   LINE      ---      ---       #46
      00000004H   SYMBOL    DATA     WORD      addr
      ---         BLOCKEND  ---      ---       LVL=0

      010014F9H   BLOCK     CODE     ---       LVL=0
      010014F9H   LINE      ---      ---       #51
      010014FDH   LINE      ---      ---       #52
      00000082H   SYMBOL    DATA     ---       u16_addr
      010014FDH   BLOCK     CODE     NEAR LAB  LVL=1
      010014FDH   LINE      ---      ---       #54
      01001500H   LINE      ---      ---       #55
      01001500H   LINE      ---      ---       #56
      00000007H   SYMBOL    DATA     BYTE      rdata
      ---         BLOCKEND  CODE     ---       LVL=1
      ---         BLOCKEND  CODE     ---       LVL=0

      010014D7H   BLOCK     CODE     ---       LVL=0
      010014D7H   LINE      ---      ---       #60
      010014DBH   LINE      ---      ---       #61
      00000004H   SYMBOL    DATA     WORD      bite_addr
      010014DBH   BLOCK     CODE     NEAR LAB  LVL=1
      010014DBH   LINE      ---      ---       #64
      010014DDH   LINE      ---      ---       #65
      010014E1H   LINE      ---      ---       #66
      010014ECH   LINE      ---      ---       #67
      010014F6H   LINE      ---      ---       #68
      010014F8H   LINE      ---      ---       #69
      010014F8H   LINE      ---      ---       #71
      00000006H   SYMBOL    DATA     WORD      DATA
      00000003H   SYMBOL    DATA     BYTE      BITE
      ---         BLOCKEND  CODE     ---       LVL=1
      ---         BLOCKEND  CODE     ---       LVL=0

      01001393H   BLOCK     CODE     ---       LVL=0
      01001393H   LINE      ---      ---       #76
LX51 LINKER/LOCATER V4.66.1.0                                                         10/28/2019  14:49:17  PAGE 37


      01001397H   LINE      ---      ---       #77
      01001397H   LINE      ---      ---       #78
      01001399H   LINE      ---      ---       #79
      0100139CH   LINE      ---      ---       #80
      0100139FH   LINE      ---      ---       #81
      010013A3H   LINE      ---      ---       #82
      010013A7H   LINE      ---      ---       #83
      010013AAH   LINE      ---      ---       #84
      010013ADH   LINE      ---      ---       #85
      010013B0H   LINE      ---      ---       #86
      00000002H   SYMBOL    DATA     WORD      bite_addr
      00000005H   SYMBOL    DATA     BYTE      DATA
      ---         BLOCKEND  ---      ---       LVL=0

      010013C5H   BLOCK     CODE     ---       LVL=0
      010013C5H   LINE      ---      ---       #91
      010013D3H   LINE      ---      ---       #92
      010013D3H   LINE      ---      ---       #93
      010013D5H   LINE      ---      ---       #95
      010013D7H   LINE      ---      ---       #96
      010013ECH   LINE      ---      ---       #97
      010013EEH   LINE      ---      ---       #98
      0200032BH   SYMBOL    XDATA    WORD      bite_addr
      0200032DH   SYMBOL    XDATA    WORD      DATA
      ---         BLOCKEND  ---      ---       LVL=0

      0100159FH   BLOCK     CODE     ---       LVL=0
      0100159FH   LINE      ---      ---       #99
      010015B0H   LINE      ---      ---       #100
      02000302H   SYMBOL    XDATA    ---       Data_Buf
      02000305H   SYMBOL    XDATA    WORD      bite_addr
      02000307H   SYMBOL    XDATA    BYTE      n
      010015B0H   BLOCK     CODE     NEAR LAB  LVL=1
      010015B0H   LINE      ---      ---       #101
      010015B5H   LINE      ---      ---       #103
      010015C2H   LINE      ---      ---       #104
      010015FAH   LINE      ---      ---       #106
      02000308H   SYMBOL    XDATA    BYTE      i
      ---         BLOCKEND  CODE     ---       LVL=1
      ---         BLOCKEND  CODE     ---       LVL=0

      01001543H   BLOCK     CODE     ---       LVL=0
      01001543H   LINE      ---      ---       #107
      01001554H   LINE      ---      ---       #108
      02000309H   SYMBOL    XDATA    ---       Data_Buf
      0200030CH   SYMBOL    XDATA    WORD      bite_addr
      0200030EH   SYMBOL    XDATA    BYTE      n
      01001554H   BLOCK     CODE     NEAR LAB  LVL=1
      01001559H   LINE      ---      ---       #109
      01001566H   LINE      ---      ---       #110
      01001566H   LINE      ---      ---       #111
      01001596H   LINE      ---      ---       #112
      0100159EH   LINE      ---      ---       #114
      0200030FH   SYMBOL    XDATA    BYTE      i
      ---         BLOCKEND  CODE     ---       LVL=1
      ---         BLOCKEND  CODE     ---       LVL=0

      010013EFH   BLOCK     CODE     ---       LVL=0
      010013EFH   LINE      ---      ---       #115
      010013FDH   LINE      ---      ---       #116
      02000321H   SYMBOL    XDATA    ---       Data_Buf
      02000324H   SYMBOL    XDATA    BYTE      n
      010013FDH   BLOCK     CODE     NEAR LAB  LVL=1
      010013FDH   LINE      ---      ---       #117
      01001403H   LINE      ---      ---       #118
LX51 LINKER/LOCATER V4.66.1.0                                                         10/28/2019  14:49:17  PAGE 38


      01001412H   LINE      ---      ---       #119
      01001412H   LINE      ---      ---       #120
      0100143FH   LINE      ---      ---       #121
      01001447H   LINE      ---      ---       #122
      02000325H   SYMBOL    XDATA    BYTE      dispLine
      ---         BLOCKEND  CODE     ---       LVL=1
      ---         BLOCKEND  CODE     ---       LVL=0

      01001465H   BLOCK     CODE     ---       LVL=0
      01001465H   LINE      ---      ---       #124
      01001473H   LINE      ---      ---       #125
      02000310H   SYMBOL    XDATA    ---       Data_Buf
      02000313H   SYMBOL    XDATA    BYTE      n
      01001473H   BLOCK     CODE     NEAR LAB  LVL=1
      01001478H   LINE      ---      ---       #127
      01001490H   LINE      ---      ---       #128
      010014D6H   LINE      ---      ---       #129
      02000314H   SYMBOL    XDATA    WORD      i
      ---         BLOCKEND  CODE     ---       LVL=1
      ---         BLOCKEND  CODE     ---       LVL=0

      010015FBH   BLOCK     CODE     ---       LVL=0
      010015FBH   LINE      ---      ---       #135
      010015FBH   LINE      ---      ---       #136
      010015FBH   LINE      ---      ---       #137
      010015FFH   LINE      ---      ---       #138
      010015FFH   LINE      ---      ---       #139
      01001609H   LINE      ---      ---       #140
      01001610H   LINE      ---      ---       #141
      01001615H   LINE      ---      ---       #142
      01001617H   LINE      ---      ---       #143
      0100161CH   LINE      ---      ---       #144
      00000001H   SYMBOL    DATA     ---       buffer
      00000004H   SYMBOL    DATA     WORD      Size
      0200031BH   SYMBOL    XDATA    BYTE      sum
      ---         BLOCKEND  ---      ---       LVL=0

      01001448H   BLOCK     CODE     ---       LVL=0
      01001448H   LINE      ---      ---       #151
      01001448H   LINE      ---      ---       #152
      01001448H   LINE      ---      ---       #153
      0100144EH   LINE      ---      ---       #154
      01001450H   LINE      ---      ---       #155
      ---         BLOCKEND  ---      ---       LVL=0

      01001501H   BLOCK     CODE     ---       LVL=0
      01001501H   LINE      ---      ---       #158
      01001501H   LINE      ---      ---       #159
      01001501H   BLOCK     CODE     NEAR LAB  LVL=1
      01001501H   LINE      ---      ---       #166
      0100150CH   LINE      ---      ---       #167
      01001515H   LINE      ---      ---       #169
      01001520H   LINE      ---      ---       #181
      01001522H   LINE      ---      ---       #182
      02000333H   SYMBOL    XDATA    ---       header
      ---         BLOCKEND  CODE     ---       LVL=1
      ---         BLOCKEND  CODE     ---       LVL=0

      01001523H   BLOCK     CODE     ---       LVL=0
      01001523H   LINE      ---      ---       #185
      01001523H   LINE      ---      ---       #187
      01001523H   BLOCK     CODE     NEAR LAB  LVL=1
      01001523H   LINE      ---      ---       #193
      01001529H   LINE      ---      ---       #195
      0100152FH   LINE      ---      ---       #198
LX51 LINKER/LOCATER V4.66.1.0                                                         10/28/2019  14:49:17  PAGE 39


      01001540H   LINE      ---      ---       #206
      01001542H   LINE      ---      ---       #207
      02000335H   SYMBOL    XDATA    ---       header
      ---         BLOCKEND  CODE     ---       LVL=1
      ---         BLOCKEND  CODE     ---       LVL=0

      ---         MODULE    ---      ---       I2C_SOFTWARE
      02000253H   PUBLIC    XDATA    BYTE      ?_SL_SC7A21_I2c_Spi_Read?BYTE
      01000C41H   PUBLIC    CODE     ---       _SL_SC7A21_I2c_Spi_Read
      01000D60H   PUBLIC    CODE     ---       _SL_SC7A21_I2c_Spi_Write
      02000259H   PUBLIC    XDATA    BYTE      ?_i2cs_rx_data?BYTE
      010016AAH   PUBLIC    CODE     ---       _i2cs_rx_data
      02000254H   PUBLIC    XDATA    BYTE      ?_i2cs_tx_data?BYTE
      01001635H   PUBLIC    CODE     ---       _i2cs_tx_data
      01001783H   PUBLIC    CODE     ---       _i2cs_rx_byte
      01001737H   PUBLIC    CODE     ---       _i2cs_tx_byte
      01001628H   PUBLIC    CODE     ---       i2cs_stop
      0100176EH   PUBLIC    CODE     ---       i2cs_start
      01000009H   PUBLIC    CODE     ---       i2cs_init
      0100161DH   PUBLIC    CODE     ---       _delay
      000000F6H   SFRSYM    DATA     BYTE      AINDIDS
      000000B1H   SFRSYM    DATA     BYTE      P0M1
      000000B3H   SFRSYM    DATA     BYTE      P1M1
      000000B2H   SFRSYM    DATA     BYTE      P0M2
      00000080H   SFRSYM    DATA     BYTE      P0
      000000BBH   SFRSYM    DATA     BYTE      SADDR_1
      000000B4H   SFRSYM    DATA     BYTE      P1M2
      00000090H   SFRSYM    DATA     BYTE      P1
      000000C0H.2 SFRSYM    DATA     BIT       AA
      000000ACH   SFRSYM    DATA     BYTE      P3M1
      000000A0H   SFRSYM    DATA     BYTE      P2
      000000B0H   SFRSYM    DATA     BYTE      P3
      000000ADH   SFRSYM    DATA     BYTE      P3M2
      000000D0H.6 SFRSYM    DATA     BIT       AC
      0000008FH   SFRSYM    DATA     BYTE      WKCON
      0000009CH   SFRSYM    DATA     BYTE      EIE1
      000000A8H.7 SFRSYM    DATA     BIT       EA
      000000D8H   SFRSYM    DATA     BYTE      PWMCON0
      000000DFH   SFRSYM    DATA     BYTE      PWMCON1
      00000098H.7 SFRSYM    DATA     BIT       FE
      000000A8H.6 SFRSYM    DATA     BIT       EADC
      000000D1H   SFRSYM    DATA     BYTE      PWMPH
      000000A8H   SFRSYM    DATA     BYTE      IE
      00000096H   SFRSYM    DATA     BYTE      CKSWT
      000000E8H.7 SFRSYM    DATA     BIT       ADCF
      000000FEH   SFRSYM    DATA     BYTE      EIP1
      000000D9H   SFRSYM    DATA     BYTE      PWMPL
      000000E8H   SFRSYM    DATA     BIT       ADCHS0
      000000C7H   SFRSYM    DATA     BYTE      TA
      000000E8H.1 SFRSYM    DATA     BIT       ADCHS1
      000000E8H.2 SFRSYM    DATA     BIT       ADCHS2
      000000E8H.3 SFRSYM    DATA     BIT       ADCHS3
      000000A8H.4 SFRSYM    DATA     BIT       ES
      000000C1H   SFRSYM    DATA     BYTE      I2ADDR
      000000B8H.6 SFRSYM    DATA     BIT       PADC
      000000B8H   SFRSYM    DATA     BYTE      IP
      000000A8H.5 SFRSYM    DATA     BIT       EBOD
      00000098H   SFRSYM    DATA     BIT       RI
      000000F8H.7 SFRSYM    DATA     BIT       FE_1
      000000E8H.6 SFRSYM    DATA     BIT       ADCS
      000000D0H.7 SFRSYM    DATA     BIT       CY
      000000C0H.3 SFRSYM    DATA     BIT       SI
      000000B0H   SFRSYM    DATA     BIT       INT0
      00000098H.1 SFRSYM    DATA     BIT       TI
      000000D8H.6 SFRSYM    DATA     BIT       LOAD
LX51 LINKER/LOCATER V4.66.1.0                                                         10/28/2019  14:49:17  PAGE 40


      00000097H   SFRSYM    DATA     BYTE      CKEN
      000000B8H.4 SFRSYM    DATA     BIT       PS
      00000081H   SFRSYM    DATA     BYTE      SP
      000000D0H.2 SFRSYM    DATA     BIT       OV
      000000B7H   SFRSYM    DATA     BYTE      PWMINTC
      000000B8H.5 SFRSYM    DATA     BIT       PBOD
      000000B2H   SFRSYM    DATA     BYTE      P0SR
      000000F7H   SFRSYM    DATA     BYTE      EIPH
      000000B4H   SFRSYM    DATA     BYTE      P1SR
      000000ADH   SFRSYM    DATA     BYTE      P3SR
      000000F8H   SFRSYM    DATA     BIT       RI_1
      000000F8H.1 SFRSYM    DATA     BIT       TI_1
      000000CBH   SFRSYM    DATA     BYTE      RCMP2H
      000000CFH   SFRSYM    DATA     BYTE      ADCMPH
      00000080H   SFRSYM    DATA     BIT       P00
      00000090H   SFRSYM    DATA     BIT       P10
      00000080H.1 SFRSYM    DATA     BIT       P01
      000000FBH   SFRSYM    DATA     BYTE      PMEN
      00000099H   SFRSYM    DATA     BYTE      SBUF
      00000087H   SFRSYM    DATA     BYTE      PCON
      000000A0H   SFRSYM    DATA     BIT       P20
      00000090H.1 SFRSYM    DATA     BIT       P11
      00000080H.2 SFRSYM    DATA     BIT       P02
      000000CAH   SFRSYM    DATA     BYTE      RCMP2L
      000000B0H   SFRSYM    DATA     BIT       P30
      00000090H.2 SFRSYM    DATA     BIT       P12
      00000080H.3 SFRSYM    DATA     BIT       P03
      000000E3H   SFRSYM    DATA     BYTE      ADCDLY
      000000CEH   SFRSYM    DATA     BYTE      ADCMPL
      00000090H.3 SFRSYM    DATA     BIT       P13
      00000080H.4 SFRSYM    DATA     BIT       P04
      00000098H   SFRSYM    DATA     BYTE      SCON
      00000090H.4 SFRSYM    DATA     BIT       P14
      00000080H.5 SFRSYM    DATA     BIT       P05
      00000089H   SFRSYM    DATA     BYTE      TMOD
      00000088H   SFRSYM    DATA     BYTE      TCON
      00000090H.5 SFRSYM    DATA     BIT       P15
      00000080H.6 SFRSYM    DATA     BIT       P06
      00000090H.6 SFRSYM    DATA     BIT       P16
      00000080H.7 SFRSYM    DATA     BIT       P07
      00000090H.7 SFRSYM    DATA     BIT       P17
      000000F3H   SFRSYM    DATA     BYTE      SPCR
      000000BDH   SFRSYM    DATA     BYTE      I2STAT
      000000F5H   SFRSYM    DATA     BYTE      SPDR
      000000D8H.5 SFRSYM    DATA     BIT       PWMF
      000000E5H   SFRSYM    DATA     BYTE      C0H
      000000E7H   SFRSYM    DATA     BYTE      C1H
      000000EEH   SFRSYM    DATA     BYTE      C2H
      0000009FH   SFRSYM    DATA     BYTE      CHPCON
      00000088H.1 SFRSYM    DATA     BIT       IE0
      00000088H.3 SFRSYM    DATA     BIT       IE1
      000000E4H   SFRSYM    DATA     BYTE      C0L
      00000091H   SFRSYM    DATA     BYTE      SFRS
      000000E6H   SFRSYM    DATA     BYTE      C1L
      000000C8H   SFRSYM    DATA     BIT       CM_RL2
      000000F0H   SFRSYM    DATA     BYTE      B
      000000EDH   SFRSYM    DATA     BYTE      C2L
      0000009AH   SFRSYM    DATA     BYTE      SBUF_1
      000000A5H   SFRSYM    DATA     BYTE      IAPUEN
      000000F8H   SFRSYM    DATA     BYTE      SCON_1
      000000E0H   SFRSYM    DATA     BYTE      ACC
      000000A8H.1 SFRSYM    DATA     BIT       ET0
      000000F4H   SFRSYM    DATA     BYTE      SPSR
      000000A4H   SFRSYM    DATA     BYTE      IAPTRG
      000000A8H.3 SFRSYM    DATA     BIT       ET1
LX51 LINKER/LOCATER V4.66.1.0                                                         10/28/2019  14:49:17  PAGE 41


      00000088H.5 SFRSYM    DATA     BIT       TF0
      00000088H.7 SFRSYM    DATA     BIT       TF1
      000000C8H.7 SFRSYM    DATA     BIT       TF2
      00000098H.2 SFRSYM    DATA     BIT       RB8
      000000D7H   SFRSYM    DATA     BYTE      FBD
      0000008CH   SFRSYM    DATA     BYTE      TH0
      000000A8H   SFRSYM    DATA     BIT       EX0
      00000088H   SFRSYM    DATA     BIT       IT0
      000000C6H   SFRSYM    DATA     BYTE      RH3
      0000008DH   SFRSYM    DATA     BYTE      TH1
      000000A8H.2 SFRSYM    DATA     BIT       EX1
      00000098H.3 SFRSYM    DATA     BIT       TB8
      00000088H.2 SFRSYM    DATA     BIT       IT1
      000000CDH   SFRSYM    DATA     BYTE      TH2
      000000D0H   SFRSYM    DATA     BIT       P
      000000FAH   SFRSYM    DATA     BYTE      PDTCNT
      00000098H.7 SFRSYM    DATA     BIT       SM0
      0000008AH   SFRSYM    DATA     BYTE      TL0
      00000098H.6 SFRSYM    DATA     BIT       SM1
      000000C5H   SFRSYM    DATA     BYTE      RL3
      0000008BH   SFRSYM    DATA     BYTE      TL1
      000000C0H.6 SFRSYM    DATA     BIT       I2CEN
      00000098H.5 SFRSYM    DATA     BIT       SM2
      000000CCH   SFRSYM    DATA     BYTE      TL2
      000000B1H   SFRSYM    DATA     BYTE      P0S
      0000009BH   SFRSYM    DATA     BYTE      EIE
      000000B8H.1 SFRSYM    DATA     BIT       PT0
      000000B3H   SFRSYM    DATA     BYTE      P1S
      000000D0H.3 SFRSYM    DATA     BIT       RS0
      000000B8H.3 SFRSYM    DATA     BIT       PT1
      000000BCH   SFRSYM    DATA     BYTE      I2DAT
      000000B5H   SFRSYM    DATA     BYTE      P2S
      000000D0H.4 SFRSYM    DATA     BIT       RS1
      00000088H.4 SFRSYM    DATA     BIT       TR0
      000000BEH   SFRSYM    DATA     BYTE      I2CLK
      000000ACH   SFRSYM    DATA     BYTE      P3S
      000000D8H.4 SFRSYM    DATA     BIT       CLRPWM
      00000088H.6 SFRSYM    DATA     BIT       TR1
      000000C8H.2 SFRSYM    DATA     BIT       TR2
      000000B8H   SFRSYM    DATA     BIT       PX0
      00000090H.4 SFRSYM    DATA     BIT       SDA
      000000FFH   SFRSYM    DATA     BYTE      EIPH1
      000000B8H.2 SFRSYM    DATA     BIT       PX1
      000000E8H   SFRSYM    DATA     BYTE      ADCCON0
      000000E1H   SFRSYM    DATA     BYTE      ADCCON1
      000000E2H   SFRSYM    DATA     BYTE      ADCCON2
      000000C0H   SFRSYM    DATA     BYTE      I2CON
      00000083H   SFRSYM    DATA     BYTE      DPH
      000000F8H.2 SFRSYM    DATA     BIT       RB8_1
      000000EFH   SFRSYM    DATA     BYTE      EIP
      000000F8H.3 SFRSYM    DATA     BIT       TB8_1
      000000ECH   SFRSYM    DATA     BYTE      PIF
      00000082H   SFRSYM    DATA     BYTE      DPL
      000000F8H.7 SFRSYM    DATA     BIT       SM0_1
      000000FCH   SFRSYM    DATA     BYTE      PMD
      000000B7H   SFRSYM    DATA     BYTE      IPH
      000000F8H.6 SFRSYM    DATA     BIT       SM1_1
      00000090H.3 SFRSYM    DATA     BIT       SCL
      000000BFH   SFRSYM    DATA     BYTE      I2TOC
      000000F8H.5 SFRSYM    DATA     BIT       SM2_1
      000000C3H   SFRSYM    DATA     BYTE      ADCRH
      000000A7H   SFRSYM    DATA     BYTE      IAPAH
      00000098H.4 SFRSYM    DATA     BIT       REN
      000000AEH   SFRSYM    DATA     BYTE      IAPFD
      00000092H   SFRSYM    DATA     BYTE      CAPCON0
LX51 LINKER/LOCATER V4.66.1.0                                                         10/28/2019  14:49:17  PAGE 42


      000000C0H   SFRSYM    DATA     BIT       I2CPX
      000000C9H   SFRSYM    DATA     BYTE      T2MOD
      000000C8H   SFRSYM    DATA     BYTE      T2CON
      000000C2H   SFRSYM    DATA     BYTE      ADCRL
      000000A3H   SFRSYM    DATA     BYTE      BODCON0
      00000093H   SFRSYM    DATA     BYTE      CAPCON1
      000000C0H.5 SFRSYM    DATA     BIT       STA
      000000C4H   SFRSYM    DATA     BYTE      T3CON
      000000ABH   SFRSYM    DATA     BYTE      BODCON1
      000000A6H   SFRSYM    DATA     BYTE      IAPAL
      00000094H   SFRSYM    DATA     BYTE      CAPCON2
      000000F1H   SFRSYM    DATA     BYTE      CAPCON3
      000000F2H   SFRSYM    DATA     BYTE      CAPCON4
      000000D8H.7 SFRSYM    DATA     BIT       PWMRUN
      000000F3H   SFRSYM    DATA     BYTE      SPCR2
      000000B9H   SFRSYM    DATA     BYTE      SADEN
      000000AFH   SFRSYM    DATA     BYTE      IAPCN
      000000D2H   SFRSYM    DATA     BYTE      PWM0H
      000000D6H   SFRSYM    DATA     BYTE      PNP
      000000D3H   SFRSYM    DATA     BYTE      PWM1H
      000000D4H   SFRSYM    DATA     BYTE      PWM2H
      000000A9H   SFRSYM    DATA     BYTE      SADDR
      0000008EH   SFRSYM    DATA     BYTE      CKCON
      000000D5H   SFRSYM    DATA     BYTE      PWM3H
      000000DAH   SFRSYM    DATA     BYTE      PWM0L
      000000C4H   SFRSYM    DATA     BYTE      PWM4H
      000000DBH   SFRSYM    DATA     BYTE      PWM1L
      000000C5H   SFRSYM    DATA     BYTE      PWM5H
      000000A2H   SFRSYM    DATA     BYTE      AUXR1
      00000095H   SFRSYM    DATA     BYTE      CKDIV
      000000DCH   SFRSYM    DATA     BYTE      PWM2L
      000000DDH   SFRSYM    DATA     BYTE      PWM3L
      00000086H   SFRSYM    DATA     BYTE      RWK
      000000D0H.5 SFRSYM    DATA     BIT       F0
      000000CCH   SFRSYM    DATA     BYTE      PWM4L
      000000F8H.4 SFRSYM    DATA     BIT       REN_1
      000000E8H.4 SFRSYM    DATA     BIT       ETGSEL0
      000000C0H.4 SFRSYM    DATA     BIT       STO
      000000CDH   SFRSYM    DATA     BYTE      PWM5L
      000000E8H.5 SFRSYM    DATA     BIT       ETGSEL1
      000000E9H   SFRSYM    DATA     BYTE      PICON
      000000DEH   SFRSYM    DATA     BYTE      PIOCON0
      000000D0H   SFRSYM    DATA     BYTE      PSW
      000000EAH   SFRSYM    DATA     BYTE      PINEN
      000000C6H   SFRSYM    DATA     BYTE      PIOCON1
      000000F9H   SFRSYM    DATA     BYTE      PDTEN
      000000AAH   SFRSYM    DATA     BYTE      WDCON
      000000EBH   SFRSYM    DATA     BYTE      PIPEN
      000000BAH   SFRSYM    DATA     BYTE      SADEN_1

      0100161DH   BLOCK     CODE     ---       LVL=0
      0100161DH   LINE      ---      ---       #2
      0100161DH   LINE      ---      ---       #3
      0100161DH   LINE      ---      ---       #4
      01001627H   LINE      ---      ---       #5
      00000006H   SYMBOL    DATA     WORD      dly_cnt
      ---         BLOCKEND  ---      ---       LVL=0

      01000009H   BLOCK     CODE     ---       LVL=0
      01000009H   LINE      ---      ---       #8
      01000009H   LINE      ---      ---       #9
      01000009H   LINE      ---      ---       #12
      ---         BLOCKEND  ---      ---       LVL=0

      0100176EH   BLOCK     CODE     ---       LVL=0
LX51 LINKER/LOCATER V4.66.1.0                                                         10/28/2019  14:49:17  PAGE 43


      0100176EH   LINE      ---      ---       #14
      0100176EH   LINE      ---      ---       #15
      0100176EH   LINE      ---      ---       #16
      01001770H   LINE      ---      ---       #17
      01001772H   LINE      ---      ---       #18
      01001778H   LINE      ---      ---       #19
      0100177AH   LINE      ---      ---       #20
      01001780H   LINE      ---      ---       #21
      01001782H   LINE      ---      ---       #22
      ---         BLOCKEND  ---      ---       LVL=0

      01001628H   BLOCK     CODE     ---       LVL=0
      01001628H   LINE      ---      ---       #24
      01001628H   LINE      ---      ---       #25
      01001628H   LINE      ---      ---       #26
      0100162AH   LINE      ---      ---       #27
      01001630H   LINE      ---      ---       #28
      01001632H   LINE      ---      ---       #29
      01001634H   LINE      ---      ---       #30
      ---         BLOCKEND  ---      ---       LVL=0

      01001737H   BLOCK     CODE     ---       LVL=0
      01001737H   LINE      ---      ---       #32
      01001737H   LINE      ---      ---       #33
      00000007H   SYMBOL    DATA     BYTE      dat
      01001737H   BLOCK     CODE     NEAR LAB  LVL=1
      01001737H   LINE      ---      ---       #35
      01001739H   LINE      ---      ---       #36
      01001739H   LINE      ---      ---       #37
      0100173DH   LINE      ---      ---       #38
      0100173DH   LINE      ---      ---       #39
      0100173FH   LINE      ---      ---       #40
      01001741H   LINE      ---      ---       #42
      01001741H   LINE      ---      ---       #43
      01001743H   LINE      ---      ---       #44
      01001743H   LINE      ---      ---       #45
      01001745H   LINE      ---      ---       #47
      01001747H   LINE      ---      ---       #49
      0100174BH   LINE      ---      ---       #50
      01001750H   LINE      ---      ---       #51
      01001756H   LINE      ---      ---       #53
      01001758H   LINE      ---      ---       #55
      0100175DH   LINE      ---      ---       #57
      0100175FH   LINE      ---      ---       #58
      01001765H   LINE      ---      ---       #59
      0100176DH   LINE      ---      ---       #60
      00000006H   SYMBOL    DATA     BYTE      i
      ---         BLOCKEND  CODE     ---       LVL=1
      ---         BLOCKEND  CODE     ---       LVL=0

      01001783H   BLOCK     CODE     ---       LVL=0
      01001783H   LINE      ---      ---       #61
      01001785H   LINE      ---      ---       #62
      00000005H   SYMBOL    DATA     CHAR      ack
      01001785H   BLOCK     CODE     NEAR LAB  LVL=1
      01001785H   LINE      ---      ---       #64
      01001787H   LINE      ---      ---       #65
      0100178DH   LINE      ---      ---       #66
      01001792H   LINE      ---      ---       #67
      01001794H   LINE      ---      ---       #68
      01001794H   LINE      ---      ---       #69
      01001796H   LINE      ---      ---       #71
      0100179AH   LINE      ---      ---       #72
      0100179DH   LINE      ---      ---       #73
      0100179DH   LINE      ---      ---       #74
LX51 LINKER/LOCATER V4.66.1.0                                                         10/28/2019  14:49:17  PAGE 44


      010017A0H   LINE      ---      ---       #75
      010017A0H   LINE      ---      ---       #76
      010017A2H   LINE      ---      ---       #77
      010017A7H   LINE      ---      ---       #78
      010017ADH   LINE      ---      ---       #79
      010017B0H   LINE      ---      ---       #80
      010017B4H   LINE      ---      ---       #82
      010017B6H   LINE      ---      ---       #83
      010017B8H   LINE      ---      ---       #84
      010017BEH   LINE      ---      ---       #85
      010017C0H   LINE      ---      ---       #86
      010017C6H   LINE      ---      ---       #87
      010017C8H   LINE      ---      ---       #88
      00000007H   SYMBOL    DATA     BYTE      i
      00000003H   SYMBOL    DATA     BYTE      r
      ---         BLOCKEND  CODE     ---       LVL=1
      ---         BLOCKEND  CODE     ---       LVL=0

      01001635H   BLOCK     CODE     ---       LVL=0
      01001635H   LINE      ---      ---       #90
      01001645H   LINE      ---      ---       #91
      02000254H   SYMBOL    XDATA    BYTE      devAddr7
      00000005H   SYMBOL    DATA     BYTE      addr
      02000256H   SYMBOL    XDATA    ---       buf
      02000259H   SYMBOL    XDATA    BYTE      Size
      01001645H   BLOCK     CODE     NEAR LAB  LVL=1
      01001645H   LINE      ---      ---       #93
      01001647H   LINE      ---      ---       #94
      01001654H   LINE      ---      ---       #95
      01001654H   LINE      ---      ---       #96
      01001656H   LINE      ---      ---       #98
      01001656H   LINE      ---      ---       #99
      0100165DH   LINE      ---      ---       #100
      0100165DH   LINE      ---      ---       #101
      0100165FH   LINE      ---      ---       #103
      0100165FH   LINE      ---      ---       #104
      0100167DH   LINE      ---      ---       #105
      0100167DH   LINE      ---      ---       #106
      01001696H   LINE      ---      ---       #107
      01001696H   LINE      ---      ---       #108
      01001698H   LINE      ---      ---       #110
      01001698H   LINE      ---      ---       #111
      010016A8H   LINE      ---      ---       #112
      0200025AH   SYMBOL    XDATA    INT       i
      ---         BLOCKEND  CODE     ---       LVL=1
      ---         BLOCKEND  CODE     ---       LVL=0

      010016AAH   BLOCK     CODE     ---       LVL=0
      010016AAH   LINE      ---      ---       #115
      010016BAH   LINE      ---      ---       #116
      02000259H   SYMBOL    XDATA    BYTE      devAddr7
      00000005H   SYMBOL    DATA     BYTE      addr
      0200025BH   SYMBOL    XDATA    ---       buf
      0200025EH   SYMBOL    XDATA    BYTE      Size
      010016BAH   BLOCK     CODE     NEAR LAB  LVL=1
      010016BAH   LINE      ---      ---       #118
      010016BCH   LINE      ---      ---       #119
      010016C9H   LINE      ---      ---       #120
      010016C9H   LINE      ---      ---       #121
      010016CBH   LINE      ---      ---       #123
      010016CBH   LINE      ---      ---       #124
      010016D2H   LINE      ---      ---       #125
      010016D2H   LINE      ---      ---       #126
      010016D4H   LINE      ---      ---       #128
      010016D4H   LINE      ---      ---       #129
LX51 LINKER/LOCATER V4.66.1.0                                                         10/28/2019  14:49:17  PAGE 45


      010016D6H   LINE      ---      ---       #130
      010016E4H   LINE      ---      ---       #131
      010016E4H   LINE      ---      ---       #132
      010016E6H   LINE      ---      ---       #134
      010016E6H   LINE      ---      ---       #135
      010016F7H   LINE      ---      ---       #136
      010016F7H   LINE      ---      ---       #137
      0100170FH   LINE      ---      ---       #138
      01001717H   LINE      ---      ---       #139
      0100172FH   LINE      ---      ---       #140
      01001735H   LINE      ---      ---       #141
      0200025FH   SYMBOL    XDATA    BYTE      i
      ---         BLOCKEND  CODE     ---       LVL=1
      ---         BLOCKEND  CODE     ---       LVL=0

      01000D60H   BLOCK     CODE     ---       LVL=0
      01000D60H   LINE      ---      ---       #144
      01000D65H   LINE      ---      ---       #145
      01000D68H   LINE      ---      ---       #146
      01000D79H   LINE      ---      ---       #147
      01000D7BH   LINE      ---      ---       #149
      00000007H   SYMBOL    DATA     BYTE      sl_spi_iic
      00000005H   SYMBOL    DATA     BYTE      reg
      02000253H   SYMBOL    XDATA    BYTE      Data
      ---         BLOCKEND  ---      ---       LVL=0

      01000C41H   BLOCK     CODE     ---       LVL=0
      01000C41H   LINE      ---      ---       #150
      01000C43H   LINE      ---      ---       #151
      01000C43H   LINE      ---      ---       #152
      01000C46H   LINE      ---      ---       #153
      01000C5BH   LINE      ---      ---       #154
      01000C5DH   LINE      ---      ---       #155
      00000007H   SYMBOL    DATA     BYTE      sl_spi_iic
      00000005H   SYMBOL    DATA     BYTE      reg
      00000006H   SYMBOL    DATA     BYTE      len
      02000256H   SYMBOL    XDATA    ---       buf
      ---         BLOCKEND  ---      ---       LVL=0

      ---         MODULE    ---      ---       REGISTERS
      000000F6H   SFRSYM    DATA     BYTE      AINDIDS
      000000B1H   SFRSYM    DATA     BYTE      P0M1
      000000B3H   SFRSYM    DATA     BYTE      P1M1
      000000B2H   SFRSYM    DATA     BYTE      P0M2
      00000080H   SFRSYM    DATA     BYTE      P0
      000000BBH   SFRSYM    DATA     BYTE      SADDR_1
      000000B4H   SFRSYM    DATA     BYTE      P1M2
      00000090H   SFRSYM    DATA     BYTE      P1
      000000C0H.2 SFRSYM    DATA     BIT       AA
      000000ACH   SFRSYM    DATA     BYTE      P3M1
      000000A0H   SFRSYM    DATA     BYTE      P2
      000000B0H   SFRSYM    DATA     BYTE      P3
      000000ADH   SFRSYM    DATA     BYTE      P3M2
      000000D0H.6 SFRSYM    DATA     BIT       AC
      0000008FH   SFRSYM    DATA     BYTE      WKCON
      0000009CH   SFRSYM    DATA     BYTE      EIE1
      000000A8H.7 SFRSYM    DATA     BIT       EA
      000000D8H   SFRSYM    DATA     BYTE      PWMCON0
      000000DFH   SFRSYM    DATA     BYTE      PWMCON1
      00000098H.7 SFRSYM    DATA     BIT       FE
      000000A8H.6 SFRSYM    DATA     BIT       EADC
      000000D1H   SFRSYM    DATA     BYTE      PWMPH
      000000A8H   SFRSYM    DATA     BYTE      IE
      00000096H   SFRSYM    DATA     BYTE      CKSWT
      000000E8H.7 SFRSYM    DATA     BIT       ADCF
LX51 LINKER/LOCATER V4.66.1.0                                                         10/28/2019  14:49:17  PAGE 46


      000000FEH   SFRSYM    DATA     BYTE      EIP1
      000000D9H   SFRSYM    DATA     BYTE      PWMPL
      000000E8H   SFRSYM    DATA     BIT       ADCHS0
      000000C7H   SFRSYM    DATA     BYTE      TA
      000000E8H.1 SFRSYM    DATA     BIT       ADCHS1
      000000E8H.2 SFRSYM    DATA     BIT       ADCHS2
      000000E8H.3 SFRSYM    DATA     BIT       ADCHS3
      000000A8H.4 SFRSYM    DATA     BIT       ES
      000000C1H   SFRSYM    DATA     BYTE      I2ADDR
      000000B8H.6 SFRSYM    DATA     BIT       PADC
      000000B8H   SFRSYM    DATA     BYTE      IP
      000000A8H.5 SFRSYM    DATA     BIT       EBOD
      00000098H   SFRSYM    DATA     BIT       RI
      000000F8H.7 SFRSYM    DATA     BIT       FE_1
      000000E8H.6 SFRSYM    DATA     BIT       ADCS
      000000D0H.7 SFRSYM    DATA     BIT       CY
      000000C0H.3 SFRSYM    DATA     BIT       SI
      000000B0H   SFRSYM    DATA     BIT       INT0
      00000098H.1 SFRSYM    DATA     BIT       TI
      000000D8H.6 SFRSYM    DATA     BIT       LOAD
      00000097H   SFRSYM    DATA     BYTE      CKEN
      000000B8H.4 SFRSYM    DATA     BIT       PS
      00000081H   SFRSYM    DATA     BYTE      SP
      000000D0H.2 SFRSYM    DATA     BIT       OV
      000000B7H   SFRSYM    DATA     BYTE      PWMINTC
      000000B8H.5 SFRSYM    DATA     BIT       PBOD
      000000B2H   SFRSYM    DATA     BYTE      P0SR
      000000F7H   SFRSYM    DATA     BYTE      EIPH
      000000B4H   SFRSYM    DATA     BYTE      P1SR
      000000ADH   SFRSYM    DATA     BYTE      P3SR
      000000F8H   SFRSYM    DATA     BIT       RI_1
      000000F8H.1 SFRSYM    DATA     BIT       TI_1
      000000CBH   SFRSYM    DATA     BYTE      RCMP2H
      000000CFH   SFRSYM    DATA     BYTE      ADCMPH
      00000080H   SFRSYM    DATA     BIT       P00
      00000090H   SFRSYM    DATA     BIT       P10
      00000080H.1 SFRSYM    DATA     BIT       P01
      000000FBH   SFRSYM    DATA     BYTE      PMEN
      00000099H   SFRSYM    DATA     BYTE      SBUF
      00000087H   SFRSYM    DATA     BYTE      PCON
      000000A0H   SFRSYM    DATA     BIT       P20
      00000090H.1 SFRSYM    DATA     BIT       P11
      00000080H.2 SFRSYM    DATA     BIT       P02
      000000CAH   SFRSYM    DATA     BYTE      RCMP2L
      000000B0H   SFRSYM    DATA     BIT       P30
      00000090H.2 SFRSYM    DATA     BIT       P12
      00000080H.3 SFRSYM    DATA     BIT       P03
      000000E3H   SFRSYM    DATA     BYTE      ADCDLY
      000000CEH   SFRSYM    DATA     BYTE      ADCMPL
      00000090H.3 SFRSYM    DATA     BIT       P13
      00000080H.4 SFRSYM    DATA     BIT       P04
      00000098H   SFRSYM    DATA     BYTE      SCON
      00000090H.4 SFRSYM    DATA     BIT       P14
      00000080H.5 SFRSYM    DATA     BIT       P05
      00000089H   SFRSYM    DATA     BYTE      TMOD
      00000088H   SFRSYM    DATA     BYTE      TCON
      00000090H.5 SFRSYM    DATA     BIT       P15
      00000080H.6 SFRSYM    DATA     BIT       P06
      00000090H.6 SFRSYM    DATA     BIT       P16
      00000080H.7 SFRSYM    DATA     BIT       P07
      00000090H.7 SFRSYM    DATA     BIT       P17
      000000F3H   SFRSYM    DATA     BYTE      SPCR
      000000BDH   SFRSYM    DATA     BYTE      I2STAT
      000000F5H   SFRSYM    DATA     BYTE      SPDR
      000000D8H.5 SFRSYM    DATA     BIT       PWMF
LX51 LINKER/LOCATER V4.66.1.0                                                         10/28/2019  14:49:17  PAGE 47


      000000E5H   SFRSYM    DATA     BYTE      C0H
      000000E7H   SFRSYM    DATA     BYTE      C1H
      000000EEH   SFRSYM    DATA     BYTE      C2H
      0000009FH   SFRSYM    DATA     BYTE      CHPCON
      00000088H.1 SFRSYM    DATA     BIT       IE0
      00000088H.3 SFRSYM    DATA     BIT       IE1
      000000E4H   SFRSYM    DATA     BYTE      C0L
      00000091H   SFRSYM    DATA     BYTE      SFRS
      000000E6H   SFRSYM    DATA     BYTE      C1L
      000000C8H   SFRSYM    DATA     BIT       CM_RL2
      000000F0H   SFRSYM    DATA     BYTE      B
      000000EDH   SFRSYM    DATA     BYTE      C2L
      0000009AH   SFRSYM    DATA     BYTE      SBUF_1
      000000A5H   SFRSYM    DATA     BYTE      IAPUEN
      000000F8H   SFRSYM    DATA     BYTE      SCON_1
      000000E0H   SFRSYM    DATA     BYTE      ACC
      000000A8H.1 SFRSYM    DATA     BIT       ET0
      000000F4H   SFRSYM    DATA     BYTE      SPSR
      000000A4H   SFRSYM    DATA     BYTE      IAPTRG
      000000A8H.3 SFRSYM    DATA     BIT       ET1
      00000088H.5 SFRSYM    DATA     BIT       TF0
      00000088H.7 SFRSYM    DATA     BIT       TF1
      000000C8H.7 SFRSYM    DATA     BIT       TF2
      00000098H.2 SFRSYM    DATA     BIT       RB8
      000000D7H   SFRSYM    DATA     BYTE      FBD
      0000008CH   SFRSYM    DATA     BYTE      TH0
      000000A8H   SFRSYM    DATA     BIT       EX0
      00000088H   SFRSYM    DATA     BIT       IT0
      000000C6H   SFRSYM    DATA     BYTE      RH3
      0000008DH   SFRSYM    DATA     BYTE      TH1
      000000A8H.2 SFRSYM    DATA     BIT       EX1
      00000098H.3 SFRSYM    DATA     BIT       TB8
      00000088H.2 SFRSYM    DATA     BIT       IT1
      000000CDH   SFRSYM    DATA     BYTE      TH2
      000000D0H   SFRSYM    DATA     BIT       P
      000000FAH   SFRSYM    DATA     BYTE      PDTCNT
      00000098H.7 SFRSYM    DATA     BIT       SM0
      0000008AH   SFRSYM    DATA     BYTE      TL0
      00000098H.6 SFRSYM    DATA     BIT       SM1
      000000C5H   SFRSYM    DATA     BYTE      RL3
      0000008BH   SFRSYM    DATA     BYTE      TL1
      000000C0H.6 SFRSYM    DATA     BIT       I2CEN
      00000098H.5 SFRSYM    DATA     BIT       SM2
      000000CCH   SFRSYM    DATA     BYTE      TL2
      000000B1H   SFRSYM    DATA     BYTE      P0S
      0000009BH   SFRSYM    DATA     BYTE      EIE
      000000B8H.1 SFRSYM    DATA     BIT       PT0
      000000B3H   SFRSYM    DATA     BYTE      P1S
      000000D0H.3 SFRSYM    DATA     BIT       RS0
      000000B8H.3 SFRSYM    DATA     BIT       PT1
      000000BCH   SFRSYM    DATA     BYTE      I2DAT
      000000B5H   SFRSYM    DATA     BYTE      P2S
      000000D0H.4 SFRSYM    DATA     BIT       RS1
      00000088H.4 SFRSYM    DATA     BIT       TR0
      000000BEH   SFRSYM    DATA     BYTE      I2CLK
      000000ACH   SFRSYM    DATA     BYTE      P3S
      000000D8H.4 SFRSYM    DATA     BIT       CLRPWM
      00000088H.6 SFRSYM    DATA     BIT       TR1
      000000C8H.2 SFRSYM    DATA     BIT       TR2
      000000B8H   SFRSYM    DATA     BIT       PX0
      00000090H.4 SFRSYM    DATA     BIT       SDA
      000000FFH   SFRSYM    DATA     BYTE      EIPH1
      000000B8H.2 SFRSYM    DATA     BIT       PX1
      000000E8H   SFRSYM    DATA     BYTE      ADCCON0
      000000E1H   SFRSYM    DATA     BYTE      ADCCON1
LX51 LINKER/LOCATER V4.66.1.0                                                         10/28/2019  14:49:17  PAGE 48


      000000E2H   SFRSYM    DATA     BYTE      ADCCON2
      000000C0H   SFRSYM    DATA     BYTE      I2CON
      00000083H   SFRSYM    DATA     BYTE      DPH
      000000F8H.2 SFRSYM    DATA     BIT       RB8_1
      000000EFH   SFRSYM    DATA     BYTE      EIP
      000000F8H.3 SFRSYM    DATA     BIT       TB8_1
      000000ECH   SFRSYM    DATA     BYTE      PIF
      00000082H   SFRSYM    DATA     BYTE      DPL
      000000F8H.7 SFRSYM    DATA     BIT       SM0_1
      000000FCH   SFRSYM    DATA     BYTE      PMD
      000000B7H   SFRSYM    DATA     BYTE      IPH
      000000F8H.6 SFRSYM    DATA     BIT       SM1_1
      00000090H.3 SFRSYM    DATA     BIT       SCL
      000000BFH   SFRSYM    DATA     BYTE      I2TOC
      000000F8H.5 SFRSYM    DATA     BIT       SM2_1
      000000C3H   SFRSYM    DATA     BYTE      ADCRH
      000000A7H   SFRSYM    DATA     BYTE      IAPAH
      00000098H.4 SFRSYM    DATA     BIT       REN
      000000AEH   SFRSYM    DATA     BYTE      IAPFD
      00000092H   SFRSYM    DATA     BYTE      CAPCON0
      000000C0H   SFRSYM    DATA     BIT       I2CPX
      000000C9H   SFRSYM    DATA     BYTE      T2MOD
      000000C8H   SFRSYM    DATA     BYTE      T2CON
      000000C2H   SFRSYM    DATA     BYTE      ADCRL
      000000A3H   SFRSYM    DATA     BYTE      BODCON0
      00000093H   SFRSYM    DATA     BYTE      CAPCON1
      000000C0H.5 SFRSYM    DATA     BIT       STA
      000000C4H   SFRSYM    DATA     BYTE      T3CON
      000000ABH   SFRSYM    DATA     BYTE      BODCON1
      000000A6H   SFRSYM    DATA     BYTE      IAPAL
      00000094H   SFRSYM    DATA     BYTE      CAPCON2
      000000F1H   SFRSYM    DATA     BYTE      CAPCON3
      000000F2H   SFRSYM    DATA     BYTE      CAPCON4
      000000D8H.7 SFRSYM    DATA     BIT       PWMRUN
      000000F3H   SFRSYM    DATA     BYTE      SPCR2
      000000B9H   SFRSYM    DATA     BYTE      SADEN
      000000AFH   SFRSYM    DATA     BYTE      IAPCN
      000000D2H   SFRSYM    DATA     BYTE      PWM0H
      000000D6H   SFRSYM    DATA     BYTE      PNP
      000000D3H   SFRSYM    DATA     BYTE      PWM1H
      000000D4H   SFRSYM    DATA     BYTE      PWM2H
      000000A9H   SFRSYM    DATA     BYTE      SADDR
      0000008EH   SFRSYM    DATA     BYTE      CKCON
      000000D5H   SFRSYM    DATA     BYTE      PWM3H
      000000DAH   SFRSYM    DATA     BYTE      PWM0L
      000000C4H   SFRSYM    DATA     BYTE      PWM4H
      000000DBH   SFRSYM    DATA     BYTE      PWM1L
      000000C5H   SFRSYM    DATA     BYTE      PWM5H
      000000A2H   SFRSYM    DATA     BYTE      AUXR1
      00000095H   SFRSYM    DATA     BYTE      CKDIV
      000000DCH   SFRSYM    DATA     BYTE      PWM2L
      000000DDH   SFRSYM    DATA     BYTE      PWM3L
      00000086H   SFRSYM    DATA     BYTE      RWK
      000000D0H.5 SFRSYM    DATA     BIT       F0
      000000CCH   SFRSYM    DATA     BYTE      PWM4L
      000000F8H.4 SFRSYM    DATA     BIT       REN_1
      000000E8H.4 SFRSYM    DATA     BIT       ETGSEL0
      000000C0H.4 SFRSYM    DATA     BIT       STO
      000000CDH   SFRSYM    DATA     BYTE      PWM5L
      000000E8H.5 SFRSYM    DATA     BIT       ETGSEL1
      000000E9H   SFRSYM    DATA     BYTE      PICON
      000000DEH   SFRSYM    DATA     BYTE      PIOCON0
      000000D0H   SFRSYM    DATA     BYTE      PSW
      000000EAH   SFRSYM    DATA     BYTE      PINEN
      000000C6H   SFRSYM    DATA     BYTE      PIOCON1
LX51 LINKER/LOCATER V4.66.1.0                                                         10/28/2019  14:49:17  PAGE 49


      000000F9H   SFRSYM    DATA     BYTE      PDTEN
      000000AAH   SFRSYM    DATA     BYTE      WDCON
      000000EBH   SFRSYM    DATA     BYTE      PIPEN
      000000BAH   SFRSYM    DATA     BYTE      SADEN_1

      ---         MODULE    ---      ---       SC7A21
      02000282H   PUBLIC    XDATA    ---       Rx_buf
      02000262H   PUBLIC    XDATA    ---       TX_buf
      010004C8H   PUBLIC    CONST    ---       Reg
      010017C9H   PUBLIC    CODE     ---       Clean_STEP_COUNTER
      0100183FH   PUBLIC    CODE     ---       Read_STEP_COUNTER
      010017F4H   PUBLIC    CODE     ---       INIT_SC7A21
      000000F6H   SFRSYM    DATA     BYTE      AINDIDS
      000000B1H   SFRSYM    DATA     BYTE      P0M1
      000000B3H   SFRSYM    DATA     BYTE      P1M1
      000000B2H   SFRSYM    DATA     BYTE      P0M2
      00000080H   SFRSYM    DATA     BYTE      P0
      000000BBH   SFRSYM    DATA     BYTE      SADDR_1
      000000B4H   SFRSYM    DATA     BYTE      P1M2
      00000090H   SFRSYM    DATA     BYTE      P1
      000000C0H.2 SFRSYM    DATA     BIT       AA
      000000ACH   SFRSYM    DATA     BYTE      P3M1
      000000A0H   SFRSYM    DATA     BYTE      P2
      000000B0H   SFRSYM    DATA     BYTE      P3
      000000ADH   SFRSYM    DATA     BYTE      P3M2
      000000D0H.6 SFRSYM    DATA     BIT       AC
      0000008FH   SFRSYM    DATA     BYTE      WKCON
      0000009CH   SFRSYM    DATA     BYTE      EIE1
      000000A8H.7 SFRSYM    DATA     BIT       EA
      000000D8H   SFRSYM    DATA     BYTE      PWMCON0
      000000DFH   SFRSYM    DATA     BYTE      PWMCON1
      00000098H.7 SFRSYM    DATA     BIT       FE
      000000A8H.6 SFRSYM    DATA     BIT       EADC
      000000D1H   SFRSYM    DATA     BYTE      PWMPH
      000000A8H   SFRSYM    DATA     BYTE      IE
      00000096H   SFRSYM    DATA     BYTE      CKSWT
      000000E8H.7 SFRSYM    DATA     BIT       ADCF
      000000FEH   SFRSYM    DATA     BYTE      EIP1
      000000D9H   SFRSYM    DATA     BYTE      PWMPL
      000000E8H   SFRSYM    DATA     BIT       ADCHS0
      000000C7H   SFRSYM    DATA     BYTE      TA
      000000E8H.1 SFRSYM    DATA     BIT       ADCHS1
      000000E8H.2 SFRSYM    DATA     BIT       ADCHS2
      000000E8H.3 SFRSYM    DATA     BIT       ADCHS3
      000000A8H.4 SFRSYM    DATA     BIT       ES
      000000C1H   SFRSYM    DATA     BYTE      I2ADDR
      000000B8H.6 SFRSYM    DATA     BIT       PADC
      000000B8H   SFRSYM    DATA     BYTE      IP
      000000A8H.5 SFRSYM    DATA     BIT       EBOD
      00000098H   SFRSYM    DATA     BIT       RI
      000000F8H.7 SFRSYM    DATA     BIT       FE_1
      000000E8H.6 SFRSYM    DATA     BIT       ADCS
      000000D0H.7 SFRSYM    DATA     BIT       CY
      000000C0H.3 SFRSYM    DATA     BIT       SI
      000000B0H   SFRSYM    DATA     BIT       INT0
      00000098H.1 SFRSYM    DATA     BIT       TI
      000000D8H.6 SFRSYM    DATA     BIT       LOAD
      00000097H   SFRSYM    DATA     BYTE      CKEN
      000000B8H.4 SFRSYM    DATA     BIT       PS
      00000081H   SFRSYM    DATA     BYTE      SP
      000000D0H.2 SFRSYM    DATA     BIT       OV
      000000B7H   SFRSYM    DATA     BYTE      PWMINTC
      000000B8H.5 SFRSYM    DATA     BIT       PBOD
      000000B2H   SFRSYM    DATA     BYTE      P0SR
      000000F7H   SFRSYM    DATA     BYTE      EIPH
LX51 LINKER/LOCATER V4.66.1.0                                                         10/28/2019  14:49:17  PAGE 50


      000000B4H   SFRSYM    DATA     BYTE      P1SR
      000000ADH   SFRSYM    DATA     BYTE      P3SR
      000000F8H   SFRSYM    DATA     BIT       RI_1
      000000F8H.1 SFRSYM    DATA     BIT       TI_1
      000000CBH   SFRSYM    DATA     BYTE      RCMP2H
      000000CFH   SFRSYM    DATA     BYTE      ADCMPH
      00000080H   SFRSYM    DATA     BIT       P00
      00000090H   SFRSYM    DATA     BIT       P10
      00000080H.1 SFRSYM    DATA     BIT       P01
      000000FBH   SFRSYM    DATA     BYTE      PMEN
      00000099H   SFRSYM    DATA     BYTE      SBUF
      00000087H   SFRSYM    DATA     BYTE      PCON
      000000A0H   SFRSYM    DATA     BIT       P20
      00000090H.1 SFRSYM    DATA     BIT       P11
      00000080H.2 SFRSYM    DATA     BIT       P02
      000000CAH   SFRSYM    DATA     BYTE      RCMP2L
      000000B0H   SFRSYM    DATA     BIT       P30
      00000090H.2 SFRSYM    DATA     BIT       P12
      00000080H.3 SFRSYM    DATA     BIT       P03
      000000E3H   SFRSYM    DATA     BYTE      ADCDLY
      000000CEH   SFRSYM    DATA     BYTE      ADCMPL
      00000090H.3 SFRSYM    DATA     BIT       P13
      00000080H.4 SFRSYM    DATA     BIT       P04
      00000098H   SFRSYM    DATA     BYTE      SCON
      00000090H.4 SFRSYM    DATA     BIT       P14
      00000080H.5 SFRSYM    DATA     BIT       P05
      00000089H   SFRSYM    DATA     BYTE      TMOD
      00000088H   SFRSYM    DATA     BYTE      TCON
      00000090H.5 SFRSYM    DATA     BIT       P15
      00000080H.6 SFRSYM    DATA     BIT       P06
      00000090H.6 SFRSYM    DATA     BIT       P16
      00000080H.7 SFRSYM    DATA     BIT       P07
      00000090H.7 SFRSYM    DATA     BIT       P17
      000000F3H   SFRSYM    DATA     BYTE      SPCR
      000000BDH   SFRSYM    DATA     BYTE      I2STAT
      000000F5H   SFRSYM    DATA     BYTE      SPDR
      000000D8H.5 SFRSYM    DATA     BIT       PWMF
      000000E5H   SFRSYM    DATA     BYTE      C0H
      000000E7H   SFRSYM    DATA     BYTE      C1H
      000000EEH   SFRSYM    DATA     BYTE      C2H
      0000009FH   SFRSYM    DATA     BYTE      CHPCON
      00000088H.1 SFRSYM    DATA     BIT       IE0
      00000088H.3 SFRSYM    DATA     BIT       IE1
      000000E4H   SFRSYM    DATA     BYTE      C0L
      00000091H   SFRSYM    DATA     BYTE      SFRS
      000000E6H   SFRSYM    DATA     BYTE      C1L
      000000C8H   SFRSYM    DATA     BIT       CM_RL2
      000000F0H   SFRSYM    DATA     BYTE      B
      000000EDH   SFRSYM    DATA     BYTE      C2L
      0000009AH   SFRSYM    DATA     BYTE      SBUF_1
      000000A5H   SFRSYM    DATA     BYTE      IAPUEN
      000000F8H   SFRSYM    DATA     BYTE      SCON_1
      000000E0H   SFRSYM    DATA     BYTE      ACC
      000000A8H.1 SFRSYM    DATA     BIT       ET0
      000000F4H   SFRSYM    DATA     BYTE      SPSR
      000000A4H   SFRSYM    DATA     BYTE      IAPTRG
      000000A8H.3 SFRSYM    DATA     BIT       ET1
      00000088H.5 SFRSYM    DATA     BIT       TF0
      00000088H.7 SFRSYM    DATA     BIT       TF1
      000000C8H.7 SFRSYM    DATA     BIT       TF2
      00000098H.2 SFRSYM    DATA     BIT       RB8
      000000D7H   SFRSYM    DATA     BYTE      FBD
      0000008CH   SFRSYM    DATA     BYTE      TH0
      000000A8H   SFRSYM    DATA     BIT       EX0
      00000088H   SFRSYM    DATA     BIT       IT0
LX51 LINKER/LOCATER V4.66.1.0                                                         10/28/2019  14:49:17  PAGE 51


      000000C6H   SFRSYM    DATA     BYTE      RH3
      0000008DH   SFRSYM    DATA     BYTE      TH1
      000000A8H.2 SFRSYM    DATA     BIT       EX1
      00000098H.3 SFRSYM    DATA     BIT       TB8
      00000088H.2 SFRSYM    DATA     BIT       IT1
      000000CDH   SFRSYM    DATA     BYTE      TH2
      000000D0H   SFRSYM    DATA     BIT       P
      000000FAH   SFRSYM    DATA     BYTE      PDTCNT
      00000098H.7 SFRSYM    DATA     BIT       SM0
      0000008AH   SFRSYM    DATA     BYTE      TL0
      00000098H.6 SFRSYM    DATA     BIT       SM1
      000000C5H   SFRSYM    DATA     BYTE      RL3
      0000008BH   SFRSYM    DATA     BYTE      TL1
      000000C0H.6 SFRSYM    DATA     BIT       I2CEN
      00000098H.5 SFRSYM    DATA     BIT       SM2
      000000CCH   SFRSYM    DATA     BYTE      TL2
      000000B1H   SFRSYM    DATA     BYTE      P0S
      0000009BH   SFRSYM    DATA     BYTE      EIE
      000000B8H.1 SFRSYM    DATA     BIT       PT0
      000000B3H   SFRSYM    DATA     BYTE      P1S
      000000D0H.3 SFRSYM    DATA     BIT       RS0
      000000B8H.3 SFRSYM    DATA     BIT       PT1
      000000BCH   SFRSYM    DATA     BYTE      I2DAT
      000000B5H   SFRSYM    DATA     BYTE      P2S
      000000D0H.4 SFRSYM    DATA     BIT       RS1
      00000088H.4 SFRSYM    DATA     BIT       TR0
      000000BEH   SFRSYM    DATA     BYTE      I2CLK
      000000ACH   SFRSYM    DATA     BYTE      P3S
      000000D8H.4 SFRSYM    DATA     BIT       CLRPWM
      00000088H.6 SFRSYM    DATA     BIT       TR1
      000000C8H.2 SFRSYM    DATA     BIT       TR2
      000000B8H   SFRSYM    DATA     BIT       PX0
      00000090H.4 SFRSYM    DATA     BIT       SDA
      000000FFH   SFRSYM    DATA     BYTE      EIPH1
      000000B8H.2 SFRSYM    DATA     BIT       PX1
      000000E8H   SFRSYM    DATA     BYTE      ADCCON0
      000000E1H   SFRSYM    DATA     BYTE      ADCCON1
      000000E2H   SFRSYM    DATA     BYTE      ADCCON2
      000000C0H   SFRSYM    DATA     BYTE      I2CON
      00000083H   SFRSYM    DATA     BYTE      DPH
      000000F8H.2 SFRSYM    DATA     BIT       RB8_1
      000000EFH   SFRSYM    DATA     BYTE      EIP
      000000F8H.3 SFRSYM    DATA     BIT       TB8_1
      000000ECH   SFRSYM    DATA     BYTE      PIF
      00000082H   SFRSYM    DATA     BYTE      DPL
      000000F8H.7 SFRSYM    DATA     BIT       SM0_1
      000000FCH   SFRSYM    DATA     BYTE      PMD
      000000B7H   SFRSYM    DATA     BYTE      IPH
      000000F8H.6 SFRSYM    DATA     BIT       SM1_1
      00000090H.3 SFRSYM    DATA     BIT       SCL
      000000BFH   SFRSYM    DATA     BYTE      I2TOC
      000000F8H.5 SFRSYM    DATA     BIT       SM2_1
      000000C3H   SFRSYM    DATA     BYTE      ADCRH
      000000A7H   SFRSYM    DATA     BYTE      IAPAH
      00000098H.4 SFRSYM    DATA     BIT       REN
      000000AEH   SFRSYM    DATA     BYTE      IAPFD
      00000092H   SFRSYM    DATA     BYTE      CAPCON0
      000000C0H   SFRSYM    DATA     BIT       I2CPX
      000000C9H   SFRSYM    DATA     BYTE      T2MOD
      000000C8H   SFRSYM    DATA     BYTE      T2CON
      000000C2H   SFRSYM    DATA     BYTE      ADCRL
      000000A3H   SFRSYM    DATA     BYTE      BODCON0
      00000093H   SFRSYM    DATA     BYTE      CAPCON1
      000000C0H.5 SFRSYM    DATA     BIT       STA
      000000C4H   SFRSYM    DATA     BYTE      T3CON
LX51 LINKER/LOCATER V4.66.1.0                                                         10/28/2019  14:49:17  PAGE 52


      000000ABH   SFRSYM    DATA     BYTE      BODCON1
      000000A6H   SFRSYM    DATA     BYTE      IAPAL
      00000094H   SFRSYM    DATA     BYTE      CAPCON2
      000000F1H   SFRSYM    DATA     BYTE      CAPCON3
      000000F2H   SFRSYM    DATA     BYTE      CAPCON4
      000000D8H.7 SFRSYM    DATA     BIT       PWMRUN
      000000F3H   SFRSYM    DATA     BYTE      SPCR2
      000000B9H   SFRSYM    DATA     BYTE      SADEN
      000000AFH   SFRSYM    DATA     BYTE      IAPCN
      000000D2H   SFRSYM    DATA     BYTE      PWM0H
      000000D6H   SFRSYM    DATA     BYTE      PNP
      000000D3H   SFRSYM    DATA     BYTE      PWM1H
      000000D4H   SFRSYM    DATA     BYTE      PWM2H
      000000A9H   SFRSYM    DATA     BYTE      SADDR
      0000008EH   SFRSYM    DATA     BYTE      CKCON
      000000D5H   SFRSYM    DATA     BYTE      PWM3H
      000000DAH   SFRSYM    DATA     BYTE      PWM0L
      000000C4H   SFRSYM    DATA     BYTE      PWM4H
      000000DBH   SFRSYM    DATA     BYTE      PWM1L
      000000C5H   SFRSYM    DATA     BYTE      PWM5H
      000000A2H   SFRSYM    DATA     BYTE      AUXR1
      00000095H   SFRSYM    DATA     BYTE      CKDIV
      000000DCH   SFRSYM    DATA     BYTE      PWM2L
      000000DDH   SFRSYM    DATA     BYTE      PWM3L
      00000086H   SFRSYM    DATA     BYTE      RWK
      000000D0H.5 SFRSYM    DATA     BIT       F0
      000000CCH   SFRSYM    DATA     BYTE      PWM4L
      000000F8H.4 SFRSYM    DATA     BIT       REN_1
      000000E8H.4 SFRSYM    DATA     BIT       ETGSEL0
      000000C0H.4 SFRSYM    DATA     BIT       STO
      000000CDH   SFRSYM    DATA     BYTE      PWM5L
      000000E8H.5 SFRSYM    DATA     BIT       ETGSEL1
      000000E9H   SFRSYM    DATA     BYTE      PICON
      000000DEH   SFRSYM    DATA     BYTE      PIOCON0
      000000D0H   SFRSYM    DATA     BYTE      PSW
      000000EAH   SFRSYM    DATA     BYTE      PINEN
      000000C6H   SFRSYM    DATA     BYTE      PIOCON1
      000000F9H   SFRSYM    DATA     BYTE      PDTEN
      000000AAH   SFRSYM    DATA     BYTE      WDCON
      000000EBH   SFRSYM    DATA     BYTE      PIPEN
      000000BAH   SFRSYM    DATA     BYTE      SADEN_1

      010017F4H   BLOCK     CODE     ---       LVL=0
      010017F4H   LINE      ---      ---       #41
      010017F4H   LINE      ---      ---       #42
      010017F4H   BLOCK     CODE     NEAR LAB  LVL=1
      010017F4H   LINE      ---      ---       #43
      010017FAH   LINE      ---      ---       #44
      0100180CH   LINE      ---      ---       #45
      0100180CH   LINE      ---      ---       #46
      01001836H   LINE      ---      ---       #47
      0100183EH   LINE      ---      ---       #48
      02000337H   SYMBOL    XDATA    BYTE      i
      02000338H   SYMBOL    XDATA    BYTE      j
      ---         BLOCKEND  CODE     ---       LVL=1
      ---         BLOCKEND  CODE     ---       LVL=0

      0100183FH   BLOCK     CODE     ---       LVL=0
      0100183FH   LINE      ---      ---       #54
      0100183FH   LINE      ---      ---       #55
      0100183FH   LINE      ---      ---       #56
      ---         BLOCKEND  ---      ---       LVL=0

      010017C9H   BLOCK     CODE     ---       LVL=0
      010017C9H   LINE      ---      ---       #63
LX51 LINKER/LOCATER V4.66.1.0                                                         10/28/2019  14:49:17  PAGE 53


      010017C9H   LINE      ---      ---       #64
      010017C9H   BLOCK     CODE     NEAR LAB  LVL=1
      010017C9H   LINE      ---      ---       #65
      010017DBH   LINE      ---      ---       #66
      010017E2H   LINE      ---      ---       #67
      02000339H   SYMBOL    XDATA    BYTE      temp
      ---         BLOCKEND  CODE     ---       LVL=1
      ---         BLOCKEND  CODE     ---       LVL=0

      ---         MODULE    ---      ---       UART
      020002C4H   PUBLIC    XDATA    ---       data_to_send
      02000007H   PUBLIC    XDATA    BYTE      ?_ANO_DT_Send_Version?BYTE
      0100064AH   PUBLIC    CODE     ---       _ANO_DT_Send_Version
      0100078AH   PUBLIC    CODE     ---       _UartSendBuf
      01001956H   PUBLIC    CODE     ---       _Send_Word_To_UART1
      0100194EH   PUBLIC    CODE     ---       _Send_Data_To_UART1
      010018E7H   PUBLIC    CODE     ---       _InitialUART1_Timer3
      010018D1H   PUBLIC    CODE     ---       _Send_Word_To_UART0
      0100002DH   PUBLIC    CODE     ---       _Send_Data_To_UART0
      010018C9H   PUBLIC    CODE     ---       Receive_Data_From_UART0
      01001852H   PUBLIC    CODE     ---       _InitialUART0_Timer3
      000000F6H   SFRSYM    DATA     BYTE      AINDIDS
      000000B1H   SFRSYM    DATA     BYTE      P0M1
      000000B3H   SFRSYM    DATA     BYTE      P1M1
      000000B2H   SFRSYM    DATA     BYTE      P0M2
      00000080H   SFRSYM    DATA     BYTE      P0
      000000BBH   SFRSYM    DATA     BYTE      SADDR_1
      000000B4H   SFRSYM    DATA     BYTE      P1M2
      00000090H   SFRSYM    DATA     BYTE      P1
      000000C0H.2 SFRSYM    DATA     BIT       AA
      000000ACH   SFRSYM    DATA     BYTE      P3M1
      000000A0H   SFRSYM    DATA     BYTE      P2
      000000B0H   SFRSYM    DATA     BYTE      P3
      000000ADH   SFRSYM    DATA     BYTE      P3M2
      000000D0H.6 SFRSYM    DATA     BIT       AC
      0000008FH   SFRSYM    DATA     BYTE      WKCON
      0000009CH   SFRSYM    DATA     BYTE      EIE1
      000000A8H.7 SFRSYM    DATA     BIT       EA
      000000D8H   SFRSYM    DATA     BYTE      PWMCON0
      000000DFH   SFRSYM    DATA     BYTE      PWMCON1
      00000098H.7 SFRSYM    DATA     BIT       FE
      000000A8H.6 SFRSYM    DATA     BIT       EADC
      000000D1H   SFRSYM    DATA     BYTE      PWMPH
      000000A8H   SFRSYM    DATA     BYTE      IE
      00000096H   SFRSYM    DATA     BYTE      CKSWT
      000000E8H.7 SFRSYM    DATA     BIT       ADCF
      000000FEH   SFRSYM    DATA     BYTE      EIP1
      000000D9H   SFRSYM    DATA     BYTE      PWMPL
      000000E8H   SFRSYM    DATA     BIT       ADCHS0
      000000C7H   SFRSYM    DATA     BYTE      TA
      000000E8H.1 SFRSYM    DATA     BIT       ADCHS1
      000000E8H.2 SFRSYM    DATA     BIT       ADCHS2
      000000E8H.3 SFRSYM    DATA     BIT       ADCHS3
      000000A8H.4 SFRSYM    DATA     BIT       ES
      000000C1H   SFRSYM    DATA     BYTE      I2ADDR
      000000B8H.6 SFRSYM    DATA     BIT       PADC
      000000B8H   SFRSYM    DATA     BYTE      IP
      000000A8H.5 SFRSYM    DATA     BIT       EBOD
      00000098H   SFRSYM    DATA     BIT       RI
      000000F8H.7 SFRSYM    DATA     BIT       FE_1
      000000E8H.6 SFRSYM    DATA     BIT       ADCS
      000000D0H.7 SFRSYM    DATA     BIT       CY
      000000C0H.3 SFRSYM    DATA     BIT       SI
      000000B0H   SFRSYM    DATA     BIT       INT0
      00000098H.1 SFRSYM    DATA     BIT       TI
LX51 LINKER/LOCATER V4.66.1.0                                                         10/28/2019  14:49:17  PAGE 54


      000000D8H.6 SFRSYM    DATA     BIT       LOAD
      00000097H   SFRSYM    DATA     BYTE      CKEN
      000000B8H.4 SFRSYM    DATA     BIT       PS
      00000081H   SFRSYM    DATA     BYTE      SP
      000000D0H.2 SFRSYM    DATA     BIT       OV
      000000B7H   SFRSYM    DATA     BYTE      PWMINTC
      000000B8H.5 SFRSYM    DATA     BIT       PBOD
      000000B2H   SFRSYM    DATA     BYTE      P0SR
      000000F7H   SFRSYM    DATA     BYTE      EIPH
      000000B4H   SFRSYM    DATA     BYTE      P1SR
      000000ADH   SFRSYM    DATA     BYTE      P3SR
      000000F8H   SFRSYM    DATA     BIT       RI_1
      000000F8H.1 SFRSYM    DATA     BIT       TI_1
      000000CBH   SFRSYM    DATA     BYTE      RCMP2H
      000000CFH   SFRSYM    DATA     BYTE      ADCMPH
      00000080H   SFRSYM    DATA     BIT       P00
      00000090H   SFRSYM    DATA     BIT       P10
      00000080H.1 SFRSYM    DATA     BIT       P01
      000000FBH   SFRSYM    DATA     BYTE      PMEN
      00000099H   SFRSYM    DATA     BYTE      SBUF
      00000087H   SFRSYM    DATA     BYTE      PCON
      000000A0H   SFRSYM    DATA     BIT       P20
      00000090H.1 SFRSYM    DATA     BIT       P11
      00000080H.2 SFRSYM    DATA     BIT       P02
      000000CAH   SFRSYM    DATA     BYTE      RCMP2L
      000000B0H   SFRSYM    DATA     BIT       P30
      00000090H.2 SFRSYM    DATA     BIT       P12
      00000080H.3 SFRSYM    DATA     BIT       P03
      000000E3H   SFRSYM    DATA     BYTE      ADCDLY
      000000CEH   SFRSYM    DATA     BYTE      ADCMPL
      00000090H.3 SFRSYM    DATA     BIT       P13
      00000080H.4 SFRSYM    DATA     BIT       P04
      00000098H   SFRSYM    DATA     BYTE      SCON
      00000090H.4 SFRSYM    DATA     BIT       P14
      00000080H.5 SFRSYM    DATA     BIT       P05
      00000089H   SFRSYM    DATA     BYTE      TMOD
      00000088H   SFRSYM    DATA     BYTE      TCON
      00000090H.5 SFRSYM    DATA     BIT       P15
      00000080H.6 SFRSYM    DATA     BIT       P06
      00000090H.6 SFRSYM    DATA     BIT       P16
      00000080H.7 SFRSYM    DATA     BIT       P07
      00000090H.7 SFRSYM    DATA     BIT       P17
      000000F3H   SFRSYM    DATA     BYTE      SPCR
      000000BDH   SFRSYM    DATA     BYTE      I2STAT
      000000F5H   SFRSYM    DATA     BYTE      SPDR
      000000D8H.5 SFRSYM    DATA     BIT       PWMF
      000000E5H   SFRSYM    DATA     BYTE      C0H
      000000E7H   SFRSYM    DATA     BYTE      C1H
      000000EEH   SFRSYM    DATA     BYTE      C2H
      0000009FH   SFRSYM    DATA     BYTE      CHPCON
      00000088H.1 SFRSYM    DATA     BIT       IE0
      00000088H.3 SFRSYM    DATA     BIT       IE1
      000000E4H   SFRSYM    DATA     BYTE      C0L
      00000091H   SFRSYM    DATA     BYTE      SFRS
      000000E6H   SFRSYM    DATA     BYTE      C1L
      000000C8H   SFRSYM    DATA     BIT       CM_RL2
      000000F0H   SFRSYM    DATA     BYTE      B
      000000EDH   SFRSYM    DATA     BYTE      C2L
      0000009AH   SFRSYM    DATA     BYTE      SBUF_1
      000000A5H   SFRSYM    DATA     BYTE      IAPUEN
      000000F8H   SFRSYM    DATA     BYTE      SCON_1
      000000E0H   SFRSYM    DATA     BYTE      ACC
      000000A8H.1 SFRSYM    DATA     BIT       ET0
      000000F4H   SFRSYM    DATA     BYTE      SPSR
      000000A4H   SFRSYM    DATA     BYTE      IAPTRG
LX51 LINKER/LOCATER V4.66.1.0                                                         10/28/2019  14:49:17  PAGE 55


      000000A8H.3 SFRSYM    DATA     BIT       ET1
      00000088H.5 SFRSYM    DATA     BIT       TF0
      00000088H.7 SFRSYM    DATA     BIT       TF1
      000000C8H.7 SFRSYM    DATA     BIT       TF2
      00000098H.2 SFRSYM    DATA     BIT       RB8
      000000D7H   SFRSYM    DATA     BYTE      FBD
      0000008CH   SFRSYM    DATA     BYTE      TH0
      000000A8H   SFRSYM    DATA     BIT       EX0
      00000088H   SFRSYM    DATA     BIT       IT0
      000000C6H   SFRSYM    DATA     BYTE      RH3
      0000008DH   SFRSYM    DATA     BYTE      TH1
      000000A8H.2 SFRSYM    DATA     BIT       EX1
      00000098H.3 SFRSYM    DATA     BIT       TB8
      00000088H.2 SFRSYM    DATA     BIT       IT1
      000000CDH   SFRSYM    DATA     BYTE      TH2
      000000D0H   SFRSYM    DATA     BIT       P
      000000FAH   SFRSYM    DATA     BYTE      PDTCNT
      00000098H.7 SFRSYM    DATA     BIT       SM0
      0000008AH   SFRSYM    DATA     BYTE      TL0
      00000098H.6 SFRSYM    DATA     BIT       SM1
      000000C5H   SFRSYM    DATA     BYTE      RL3
      0000008BH   SFRSYM    DATA     BYTE      TL1
      000000C0H.6 SFRSYM    DATA     BIT       I2CEN
      00000098H.5 SFRSYM    DATA     BIT       SM2
      000000CCH   SFRSYM    DATA     BYTE      TL2
      000000B1H   SFRSYM    DATA     BYTE      P0S
      0000009BH   SFRSYM    DATA     BYTE      EIE
      000000B8H.1 SFRSYM    DATA     BIT       PT0
      000000B3H   SFRSYM    DATA     BYTE      P1S
      000000D0H.3 SFRSYM    DATA     BIT       RS0
      000000B8H.3 SFRSYM    DATA     BIT       PT1
      000000BCH   SFRSYM    DATA     BYTE      I2DAT
      000000B5H   SFRSYM    DATA     BYTE      P2S
      000000D0H.4 SFRSYM    DATA     BIT       RS1
      00000088H.4 SFRSYM    DATA     BIT       TR0
      000000BEH   SFRSYM    DATA     BYTE      I2CLK
      000000ACH   SFRSYM    DATA     BYTE      P3S
      000000D8H.4 SFRSYM    DATA     BIT       CLRPWM
      00000088H.6 SFRSYM    DATA     BIT       TR1
      000000C8H.2 SFRSYM    DATA     BIT       TR2
      000000B8H   SFRSYM    DATA     BIT       PX0
      00000090H.4 SFRSYM    DATA     BIT       SDA
      000000FFH   SFRSYM    DATA     BYTE      EIPH1
      000000B8H.2 SFRSYM    DATA     BIT       PX1
      000000E8H   SFRSYM    DATA     BYTE      ADCCON0
      000000E1H   SFRSYM    DATA     BYTE      ADCCON1
      000000E2H   SFRSYM    DATA     BYTE      ADCCON2
      000000C0H   SFRSYM    DATA     BYTE      I2CON
      00000083H   SFRSYM    DATA     BYTE      DPH
      000000F8H.2 SFRSYM    DATA     BIT       RB8_1
      000000EFH   SFRSYM    DATA     BYTE      EIP
      000000F8H.3 SFRSYM    DATA     BIT       TB8_1
      000000ECH   SFRSYM    DATA     BYTE      PIF
      00000082H   SFRSYM    DATA     BYTE      DPL
      000000F8H.7 SFRSYM    DATA     BIT       SM0_1
      000000FCH   SFRSYM    DATA     BYTE      PMD
      000000B7H   SFRSYM    DATA     BYTE      IPH
      000000F8H.6 SFRSYM    DATA     BIT       SM1_1
      00000090H.3 SFRSYM    DATA     BIT       SCL
      000000BFH   SFRSYM    DATA     BYTE      I2TOC
      000000F8H.5 SFRSYM    DATA     BIT       SM2_1
      000000C3H   SFRSYM    DATA     BYTE      ADCRH
      000000A7H   SFRSYM    DATA     BYTE      IAPAH
      00000098H.4 SFRSYM    DATA     BIT       REN
      000000AEH   SFRSYM    DATA     BYTE      IAPFD
LX51 LINKER/LOCATER V4.66.1.0                                                         10/28/2019  14:49:17  PAGE 56


      00000092H   SFRSYM    DATA     BYTE      CAPCON0
      000000C0H   SFRSYM    DATA     BIT       I2CPX
      000000C9H   SFRSYM    DATA     BYTE      T2MOD
      000000C8H   SFRSYM    DATA     BYTE      T2CON
      000000C2H   SFRSYM    DATA     BYTE      ADCRL
      000000A3H   SFRSYM    DATA     BYTE      BODCON0
      00000093H   SFRSYM    DATA     BYTE      CAPCON1
      000000C0H.5 SFRSYM    DATA     BIT       STA
      000000C4H   SFRSYM    DATA     BYTE      T3CON
      000000ABH   SFRSYM    DATA     BYTE      BODCON1
      000000A6H   SFRSYM    DATA     BYTE      IAPAL
      00000094H   SFRSYM    DATA     BYTE      CAPCON2
      000000F1H   SFRSYM    DATA     BYTE      CAPCON3
      000000F2H   SFRSYM    DATA     BYTE      CAPCON4
      000000D8H.7 SFRSYM    DATA     BIT       PWMRUN
      000000F3H   SFRSYM    DATA     BYTE      SPCR2
      000000B9H   SFRSYM    DATA     BYTE      SADEN
      000000AFH   SFRSYM    DATA     BYTE      IAPCN
      000000D2H   SFRSYM    DATA     BYTE      PWM0H
      000000D6H   SFRSYM    DATA     BYTE      PNP
      000000D3H   SFRSYM    DATA     BYTE      PWM1H
      000000D4H   SFRSYM    DATA     BYTE      PWM2H
      000000A9H   SFRSYM    DATA     BYTE      SADDR
      0000008EH   SFRSYM    DATA     BYTE      CKCON
      000000D5H   SFRSYM    DATA     BYTE      PWM3H
      000000DAH   SFRSYM    DATA     BYTE      PWM0L
      000000C4H   SFRSYM    DATA     BYTE      PWM4H
      000000DBH   SFRSYM    DATA     BYTE      PWM1L
      000000C5H   SFRSYM    DATA     BYTE      PWM5H
      000000A2H   SFRSYM    DATA     BYTE      AUXR1
      00000095H   SFRSYM    DATA     BYTE      CKDIV
      000000DCH   SFRSYM    DATA     BYTE      PWM2L
      000000DDH   SFRSYM    DATA     BYTE      PWM3L
      00000086H   SFRSYM    DATA     BYTE      RWK
      000000D0H.5 SFRSYM    DATA     BIT       F0
      000000CCH   SFRSYM    DATA     BYTE      PWM4L
      000000F8H.4 SFRSYM    DATA     BIT       REN_1
      000000E8H.4 SFRSYM    DATA     BIT       ETGSEL0
      000000C0H.4 SFRSYM    DATA     BIT       STO
      000000CDH   SFRSYM    DATA     BYTE      PWM5L
      000000E8H.5 SFRSYM    DATA     BIT       ETGSEL1
      000000E9H   SFRSYM    DATA     BYTE      PICON
      000000DEH   SFRSYM    DATA     BYTE      PIOCON0
      000000D0H   SFRSYM    DATA     BYTE      PSW
      000000EAH   SFRSYM    DATA     BYTE      PINEN
      000000C6H   SFRSYM    DATA     BYTE      PIOCON1
      000000F9H   SFRSYM    DATA     BYTE      PDTEN
      000000AAH   SFRSYM    DATA     BYTE      WDCON
      000000EBH   SFRSYM    DATA     BYTE      PIPEN
      000000BAH   SFRSYM    DATA     BYTE      SADEN_1

      01001852H   BLOCK     CODE     ---       LVL=0
      01001852H   LINE      ---      ---       #3
      01001858H   LINE      ---      ---       #4
      01001858H   LINE      ---      ---       #5
      0100185EH   LINE      ---      ---       #8
      01001861H   LINE      ---      ---       #9
      01001864H   LINE      ---      ---       #10
      01001867H   LINE      ---      ---       #11
      0100186AH   LINE      ---      ---       #12
      01001899H   LINE      ---      ---       #13
      010018C5H   LINE      ---      ---       #16
      010018C8H   LINE      ---      ---       #17
      0200000BH   SYMBOL    XDATA    DWORD     Baudrate
      ---         BLOCKEND  ---      ---       LVL=0
LX51 LINKER/LOCATER V4.66.1.0                                                         10/28/2019  14:49:17  PAGE 57



      010018C9H   BLOCK     CODE     ---       LVL=0
      010018C9H   LINE      ---      ---       #18
      010018C9H   LINE      ---      ---       #19
      010018C9H   BLOCK     CODE     NEAR LAB  LVL=1
      010018C9H   LINE      ---      ---       #22
      010018CCH   LINE      ---      ---       #23
      010018CEH   LINE      ---      ---       #24
      010018D0H   LINE      ---      ---       #25
      010018D0H   LINE      ---      ---       #26
      00000007H   SYMBOL    DATA     BYTE      c
      ---         BLOCKEND  CODE     ---       LVL=1
      ---         BLOCKEND  CODE     ---       LVL=0

      0100002DH   BLOCK     CODE     ---       LVL=0
      0100002DH   LINE      ---      ---       #28
      0100002DH   LINE      ---      ---       #29
      0100002DH   LINE      ---      ---       #30
      0100002FH   LINE      ---      ---       #31
      01000031H   LINE      ---      ---       #32
      01000034H   LINE      ---      ---       #34
      00000007H   SYMBOL    DATA     BYTE      Data
      ---         BLOCKEND  ---      ---       LVL=0

      010018D1H   BLOCK     CODE     ---       LVL=0
      010018D1H   LINE      ---      ---       #35
      010018D5H   LINE      ---      ---       #36
      010018D5H   LINE      ---      ---       #37
      010018D7H   LINE      ---      ---       #38
      010018DAH   LINE      ---      ---       #39
      010018DDH   LINE      ---      ---       #40
      010018DFH   LINE      ---      ---       #41
      010018E3H   LINE      ---      ---       #42
      010018E6H   LINE      ---      ---       #43
      00000004H   SYMBOL    DATA     WORD      Data
      ---         BLOCKEND  ---      ---       LVL=0

      010018E7H   BLOCK     CODE     ---       LVL=0
      010018E7H   LINE      ---      ---       #45
      010018EDH   LINE      ---      ---       #46
      010018EDH   LINE      ---      ---       #52
      010018EFH   LINE      ---      ---       #53
      0100191EH   LINE      ---      ---       #54
      0100194AH   LINE      ---      ---       #56
      0100194DH   LINE      ---      ---       #57
      0200032FH   SYMBOL    XDATA    DWORD     Baudrate
      ---         BLOCKEND  ---      ---       LVL=0

      0100194EH   BLOCK     CODE     ---       LVL=0
      0100194EH   LINE      ---      ---       #59
      0100194EH   LINE      ---      ---       #60
      0100194EH   LINE      ---      ---       #61
      01001950H   LINE      ---      ---       #62
      01001952H   LINE      ---      ---       #63
      01001955H   LINE      ---      ---       #64
      00000007H   SYMBOL    DATA     BYTE      Data
      ---         BLOCKEND  ---      ---       LVL=0

      01001956H   BLOCK     CODE     ---       LVL=0
      01001956H   LINE      ---      ---       #65
      0100195AH   LINE      ---      ---       #66
      0100195AH   LINE      ---      ---       #67
      0100195CH   LINE      ---      ---       #68
      0100195FH   LINE      ---      ---       #69
      01001962H   LINE      ---      ---       #70
LX51 LINKER/LOCATER V4.66.1.0                                                         10/28/2019  14:49:17  PAGE 58


      01001964H   LINE      ---      ---       #71
      01001968H   LINE      ---      ---       #72
      0100196BH   LINE      ---      ---       #73
      00000004H   SYMBOL    DATA     WORD      Data
      ---         BLOCKEND  ---      ---       LVL=0

      0100078AH   BLOCK     CODE     ---       LVL=0
      0100078AH   LINE      ---      ---       #74
      02000012H   SYMBOL    XDATA    ---       buf
      00000005H   SYMBOL    DATA     BYTE      sz
      01000795H   BLOCK     CODE     NEAR LAB  LVL=1
      01000795H   LINE      ---      ---       #77
      0100079CH   LINE      ---      ---       #78
      010007B1H   LINE      ---      ---       #79
      010007B4H   LINE      ---      ---       #80
      00000006H   SYMBOL    DATA     BYTE      i
      ---         BLOCKEND  CODE     ---       LVL=1
      ---         BLOCKEND  CODE     ---       LVL=0

      0100064AH   BLOCK     CODE     ---       LVL=0
      0100064AH   LINE      ---      ---       #90
      01000658H   LINE      ---      ---       #91
      00000007H   SYMBOL    DATA     BYTE      type
      02000008H   SYMBOL    XDATA    WORD      Data1
      0200000AH   SYMBOL    XDATA    WORD      Data2
      0200000CH   SYMBOL    XDATA    WORD      Data3
      0200000EH   SYMBOL    XDATA    WORD      Data4
      02000010H   SYMBOL    XDATA    WORD      Data5
      01000658H   BLOCK     CODE     NEAR LAB  LVL=1
      01000658H   LINE      ---      ---       #92
      0100065AH   LINE      ---      ---       #93
      0100065BH   LINE      ---      ---       #95
      01000668H   LINE      ---      ---       #96
      01000677H   LINE      ---      ---       #97
      01000685H   LINE      ---      ---       #98
      01000693H   LINE      ---      ---       #99
      010006A6H   LINE      ---      ---       #100
      010006B9H   LINE      ---      ---       #101
      010006CCH   LINE      ---      ---       #102
      010006DFH   LINE      ---      ---       #104
      010006F2H   LINE      ---      ---       #105
      01000705H   LINE      ---      ---       #107
      01000718H   LINE      ---      ---       #108
      0100072BH   LINE      ---      ---       #109
      0100073EH   LINE      ---      ---       #110
      01000751H   LINE      ---      ---       #111
      01000758H   LINE      ---      ---       #114
      0100075FH   LINE      ---      ---       #115
      0100076FH   LINE      ---      ---       #116
      01000780H   LINE      ---      ---       #117
      00000006H   SYMBOL    DATA     BYTE      _cnt
      00000005H   SYMBOL    DATA     BYTE      sum
      00000007H   SYMBOL    DATA     BYTE      i
      ---         BLOCKEND  CODE     ---       LVL=1
      ---         BLOCKEND  CODE     ---       LVL=0

      ---         MODULE    ---      ---       WORK
      020002C3H   PUBLIC    XDATA    BYTE      TIME_MIN
      020002C2H   PUBLIC    XDATA    BYTE      LED_Count2
      020002C1H   PUBLIC    XDATA    BYTE      TIME_S
      020002C0H   PUBLIC    XDATA    BYTE      LED_CLOSE_T
      020002BFH   PUBLIC    XDATA    BYTE      LED_Duty
      020002BEH   PUBLIC    XDATA    BYTE      LED_OPEN_Time
      00000020H.2 PUBLIC    BIT      BIT       LED_state
      020002BDH   PUBLIC    XDATA    BYTE      LED_Bri
LX51 LINKER/LOCATER V4.66.1.0                                                         10/28/2019  14:49:17  PAGE 59


      020002BCH   PUBLIC    XDATA    BYTE      LED_cycle
      020002A8H   PUBLIC    XDATA    ---       EEPROM_DATA
      020002A7H   PUBLIC    XDATA    BYTE      LED_Count
      020002A6H   PUBLIC    XDATA    BYTE      LED_OPEN_T
      020002A5H   PUBLIC    XDATA    BYTE      LED_CNT
      020002A4H   PUBLIC    XDATA    BYTE      LED_T
      0100001EH   PUBLIC    CONST    ---       LED_MA
      01001B88H   PUBLIC    CODE     ---       LED_Ctrl
      010011AFH   PUBLIC    CODE     ---       Scan_LED1
      0100196CH   PUBLIC    CODE     ---       Scan_LED
      01000035H   PUBLIC    CODE     ---       ReadEeprom
      0100145BH   PUBLIC    CODE     ---       ParameterReset
      01001451H   PUBLIC    CODE     ---       WriteEeprom
      000000F6H   SFRSYM    DATA     BYTE      AINDIDS
      000000B1H   SFRSYM    DATA     BYTE      P0M1
      000000B3H   SFRSYM    DATA     BYTE      P1M1
      000000B2H   SFRSYM    DATA     BYTE      P0M2
      00000080H   SFRSYM    DATA     BYTE      P0
      000000BBH   SFRSYM    DATA     BYTE      SADDR_1
      000000B4H   SFRSYM    DATA     BYTE      P1M2
      00000090H   SFRSYM    DATA     BYTE      P1
      000000C0H.2 SFRSYM    DATA     BIT       AA
      000000ACH   SFRSYM    DATA     BYTE      P3M1
      000000A0H   SFRSYM    DATA     BYTE      P2
      000000B0H   SFRSYM    DATA     BYTE      P3
      000000ADH   SFRSYM    DATA     BYTE      P3M2
      000000D0H.6 SFRSYM    DATA     BIT       AC
      0000008FH   SFRSYM    DATA     BYTE      WKCON
      0000009CH   SFRSYM    DATA     BYTE      EIE1
      000000A8H.7 SFRSYM    DATA     BIT       EA
      000000D8H   SFRSYM    DATA     BYTE      PWMCON0
      000000DFH   SFRSYM    DATA     BYTE      PWMCON1
      00000098H.7 SFRSYM    DATA     BIT       FE
      000000A8H.6 SFRSYM    DATA     BIT       EADC
      000000D1H   SFRSYM    DATA     BYTE      PWMPH
      000000A8H   SFRSYM    DATA     BYTE      IE
      00000096H   SFRSYM    DATA     BYTE      CKSWT
      000000E8H.7 SFRSYM    DATA     BIT       ADCF
      000000FEH   SFRSYM    DATA     BYTE      EIP1
      000000D9H   SFRSYM    DATA     BYTE      PWMPL
      000000E8H   SFRSYM    DATA     BIT       ADCHS0
      000000C7H   SFRSYM    DATA     BYTE      TA
      000000E8H.1 SFRSYM    DATA     BIT       ADCHS1
      000000E8H.2 SFRSYM    DATA     BIT       ADCHS2
      000000E8H.3 SFRSYM    DATA     BIT       ADCHS3
      000000A8H.4 SFRSYM    DATA     BIT       ES
      000000C1H   SFRSYM    DATA     BYTE      I2ADDR
      000000B8H.6 SFRSYM    DATA     BIT       PADC
      000000B8H   SFRSYM    DATA     BYTE      IP
      000000A8H.5 SFRSYM    DATA     BIT       EBOD
      00000098H   SFRSYM    DATA     BIT       RI
      000000F8H.7 SFRSYM    DATA     BIT       FE_1
      000000E8H.6 SFRSYM    DATA     BIT       ADCS
      000000D0H.7 SFRSYM    DATA     BIT       CY
      000000C0H.3 SFRSYM    DATA     BIT       SI
      000000B0H   SFRSYM    DATA     BIT       INT0
      00000098H.1 SFRSYM    DATA     BIT       TI
      000000D8H.6 SFRSYM    DATA     BIT       LOAD
      00000097H   SFRSYM    DATA     BYTE      CKEN
      000000B8H.4 SFRSYM    DATA     BIT       PS
      00000081H   SFRSYM    DATA     BYTE      SP
      000000D0H.2 SFRSYM    DATA     BIT       OV
      000000B7H   SFRSYM    DATA     BYTE      PWMINTC
      000000B8H.5 SFRSYM    DATA     BIT       PBOD
      000000B2H   SFRSYM    DATA     BYTE      P0SR
LX51 LINKER/LOCATER V4.66.1.0                                                         10/28/2019  14:49:17  PAGE 60


      000000F7H   SFRSYM    DATA     BYTE      EIPH
      000000B4H   SFRSYM    DATA     BYTE      P1SR
      000000ADH   SFRSYM    DATA     BYTE      P3SR
      000000F8H   SFRSYM    DATA     BIT       RI_1
      000000F8H.1 SFRSYM    DATA     BIT       TI_1
      000000CBH   SFRSYM    DATA     BYTE      RCMP2H
      000000CFH   SFRSYM    DATA     BYTE      ADCMPH
      00000080H   SFRSYM    DATA     BIT       P00
      00000090H   SFRSYM    DATA     BIT       P10
      00000080H.1 SFRSYM    DATA     BIT       P01
      000000FBH   SFRSYM    DATA     BYTE      PMEN
      00000099H   SFRSYM    DATA     BYTE      SBUF
      00000087H   SFRSYM    DATA     BYTE      PCON
      000000A0H   SFRSYM    DATA     BIT       P20
      00000090H.1 SFRSYM    DATA     BIT       P11
      00000080H.2 SFRSYM    DATA     BIT       P02
      000000CAH   SFRSYM    DATA     BYTE      RCMP2L
      000000B0H   SFRSYM    DATA     BIT       P30
      00000090H.2 SFRSYM    DATA     BIT       P12
      00000080H.3 SFRSYM    DATA     BIT       P03
      000000E3H   SFRSYM    DATA     BYTE      ADCDLY
      000000CEH   SFRSYM    DATA     BYTE      ADCMPL
      00000090H.3 SFRSYM    DATA     BIT       P13
      00000080H.4 SFRSYM    DATA     BIT       P04
      00000098H   SFRSYM    DATA     BYTE      SCON
      00000090H.4 SFRSYM    DATA     BIT       P14
      00000080H.5 SFRSYM    DATA     BIT       P05
      00000089H   SFRSYM    DATA     BYTE      TMOD
      00000088H   SFRSYM    DATA     BYTE      TCON
      00000090H.5 SFRSYM    DATA     BIT       P15
      00000080H.6 SFRSYM    DATA     BIT       P06
      00000090H.6 SFRSYM    DATA     BIT       P16
      00000080H.7 SFRSYM    DATA     BIT       P07
      00000090H.7 SFRSYM    DATA     BIT       P17
      000000F3H   SFRSYM    DATA     BYTE      SPCR
      000000BDH   SFRSYM    DATA     BYTE      I2STAT
      000000F5H   SFRSYM    DATA     BYTE      SPDR
      000000D8H.5 SFRSYM    DATA     BIT       PWMF
      000000E5H   SFRSYM    DATA     BYTE      C0H
      000000E7H   SFRSYM    DATA     BYTE      C1H
      000000EEH   SFRSYM    DATA     BYTE      C2H
      0000009FH   SFRSYM    DATA     BYTE      CHPCON
      00000088H.1 SFRSYM    DATA     BIT       IE0
      00000088H.3 SFRSYM    DATA     BIT       IE1
      000000E4H   SFRSYM    DATA     BYTE      C0L
      00000091H   SFRSYM    DATA     BYTE      SFRS
      000000E6H   SFRSYM    DATA     BYTE      C1L
      000000C8H   SFRSYM    DATA     BIT       CM_RL2
      000000F0H   SFRSYM    DATA     BYTE      B
      000000EDH   SFRSYM    DATA     BYTE      C2L
      0000009AH   SFRSYM    DATA     BYTE      SBUF_1
      000000A5H   SFRSYM    DATA     BYTE      IAPUEN
      000000F8H   SFRSYM    DATA     BYTE      SCON_1
      000000E0H   SFRSYM    DATA     BYTE      ACC
      000000A8H.1 SFRSYM    DATA     BIT       ET0
      000000F4H   SFRSYM    DATA     BYTE      SPSR
      000000A4H   SFRSYM    DATA     BYTE      IAPTRG
      000000A8H.3 SFRSYM    DATA     BIT       ET1
      00000088H.5 SFRSYM    DATA     BIT       TF0
      00000088H.7 SFRSYM    DATA     BIT       TF1
      000000C8H.7 SFRSYM    DATA     BIT       TF2
      00000098H.2 SFRSYM    DATA     BIT       RB8
      000000D7H   SFRSYM    DATA     BYTE      FBD
      0000008CH   SFRSYM    DATA     BYTE      TH0
      000000A8H   SFRSYM    DATA     BIT       EX0
LX51 LINKER/LOCATER V4.66.1.0                                                         10/28/2019  14:49:17  PAGE 61


      00000088H   SFRSYM    DATA     BIT       IT0
      000000C6H   SFRSYM    DATA     BYTE      RH3
      0000008DH   SFRSYM    DATA     BYTE      TH1
      000000A8H.2 SFRSYM    DATA     BIT       EX1
      00000098H.3 SFRSYM    DATA     BIT       TB8
      00000088H.2 SFRSYM    DATA     BIT       IT1
      000000CDH   SFRSYM    DATA     BYTE      TH2
      000000D0H   SFRSYM    DATA     BIT       P
      000000FAH   SFRSYM    DATA     BYTE      PDTCNT
      00000098H.7 SFRSYM    DATA     BIT       SM0
      0000008AH   SFRSYM    DATA     BYTE      TL0
      00000098H.6 SFRSYM    DATA     BIT       SM1
      000000C5H   SFRSYM    DATA     BYTE      RL3
      0000008BH   SFRSYM    DATA     BYTE      TL1
      000000C0H.6 SFRSYM    DATA     BIT       I2CEN
      00000098H.5 SFRSYM    DATA     BIT       SM2
      000000CCH   SFRSYM    DATA     BYTE      TL2
      000000B1H   SFRSYM    DATA     BYTE      P0S
      0000009BH   SFRSYM    DATA     BYTE      EIE
      000000B8H.1 SFRSYM    DATA     BIT       PT0
      000000B3H   SFRSYM    DATA     BYTE      P1S
      000000D0H.3 SFRSYM    DATA     BIT       RS0
      000000B8H.3 SFRSYM    DATA     BIT       PT1
      000000BCH   SFRSYM    DATA     BYTE      I2DAT
      000000B5H   SFRSYM    DATA     BYTE      P2S
      000000D0H.4 SFRSYM    DATA     BIT       RS1
      00000088H.4 SFRSYM    DATA     BIT       TR0
      000000BEH   SFRSYM    DATA     BYTE      I2CLK
      000000ACH   SFRSYM    DATA     BYTE      P3S
      000000D8H.4 SFRSYM    DATA     BIT       CLRPWM
      00000088H.6 SFRSYM    DATA     BIT       TR1
      000000C8H.2 SFRSYM    DATA     BIT       TR2
      000000B8H   SFRSYM    DATA     BIT       PX0
      00000090H.4 SFRSYM    DATA     BIT       SDA
      000000FFH   SFRSYM    DATA     BYTE      EIPH1
      000000B8H.2 SFRSYM    DATA     BIT       PX1
      000000E8H   SFRSYM    DATA     BYTE      ADCCON0
      000000E1H   SFRSYM    DATA     BYTE      ADCCON1
      000000E2H   SFRSYM    DATA     BYTE      ADCCON2
      000000C0H   SFRSYM    DATA     BYTE      I2CON
      00000083H   SFRSYM    DATA     BYTE      DPH
      000000F8H.2 SFRSYM    DATA     BIT       RB8_1
      000000EFH   SFRSYM    DATA     BYTE      EIP
      000000F8H.3 SFRSYM    DATA     BIT       TB8_1
      000000ECH   SFRSYM    DATA     BYTE      PIF
      00000082H   SFRSYM    DATA     BYTE      DPL
      000000F8H.7 SFRSYM    DATA     BIT       SM0_1
      000000FCH   SFRSYM    DATA     BYTE      PMD
      000000B7H   SFRSYM    DATA     BYTE      IPH
      000000F8H.6 SFRSYM    DATA     BIT       SM1_1
      00000090H.3 SFRSYM    DATA     BIT       SCL
      000000BFH   SFRSYM    DATA     BYTE      I2TOC
      000000F8H.5 SFRSYM    DATA     BIT       SM2_1
      000000C3H   SFRSYM    DATA     BYTE      ADCRH
      000000A7H   SFRSYM    DATA     BYTE      IAPAH
      00000098H.4 SFRSYM    DATA     BIT       REN
      000000AEH   SFRSYM    DATA     BYTE      IAPFD
      00000092H   SFRSYM    DATA     BYTE      CAPCON0
      000000C0H   SFRSYM    DATA     BIT       I2CPX
      000000C9H   SFRSYM    DATA     BYTE      T2MOD
      000000C8H   SFRSYM    DATA     BYTE      T2CON
      000000C2H   SFRSYM    DATA     BYTE      ADCRL
      000000A3H   SFRSYM    DATA     BYTE      BODCON0
      00000093H   SFRSYM    DATA     BYTE      CAPCON1
      000000C0H.5 SFRSYM    DATA     BIT       STA
LX51 LINKER/LOCATER V4.66.1.0                                                         10/28/2019  14:49:17  PAGE 62


      000000C4H   SFRSYM    DATA     BYTE      T3CON
      000000ABH   SFRSYM    DATA     BYTE      BODCON1
      000000A6H   SFRSYM    DATA     BYTE      IAPAL
      00000094H   SFRSYM    DATA     BYTE      CAPCON2
      000000F1H   SFRSYM    DATA     BYTE      CAPCON3
      000000F2H   SFRSYM    DATA     BYTE      CAPCON4
      000000D8H.7 SFRSYM    DATA     BIT       PWMRUN
      000000F3H   SFRSYM    DATA     BYTE      SPCR2
      000000B9H   SFRSYM    DATA     BYTE      SADEN
      000000AFH   SFRSYM    DATA     BYTE      IAPCN
      000000D2H   SFRSYM    DATA     BYTE      PWM0H
      000000D6H   SFRSYM    DATA     BYTE      PNP
      000000D3H   SFRSYM    DATA     BYTE      PWM1H
      000000D4H   SFRSYM    DATA     BYTE      PWM2H
      000000A9H   SFRSYM    DATA     BYTE      SADDR
      0000008EH   SFRSYM    DATA     BYTE      CKCON
      000000D5H   SFRSYM    DATA     BYTE      PWM3H
      000000DAH   SFRSYM    DATA     BYTE      PWM0L
      000000C4H   SFRSYM    DATA     BYTE      PWM4H
      000000DBH   SFRSYM    DATA     BYTE      PWM1L
      000000C5H   SFRSYM    DATA     BYTE      PWM5H
      000000A2H   SFRSYM    DATA     BYTE      AUXR1
      00000095H   SFRSYM    DATA     BYTE      CKDIV
      000000DCH   SFRSYM    DATA     BYTE      PWM2L
      000000DDH   SFRSYM    DATA     BYTE      PWM3L
      00000086H   SFRSYM    DATA     BYTE      RWK
      000000D0H.5 SFRSYM    DATA     BIT       F0
      000000CCH   SFRSYM    DATA     BYTE      PWM4L
      000000F8H.4 SFRSYM    DATA     BIT       REN_1
      000000E8H.4 SFRSYM    DATA     BIT       ETGSEL0
      000000C0H.4 SFRSYM    DATA     BIT       STO
      000000CDH   SFRSYM    DATA     BYTE      PWM5L
      000000E8H.5 SFRSYM    DATA     BIT       ETGSEL1
      000000E9H   SFRSYM    DATA     BYTE      PICON
      000000DEH   SFRSYM    DATA     BYTE      PIOCON0
      000000D0H   SFRSYM    DATA     BYTE      PSW
      000000EAH   SFRSYM    DATA     BYTE      PINEN
      000000C6H   SFRSYM    DATA     BYTE      PIOCON1
      000000F9H   SFRSYM    DATA     BYTE      PDTEN
      000000AAH   SFRSYM    DATA     BYTE      WDCON
      000000EBH   SFRSYM    DATA     BYTE      PIPEN
      000000BAH   SFRSYM    DATA     BYTE      SADEN_1

      01001451H   BLOCK     CODE     ---       LVL=0
      01001451H   LINE      ---      ---       #16
      01001451H   LINE      ---      ---       #17
      01001451H   LINE      ---      ---       #26
      ---         BLOCKEND  ---      ---       LVL=0

      0100145BH   BLOCK     CODE     ---       LVL=0
      0100145BH   LINE      ---      ---       #34
      0100145BH   LINE      ---      ---       #35
      0100145BH   LINE      ---      ---       #41
      0100145DH   LINE      ---      ---       #42
      ---         BLOCKEND  ---      ---       LVL=0

      01000035H   BLOCK     CODE     ---       LVL=0
      01000035H   LINE      ---      ---       #52
      01000035H   LINE      ---      ---       #53
      01000035H   LINE      ---      ---       #67
      01000037H   LINE      ---      ---       #68
      ---         BLOCKEND  ---      ---       LVL=0

      0100196CH   BLOCK     CODE     ---       LVL=0
      0100196CH   LINE      ---      ---       #76
LX51 LINKER/LOCATER V4.66.1.0                                                         10/28/2019  14:49:17  PAGE 63


      0100196CH   LINE      ---      ---       #77
      0100196CH   BLOCK     CODE     NEAR LAB  LVL=1
      0100196CH   LINE      ---      ---       #79
      010019C7H   LINE      ---      ---       #80
      010019C7H   LINE      ---      ---       #81
      010019C7H   LINE      ---      ---       #82
      010019CEH   LINE      ---      ---       #83
      010019D0H   LINE      ---      ---       #84
      010019D2H   LINE      ---      ---       #85
      010019D4H   LINE      ---      ---       #86
      010019D6H   LINE      ---      ---       #88
      010019D8H   LINE      ---      ---       #89
      010019DEH   LINE      ---      ---       #90
      010019E0H   LINE      ---      ---       #91
      010019E0H   LINE      ---      ---       #92
      010019E2H   LINE      ---      ---       #93
      010019E8H   LINE      ---      ---       #94
      010019EAH   LINE      ---      ---       #95
      010019EAH   LINE      ---      ---       #96
      010019F1H   LINE      ---      ---       #97
      010019F1H   LINE      ---      ---       #98
      010019F3H   LINE      ---      ---       #99
      010019F5H   LINE      ---      ---       #100
      010019F7H   LINE      ---      ---       #101
      010019F9H   LINE      ---      ---       #103
      010019FBH   LINE      ---      ---       #104
      01001A01H   LINE      ---      ---       #106
      01001A03H   LINE      ---      ---       #107
      01001A03H   LINE      ---      ---       #108
      01001A05H   LINE      ---      ---       #109
      01001A0BH   LINE      ---      ---       #115
      01001A0DH   LINE      ---      ---       #116
      01001A0DH   LINE      ---      ---       #117
      01001A14H   LINE      ---      ---       #118
      01001A14H   LINE      ---      ---       #119
      01001A16H   LINE      ---      ---       #120
      01001A18H   LINE      ---      ---       #122
      01001A1AH   LINE      ---      ---       #123
      01001A20H   LINE      ---      ---       #125
      01001A22H   LINE      ---      ---       #126
      01001A22H   LINE      ---      ---       #127
      01001A24H   LINE      ---      ---       #128
      01001A2AH   LINE      ---      ---       #129
      01001A2CH   LINE      ---      ---       #130
      01001A2CH   LINE      ---      ---       #131
      01001A33H   LINE      ---      ---       #132
      01001A33H   LINE      ---      ---       #133
      01001A35H   LINE      ---      ---       #134
      01001A37H   LINE      ---      ---       #136
      01001A39H   LINE      ---      ---       #137
      01001A3FH   LINE      ---      ---       #138
      01001A41H   LINE      ---      ---       #139
      01001A41H   LINE      ---      ---       #140
      01001A43H   LINE      ---      ---       #141
      01001A49H   LINE      ---      ---       #142
      01001A4BH   LINE      ---      ---       #143
      01001A4BH   LINE      ---      ---       #144
      01001A52H   LINE      ---      ---       #145
      01001A52H   LINE      ---      ---       #146
      01001A54H   LINE      ---      ---       #147
      01001A56H   LINE      ---      ---       #148
      01001A58H   LINE      ---      ---       #149
      01001A5AH   LINE      ---      ---       #151
      01001A5CH   LINE      ---      ---       #152
      01001A62H   LINE      ---      ---       #153
LX51 LINKER/LOCATER V4.66.1.0                                                         10/28/2019  14:49:17  PAGE 64


      01001A64H   LINE      ---      ---       #154
      01001A64H   LINE      ---      ---       #155
      01001A66H   LINE      ---      ---       #156
      01001A6CH   LINE      ---      ---       #157
      01001A6EH   LINE      ---      ---       #159
      01001A6EH   LINE      ---      ---       #160
      01001A75H   LINE      ---      ---       #161
      01001A75H   LINE      ---      ---       #162
      01001A77H   LINE      ---      ---       #163
      01001A79H   LINE      ---      ---       #165
      01001A7BH   LINE      ---      ---       #166
      01001A81H   LINE      ---      ---       #167
      01001A83H   LINE      ---      ---       #168
      01001A83H   LINE      ---      ---       #169
      01001A85H   LINE      ---      ---       #170
      01001A8BH   LINE      ---      ---       #171
      01001A8DH   LINE      ---      ---       #172
      01001A8DH   LINE      ---      ---       #173
      01001A94H   LINE      ---      ---       #174
      01001A94H   LINE      ---      ---       #175
      01001A96H   LINE      ---      ---       #176
      01001A98H   LINE      ---      ---       #178
      01001A9AH   LINE      ---      ---       #179
      01001AA0H   LINE      ---      ---       #180
      01001AA2H   LINE      ---      ---       #181
      01001AA2H   LINE      ---      ---       #182
      01001AA4H   LINE      ---      ---       #183
      01001AAAH   LINE      ---      ---       #184
      01001AACH   LINE      ---      ---       #185
      01001AACH   LINE      ---      ---       #186
      01001AB3H   LINE      ---      ---       #187
      01001AB3H   LINE      ---      ---       #188
      01001AB5H   LINE      ---      ---       #189
      01001AB7H   LINE      ---      ---       #191
      01001AB9H   LINE      ---      ---       #192
      01001ABFH   LINE      ---      ---       #193
      01001AC1H   LINE      ---      ---       #194
      01001AC1H   LINE      ---      ---       #196
      01001AC3H   LINE      ---      ---       #197
      01001AC9H   LINE      ---      ---       #198
      01001ACBH   LINE      ---      ---       #199
      01001ACBH   LINE      ---      ---       #200
      01001AD2H   LINE      ---      ---       #201
      01001AD2H   LINE      ---      ---       #202
      01001AD4H   LINE      ---      ---       #203
      01001AD6H   LINE      ---      ---       #204
      01001AD8H   LINE      ---      ---       #205
      01001ADAH   LINE      ---      ---       #207
      01001ADCH   LINE      ---      ---       #208
      01001AE2H   LINE      ---      ---       #209
      01001AE4H   LINE      ---      ---       #210
      01001AE4H   LINE      ---      ---       #211
      01001AE6H   LINE      ---      ---       #212
      01001AECH   LINE      ---      ---       #213
      01001AEEH   LINE      ---      ---       #214
      01001AEEH   LINE      ---      ---       #215
      01001AF5H   LINE      ---      ---       #216
      01001AF5H   LINE      ---      ---       #217
      01001AF7H   LINE      ---      ---       #218
      01001AF9H   LINE      ---      ---       #220
      01001AFBH   LINE      ---      ---       #221
      01001B01H   LINE      ---      ---       #222
      01001B03H   LINE      ---      ---       #223
      01001B03H   LINE      ---      ---       #224
      01001B05H   LINE      ---      ---       #225
LX51 LINKER/LOCATER V4.66.1.0                                                         10/28/2019  14:49:17  PAGE 65


      01001B0BH   LINE      ---      ---       #226
      01001B0DH   LINE      ---      ---       #227
      01001B0DH   LINE      ---      ---       #228
      01001B14H   LINE      ---      ---       #229
      01001B14H   LINE      ---      ---       #230
      01001B16H   LINE      ---      ---       #231
      01001B18H   LINE      ---      ---       #232
      01001B1AH   LINE      ---      ---       #233
      01001B20H   LINE      ---      ---       #234
      01001B22H   LINE      ---      ---       #235
      01001B22H   LINE      ---      ---       #236
      01001B24H   LINE      ---      ---       #237
      01001B2AH   LINE      ---      ---       #238
      01001B2CH   LINE      ---      ---       #239
      01001B2CH   LINE      ---      ---       #240
      01001B33H   LINE      ---      ---       #241
      01001B33H   LINE      ---      ---       #242
      01001B37H   LINE      ---      ---       #244
      01001B39H   LINE      ---      ---       #245
      01001B3FH   LINE      ---      ---       #246
      01001B41H   LINE      ---      ---       #247
      01001B41H   LINE      ---      ---       #248
      01001B43H   LINE      ---      ---       #249
      01001B49H   LINE      ---      ---       #250
      01001B49H   LINE      ---      ---       #251
      01001B49H   LINE      ---      ---       #254
      01001B4DH   LINE      ---      ---       #255
      01001B55H   LINE      ---      ---       #257
      01001B55H   LINE      ---      ---       #258
      01001B62H   LINE      ---      ---       #259
      01001B62H   LINE      ---      ---       #261
      01001B6AH   LINE      ---      ---       #263
      01001B70H   LINE      ---      ---       #265
      01001B76H   LINE      ---      ---       #266
      01001B76H   LINE      ---      ---       #267
      01001B7FH   LINE      ---      ---       #268
      01001B81H   LINE      ---      ---       #269
      01001B87H   LINE      ---      ---       #271
      020002A2H   SYMBOL    XDATA    BYTE      LED_Count1
      ---         BLOCKEND  CODE     ---       LVL=1
      ---         BLOCKEND  CODE     ---       LVL=0

      010011AFH   BLOCK     CODE     ---       LVL=0
      010011AFH   LINE      ---      ---       #279
      010011AFH   LINE      ---      ---       #280
      010011AFH   BLOCK     CODE     NEAR LAB  LVL=1
      010011AFH   LINE      ---      ---       #281
      010011BAH   LINE      ---      ---       #282
      010011BAH   LINE      ---      ---       #283
      010011BAH   LINE      ---      ---       #284
      010011C3H   LINE      ---      ---       #287
      010011C5H   LINE      ---      ---       #288
      010011CBH   LINE      ---      ---       #289
      010011CDH   LINE      ---      ---       #290
      010011CDH   LINE      ---      ---       #291
      010011D6H   LINE      ---      ---       #292
      010011D8H   LINE      ---      ---       #295
      010011DEH   LINE      ---      ---       #296
      010011E4H   LINE      ---      ---       #297
      010011E6H   LINE      ---      ---       #298
      010011ECH   LINE      ---      ---       #299
      010011F2H   LINE      ---      ---       #300
      010011F2H   LINE      ---      ---       #301
      010011F2H   LINE      ---      ---       #302
      010011F5H   LINE      ---      ---       #303
LX51 LINKER/LOCATER V4.66.1.0                                                         10/28/2019  14:49:17  PAGE 66


      020002A3H   SYMBOL    XDATA    BYTE      STEP
      ---         BLOCKEND  CODE     ---       LVL=1
      ---         BLOCKEND  CODE     ---       LVL=0

      01001B88H   BLOCK     CODE     ---       LVL=0
      01001B88H   LINE      ---      ---       #306
      01001B88H   LINE      ---      ---       #307
      01001B88H   BLOCK     CODE     NEAR LAB  LVL=1
      01001B88H   LINE      ---      ---       #308
      01001B8BH   LINE      ---      ---       #309
      01001B95H   LINE      ---      ---       #310
      01001BA1H   LINE      ---      ---       #311
      01001BA4H   LINE      ---      ---       #312
      01001BA4H   LINE      ---      ---       #313
      01001BB0H   LINE      ---      ---       #314
      01001BBAH   LINE      ---      ---       #315
      01001BC1H   LINE      ---      ---       #316
      01001BC1H   LINE      ---      ---       #317
      01001BC8H   LINE      ---      ---       #318
      01001BCBH   LINE      ---      ---       #319
      01001BCBH   LINE      ---      ---       #321
      00000007H   SYMBOL    DATA     BYTE      i
      00000005H   SYMBOL    DATA     BYTE      temp
      00000006H   SYMBOL    DATA     BYTE      temp2
      ---         BLOCKEND  CODE     ---       LVL=1
      ---         BLOCKEND  CODE     ---       LVL=0

      ---         MODULE    ---      ---       SL_SC7A21_APPLICATION
      020002E5H   PUBLIC    XDATA    BYTE      sl_click_status
      020002E1H   PUBLIC    XDATA    WORD      click_timer_total_cnt
      020002DDH   PUBLIC    XDATA    WORD      click_timer_cnt
      020002DBH   PUBLIC    XDATA    BYTE      click_click_final_cnt
      020002D8H   PUBLIC    XDATA    BYTE      sl_click_timer_en
      01001E64H   PUBLIC    CODE     ---       SL_SC7A21_GET_PEDO_VALUE
      01001F41H   PUBLIC    CODE     ---       SL_SC7A21_Click_Timer_Cnt
      01000881H   PUBLIC    CODE     ---       SL_SC7A21_CLICK_SERVICE
      0100007FH   PUBLIC    CODE     ---       SL_SC7A21_WRIST_INT12_SERVICE_FUNCTION
      01001DF8H   PUBLIC    CODE     ---       SL_SC7A21_GET_SLEEP_VALUE
      01001BCCH   PUBLIC    CODE     ---       SL_SC7A21_INIT
      000000F6H   SFRSYM    DATA     BYTE      AINDIDS
      000000B1H   SFRSYM    DATA     BYTE      P0M1
      000000B3H   SFRSYM    DATA     BYTE      P1M1
      000000B2H   SFRSYM    DATA     BYTE      P0M2
      00000080H   SFRSYM    DATA     BYTE      P0
      000000BBH   SFRSYM    DATA     BYTE      SADDR_1
      000000B4H   SFRSYM    DATA     BYTE      P1M2
      00000090H   SFRSYM    DATA     BYTE      P1
      000000C0H.2 SFRSYM    DATA     BIT       AA
      000000ACH   SFRSYM    DATA     BYTE      P3M1
      000000A0H   SFRSYM    DATA     BYTE      P2
      000000B0H   SFRSYM    DATA     BYTE      P3
      000000ADH   SFRSYM    DATA     BYTE      P3M2
      000000D0H.6 SFRSYM    DATA     BIT       AC
      0000008FH   SFRSYM    DATA     BYTE      WKCON
      0000009CH   SFRSYM    DATA     BYTE      EIE1
      000000A8H.7 SFRSYM    DATA     BIT       EA
      000000D8H   SFRSYM    DATA     BYTE      PWMCON0
      000000DFH   SFRSYM    DATA     BYTE      PWMCON1
      00000098H.7 SFRSYM    DATA     BIT       FE
      000000A8H.6 SFRSYM    DATA     BIT       EADC
      000000D1H   SFRSYM    DATA     BYTE      PWMPH
      000000A8H   SFRSYM    DATA     BYTE      IE
      00000096H   SFRSYM    DATA     BYTE      CKSWT
      000000E8H.7 SFRSYM    DATA     BIT       ADCF
      000000FEH   SFRSYM    DATA     BYTE      EIP1
LX51 LINKER/LOCATER V4.66.1.0                                                         10/28/2019  14:49:17  PAGE 67


      000000D9H   SFRSYM    DATA     BYTE      PWMPL
      000000E8H   SFRSYM    DATA     BIT       ADCHS0
      000000C7H   SFRSYM    DATA     BYTE      TA
      000000E8H.1 SFRSYM    DATA     BIT       ADCHS1
      000000E8H.2 SFRSYM    DATA     BIT       ADCHS2
      000000E8H.3 SFRSYM    DATA     BIT       ADCHS3
      000000A8H.4 SFRSYM    DATA     BIT       ES
      000000C1H   SFRSYM    DATA     BYTE      I2ADDR
      000000B8H.6 SFRSYM    DATA     BIT       PADC
      000000B8H   SFRSYM    DATA     BYTE      IP
      000000A8H.5 SFRSYM    DATA     BIT       EBOD
      00000098H   SFRSYM    DATA     BIT       RI
      000000F8H.7 SFRSYM    DATA     BIT       FE_1
      000000E8H.6 SFRSYM    DATA     BIT       ADCS
      000000D0H.7 SFRSYM    DATA     BIT       CY
      000000C0H.3 SFRSYM    DATA     BIT       SI
      000000B0H   SFRSYM    DATA     BIT       INT0
      00000098H.1 SFRSYM    DATA     BIT       TI
      000000D8H.6 SFRSYM    DATA     BIT       LOAD
      00000097H   SFRSYM    DATA     BYTE      CKEN
      000000B8H.4 SFRSYM    DATA     BIT       PS
      00000081H   SFRSYM    DATA     BYTE      SP
      000000D0H.2 SFRSYM    DATA     BIT       OV
      000000B7H   SFRSYM    DATA     BYTE      PWMINTC
      000000B8H.5 SFRSYM    DATA     BIT       PBOD
      000000B2H   SFRSYM    DATA     BYTE      P0SR
      000000F7H   SFRSYM    DATA     BYTE      EIPH
      000000B4H   SFRSYM    DATA     BYTE      P1SR
      000000ADH   SFRSYM    DATA     BYTE      P3SR
      000000F8H   SFRSYM    DATA     BIT       RI_1
      000000F8H.1 SFRSYM    DATA     BIT       TI_1
      000000CBH   SFRSYM    DATA     BYTE      RCMP2H
      000000CFH   SFRSYM    DATA     BYTE      ADCMPH
      00000080H   SFRSYM    DATA     BIT       P00
      00000090H   SFRSYM    DATA     BIT       P10
      00000080H.1 SFRSYM    DATA     BIT       P01
      000000FBH   SFRSYM    DATA     BYTE      PMEN
      00000099H   SFRSYM    DATA     BYTE      SBUF
      00000087H   SFRSYM    DATA     BYTE      PCON
      000000A0H   SFRSYM    DATA     BIT       P20
      00000090H.1 SFRSYM    DATA     BIT       P11
      00000080H.2 SFRSYM    DATA     BIT       P02
      000000CAH   SFRSYM    DATA     BYTE      RCMP2L
      000000B0H   SFRSYM    DATA     BIT       P30
      00000090H.2 SFRSYM    DATA     BIT       P12
      00000080H.3 SFRSYM    DATA     BIT       P03
      000000E3H   SFRSYM    DATA     BYTE      ADCDLY
      000000CEH   SFRSYM    DATA     BYTE      ADCMPL
      00000090H.3 SFRSYM    DATA     BIT       P13
      00000080H.4 SFRSYM    DATA     BIT       P04
      00000098H   SFRSYM    DATA     BYTE      SCON
      00000090H.4 SFRSYM    DATA     BIT       P14
      00000080H.5 SFRSYM    DATA     BIT       P05
      00000089H   SFRSYM    DATA     BYTE      TMOD
      00000088H   SFRSYM    DATA     BYTE      TCON
      00000090H.5 SFRSYM    DATA     BIT       P15
      00000080H.6 SFRSYM    DATA     BIT       P06
      00000090H.6 SFRSYM    DATA     BIT       P16
      00000080H.7 SFRSYM    DATA     BIT       P07
      00000090H.7 SFRSYM    DATA     BIT       P17
      000000F3H   SFRSYM    DATA     BYTE      SPCR
      000000BDH   SFRSYM    DATA     BYTE      I2STAT
      000000F5H   SFRSYM    DATA     BYTE      SPDR
      000000D8H.5 SFRSYM    DATA     BIT       PWMF
      000000E5H   SFRSYM    DATA     BYTE      C0H
LX51 LINKER/LOCATER V4.66.1.0                                                         10/28/2019  14:49:17  PAGE 68


      000000E7H   SFRSYM    DATA     BYTE      C1H
      000000EEH   SFRSYM    DATA     BYTE      C2H
      0000009FH   SFRSYM    DATA     BYTE      CHPCON
      00000088H.1 SFRSYM    DATA     BIT       IE0
      00000088H.3 SFRSYM    DATA     BIT       IE1
      000000E4H   SFRSYM    DATA     BYTE      C0L
      00000091H   SFRSYM    DATA     BYTE      SFRS
      000000E6H   SFRSYM    DATA     BYTE      C1L
      000000C8H   SFRSYM    DATA     BIT       CM_RL2
      000000F0H   SFRSYM    DATA     BYTE      B
      000000EDH   SFRSYM    DATA     BYTE      C2L
      0000009AH   SFRSYM    DATA     BYTE      SBUF_1
      000000A5H   SFRSYM    DATA     BYTE      IAPUEN
      000000F8H   SFRSYM    DATA     BYTE      SCON_1
      000000E0H   SFRSYM    DATA     BYTE      ACC
      000000A8H.1 SFRSYM    DATA     BIT       ET0
      000000F4H   SFRSYM    DATA     BYTE      SPSR
      000000A4H   SFRSYM    DATA     BYTE      IAPTRG
      000000A8H.3 SFRSYM    DATA     BIT       ET1
      00000088H.5 SFRSYM    DATA     BIT       TF0
      00000088H.7 SFRSYM    DATA     BIT       TF1
      000000C8H.7 SFRSYM    DATA     BIT       TF2
      00000098H.2 SFRSYM    DATA     BIT       RB8
      000000D7H   SFRSYM    DATA     BYTE      FBD
      0000008CH   SFRSYM    DATA     BYTE      TH0
      000000A8H   SFRSYM    DATA     BIT       EX0
      00000088H   SFRSYM    DATA     BIT       IT0
      000000C6H   SFRSYM    DATA     BYTE      RH3
      0000008DH   SFRSYM    DATA     BYTE      TH1
      000000A8H.2 SFRSYM    DATA     BIT       EX1
      00000098H.3 SFRSYM    DATA     BIT       TB8
      00000088H.2 SFRSYM    DATA     BIT       IT1
      000000CDH   SFRSYM    DATA     BYTE      TH2
      000000D0H   SFRSYM    DATA     BIT       P
      000000FAH   SFRSYM    DATA     BYTE      PDTCNT
      00000098H.7 SFRSYM    DATA     BIT       SM0
      0000008AH   SFRSYM    DATA     BYTE      TL0
      00000098H.6 SFRSYM    DATA     BIT       SM1
      000000C5H   SFRSYM    DATA     BYTE      RL3
      0000008BH   SFRSYM    DATA     BYTE      TL1
      000000C0H.6 SFRSYM    DATA     BIT       I2CEN
      00000098H.5 SFRSYM    DATA     BIT       SM2
      000000CCH   SFRSYM    DATA     BYTE      TL2
      000000B1H   SFRSYM    DATA     BYTE      P0S
      0000009BH   SFRSYM    DATA     BYTE      EIE
      000000B8H.1 SFRSYM    DATA     BIT       PT0
      000000B3H   SFRSYM    DATA     BYTE      P1S
      000000D0H.3 SFRSYM    DATA     BIT       RS0
      000000B8H.3 SFRSYM    DATA     BIT       PT1
      000000BCH   SFRSYM    DATA     BYTE      I2DAT
      000000B5H   SFRSYM    DATA     BYTE      P2S
      000000D0H.4 SFRSYM    DATA     BIT       RS1
      00000088H.4 SFRSYM    DATA     BIT       TR0
      000000BEH   SFRSYM    DATA     BYTE      I2CLK
      000000ACH   SFRSYM    DATA     BYTE      P3S
      000000D8H.4 SFRSYM    DATA     BIT       CLRPWM
      00000088H.6 SFRSYM    DATA     BIT       TR1
      000000C8H.2 SFRSYM    DATA     BIT       TR2
      000000B8H   SFRSYM    DATA     BIT       PX0
      00000090H.4 SFRSYM    DATA     BIT       SDA
      000000FFH   SFRSYM    DATA     BYTE      EIPH1
      000000B8H.2 SFRSYM    DATA     BIT       PX1
      000000E8H   SFRSYM    DATA     BYTE      ADCCON0
      000000E1H   SFRSYM    DATA     BYTE      ADCCON1
      000000E2H   SFRSYM    DATA     BYTE      ADCCON2
LX51 LINKER/LOCATER V4.66.1.0                                                         10/28/2019  14:49:17  PAGE 69


      000000C0H   SFRSYM    DATA     BYTE      I2CON
      00000083H   SFRSYM    DATA     BYTE      DPH
      000000F8H.2 SFRSYM    DATA     BIT       RB8_1
      000000EFH   SFRSYM    DATA     BYTE      EIP
      000000F8H.3 SFRSYM    DATA     BIT       TB8_1
      000000ECH   SFRSYM    DATA     BYTE      PIF
      00000082H   SFRSYM    DATA     BYTE      DPL
      000000F8H.7 SFRSYM    DATA     BIT       SM0_1
      000000FCH   SFRSYM    DATA     BYTE      PMD
      000000B7H   SFRSYM    DATA     BYTE      IPH
      000000F8H.6 SFRSYM    DATA     BIT       SM1_1
      00000090H.3 SFRSYM    DATA     BIT       SCL
      000000BFH   SFRSYM    DATA     BYTE      I2TOC
      000000F8H.5 SFRSYM    DATA     BIT       SM2_1
      000000C3H   SFRSYM    DATA     BYTE      ADCRH
      000000A7H   SFRSYM    DATA     BYTE      IAPAH
      00000098H.4 SFRSYM    DATA     BIT       REN
      000000AEH   SFRSYM    DATA     BYTE      IAPFD
      00000092H   SFRSYM    DATA     BYTE      CAPCON0
      000000C0H   SFRSYM    DATA     BIT       I2CPX
      000000C9H   SFRSYM    DATA     BYTE      T2MOD
      000000C8H   SFRSYM    DATA     BYTE      T2CON
      000000C2H   SFRSYM    DATA     BYTE      ADCRL
      000000A3H   SFRSYM    DATA     BYTE      BODCON0
      00000093H   SFRSYM    DATA     BYTE      CAPCON1
      000000C0H.5 SFRSYM    DATA     BIT       STA
      000000C4H   SFRSYM    DATA     BYTE      T3CON
      000000ABH   SFRSYM    DATA     BYTE      BODCON1
      000000A6H   SFRSYM    DATA     BYTE      IAPAL
      00000094H   SFRSYM    DATA     BYTE      CAPCON2
      000000F1H   SFRSYM    DATA     BYTE      CAPCON3
      000000F2H   SFRSYM    DATA     BYTE      CAPCON4
      000000D8H.7 SFRSYM    DATA     BIT       PWMRUN
      000000F3H   SFRSYM    DATA     BYTE      SPCR2
      000000B9H   SFRSYM    DATA     BYTE      SADEN
      000000AFH   SFRSYM    DATA     BYTE      IAPCN
      000000D2H   SFRSYM    DATA     BYTE      PWM0H
      000000D6H   SFRSYM    DATA     BYTE      PNP
      000000D3H   SFRSYM    DATA     BYTE      PWM1H
      000000D4H   SFRSYM    DATA     BYTE      PWM2H
      000000A9H   SFRSYM    DATA     BYTE      SADDR
      0000008EH   SFRSYM    DATA     BYTE      CKCON
      000000D5H   SFRSYM    DATA     BYTE      PWM3H
      000000DAH   SFRSYM    DATA     BYTE      PWM0L
      000000C4H   SFRSYM    DATA     BYTE      PWM4H
      000000DBH   SFRSYM    DATA     BYTE      PWM1L
      000000C5H   SFRSYM    DATA     BYTE      PWM5H
      000000A2H   SFRSYM    DATA     BYTE      AUXR1
      00000095H   SFRSYM    DATA     BYTE      CKDIV
      000000DCH   SFRSYM    DATA     BYTE      PWM2L
      000000DDH   SFRSYM    DATA     BYTE      PWM3L
      00000086H   SFRSYM    DATA     BYTE      RWK
      000000D0H.5 SFRSYM    DATA     BIT       F0
      000000CCH   SFRSYM    DATA     BYTE      PWM4L
      000000F8H.4 SFRSYM    DATA     BIT       REN_1
      000000E8H.4 SFRSYM    DATA     BIT       ETGSEL0
      000000C0H.4 SFRSYM    DATA     BIT       STO
      000000CDH   SFRSYM    DATA     BYTE      PWM5L
      000000E8H.5 SFRSYM    DATA     BIT       ETGSEL1
      000000E9H   SFRSYM    DATA     BYTE      PICON
      000000DEH   SFRSYM    DATA     BYTE      PIOCON0
      000000D0H   SFRSYM    DATA     BYTE      PSW
      000000EAH   SFRSYM    DATA     BYTE      PINEN
      000000C6H   SFRSYM    DATA     BYTE      PIOCON1
      000000F9H   SFRSYM    DATA     BYTE      PDTEN
LX51 LINKER/LOCATER V4.66.1.0                                                         10/28/2019  14:49:17  PAGE 70


      000000AAH   SFRSYM    DATA     BYTE      WDCON
      000000EBH   SFRSYM    DATA     BYTE      PIPEN
      000000BAH   SFRSYM    DATA     BYTE      SADEN_1
      020002D9H   SYMBOL    XDATA    WORD      sl_sleep_cnt
      020002DCH   SYMBOL    XDATA    BYTE      SL_WRIST
      020002DFH   SYMBOL    XDATA    WORD      SL_STEP
      020002E3H   SYMBOL    XDATA    BYTE      sc7a21_timer_counter
      0100003EH   SYMBOL    CONST    ---       _?ix1000
      01000045H   SYMBOL    CONST    ---       _?ix1001
      020002E4H   SYMBOL    XDATA    BYTE      SL_DEBUG_SLEEP
      01000049H   SYMBOL    CONST    ---       _?ix1002
      0100004BH   SYMBOL    CONST    ---       _?ix1003
      020002E6H   SYMBOL    XDATA    WORD      sl_sleep_flag
      020002E8H   SYMBOL    XDATA    BYTE      SL_SLEEP

      01001BCCH   BLOCK     CODE     ---       LVL=0
      01001BCCH   LINE      ---      ---       #19
      01001BCCH   LINE      ---      ---       #20
      01001BCCH   BLOCK     CODE     NEAR LAB  LVL=1
      01001BCCH   LINE      ---      ---       #21
      01001BD1H   LINE      ---      ---       #23
      01001BE3H   LINE      ---      ---       #32
      01001BF6H   LINE      ---      ---       #41
      01001C09H   LINE      ---      ---       #45
      01001C0FH   LINE      ---      ---       #47
      01001C22H   LINE      ---      ---       #62
      01001C2BH   LINE      ---      ---       #65
      01001C34H   LINE      ---      ---       #67
      01001C40H   LINE      ---      ---       #69
      01001C4CH   LINE      ---      ---       #71
      01001C58H   LINE      ---      ---       #73
      01001C61H   LINE      ---      ---       #75
      01001C69H   LINE      ---      ---       #78
      01001C72H   LINE      ---      ---       #79
      01001C79H   LINE      ---      ---       #81
      01001C82H   LINE      ---      ---       #85
      01001C87H   LINE      ---      ---       #86
      0200000BH   SYMBOL    XDATA    BYTE      status
      0200000CH   SYMBOL    XDATA    ---       pedo_para
      02000013H   SYMBOL    XDATA    ---       wrist_para
      02000017H   SYMBOL    XDATA    ---       sleep_para
      02000019H   SYMBOL    XDATA    BYTE      int_para
      0200001AH   SYMBOL    XDATA    ---       click_para
      ---         BLOCKEND  CODE     ---       LVL=1
      ---         BLOCKEND  CODE     ---       LVL=0

      01001DF8H   BLOCK     CODE     ---       LVL=0
      01001DF8H   LINE      ---      ---       #128
      01001DF8H   LINE      ---      ---       #129
      01001DF8H   BLOCK     CODE     NEAR LAB  LVL=1
      01001DF8H   LINE      ---      ---       #130
      01001DFAH   LINE      ---      ---       #132
      01001DFCH   LINE      ---      ---       #133
      01001E01H   LINE      ---      ---       #134
      01001E0BH   LINE      ---      ---       #135
      01001E0BH   LINE      ---      ---       #136
      01001E11H   LINE      ---      ---       #137
      01001E11H   LINE      ---      ---       #138
      01001E1FH   LINE      ---      ---       #139
      01001E2EH   LINE      ---      ---       #140
      01001E2EH   LINE      ---      ---       #141
      01001E32H   LINE      ---      ---       #142
      01001E39H   LINE      ---      ---       #143
      01001E3DH   LINE      ---      ---       #144
      01001E3DH   LINE      ---      ---       #146
LX51 LINKER/LOCATER V4.66.1.0                                                         10/28/2019  14:49:17  PAGE 71


      01001E40H   LINE      ---      ---       #147
      01001E40H   LINE      ---      ---       #149
      01001E40H   LINE      ---      ---       #150
      01001E47H   LINE      ---      ---       #151
      01001E4EH   LINE      ---      ---       #152
      01001E4EH   LINE      ---      ---       #153
      01001E4EH   LINE      ---      ---       #155
      01001E54H   LINE      ---      ---       #156
      01001E54H   LINE      ---      ---       #157
      01001E57H   LINE      ---      ---       #158
      01001E57H   LINE      ---      ---       #159
      01001E5DH   LINE      ---      ---       #160
      01001E5DH   LINE      ---      ---       #161
      01001E60H   LINE      ---      ---       #162
      01001E60H   LINE      ---      ---       #164
      01001E60H   LINE      ---      ---       #165
      01001E63H   LINE      ---      ---       #166
      01001E63H   LINE      ---      ---       #168
      01001E63H   LINE      ---      ---       #169
      00000007H   SYMBOL    DATA     BYTE      sl_sleep_status
      ---         BLOCKEND  CODE     ---       LVL=1
      ---         BLOCKEND  CODE     ---       LVL=0

      0100007FH   BLOCK     CODE     ---       LVL=0
      0100007FH   LINE      ---      ---       #177
      0100007FH   LINE      ---      ---       #178
      0100007FH   LINE      ---      ---       #179
      01000087H   LINE      ---      ---       #180
      01000087H   LINE      ---      ---       #181
      ---         BLOCKEND  ---      ---       LVL=0

      01000881H   BLOCK     CODE     ---       LVL=0
      01000881H   LINE      ---      ---       #190
      01000881H   LINE      ---      ---       #191
      01000881H   BLOCK     CODE     NEAR LAB  LVL=1
      01000881H   LINE      ---      ---       #192
      01000886H   LINE      ---      ---       #194
      01000892H   LINE      ---      ---       #196
      01000895H   LINE      ---      ---       #197
      01000895H   LINE      ---      ---       #198
      0100089BH   LINE      ---      ---       #199
      0100089BH   LINE      ---      ---       #201
      0100089DH   LINE      ---      ---       #203
      010008A0H   LINE      ---      ---       #205
      010008A7H   LINE      ---      ---       #206
      010008ADH   LINE      ---      ---       #207
      010008B1H   LINE      ---      ---       #208
      010008B1H   LINE      ---      ---       #209
      010008B7H   LINE      ---      ---       #210
      010008B7H   LINE      ---      ---       #212
      010008BCH   LINE      ---      ---       #213
      020000E6H   SYMBOL    XDATA    BYTE      click_status
      ---         BLOCKEND  CODE     ---       LVL=1
      ---         BLOCKEND  CODE     ---       LVL=0

      01001F41H   BLOCK     CODE     ---       LVL=0
      01001F41H   LINE      ---      ---       #218
      01001F41H   LINE      ---      ---       #219
      01001F41H   BLOCK     CODE     NEAR LAB  LVL=1
      01001F41H   LINE      ---      ---       #220
      01001F46H   LINE      ---      ---       #222
      01001F51H   LINE      ---      ---       #223
      01001F51H   LINE      ---      ---       #224
      01001F5FH   LINE      ---      ---       #225
      01001F76H   LINE      ---      ---       #226
LX51 LINKER/LOCATER V4.66.1.0                                                         10/28/2019  14:49:17  PAGE 72


      01001F76H   LINE      ---      ---       #227
      01001F78H   LINE      ---      ---       #228
      01001F84H   LINE      ---      ---       #229
      01001F8BH   LINE      ---      ---       #230
      01001F91H   LINE      ---      ---       #231
      01001F91H   LINE      ---      ---       #233
      01001F9BH   LINE      ---      ---       #235
      01001FD5H   LINE      ---      ---       #236
      01001FD5H   LINE      ---      ---       #238
      01001FD8H   LINE      ---      ---       #240
      01001FDDH   LINE      ---      ---       #242
      01001FE3H   LINE      ---      ---       #243
      01001FE9H   LINE      ---      ---       #245
      01001FF2H   LINE      ---      ---       #246
      01001FF2H   LINE      ---      ---       #247
      01001FFCH   LINE      ---      ---       #248
      01001FFFH   LINE      ---      ---       #249
      01001FFFH   LINE      ---      ---       #251
      01001FFFH   LINE      ---      ---       #252
      01002005H   LINE      ---      ---       #253
      01002005H   LINE      ---      ---       #254
      01002005H   LINE      ---      ---       #255
      01002005H   LINE      ---      ---       #256
      01002007H   LINE      ---      ---       #257
      02000007H   SYMBOL    XDATA    BYTE      click_e_cnt
      ---         BLOCKEND  CODE     ---       LVL=1
      ---         BLOCKEND  CODE     ---       LVL=0

      01001E64H   BLOCK     CODE     ---       LVL=0
      01001E64H   LINE      ---      ---       #264
      01001E64H   LINE      ---      ---       #265
      01001E64H   BLOCK     CODE     NEAR LAB  LVL=1
      01001E64H   LINE      ---      ---       #281
      01001E8CH   LINE      ---      ---       #285
      01001E96H   LINE      ---      ---       #287
      01001E9EH   LINE      ---      ---       #288
      01001E9EH   LINE      ---      ---       #290
      01001EA1H   LINE      ---      ---       #291
      01001EA1H   LINE      ---      ---       #293
      01001EA7H   LINE      ---      ---       #295
      01001EADH   LINE      ---      ---       #296
      01001EADH   LINE      ---      ---       #297
      01001EB4H   LINE      ---      ---       #298
      01001EB9H   LINE      ---      ---       #299
      01001EB9H   LINE      ---      ---       #323
      01001EC1H   LINE      ---      ---       #324
      02000007H   SYMBOL    XDATA    ---       SC7A21_XYZ_Buf
      020000C7H   SYMBOL    XDATA    BYTE      SC7A21_FIFO_NUM
      ---         BLOCKEND  CODE     ---       LVL=1
      ---         BLOCKEND  CODE     ---       LVL=0

      ---         MODULE    ---      ---       SL_SC7A21_DRIVER
      02000327H   PUBLIC    XDATA    BYTE      sl_pp_num
      010008BDH   PUBLIC    CODE     ---       _SL_SC7A21_Click_Algo
      01002269H   PUBLIC    CODE     ---       _SL_Get_CLICK_PP_CNT
      01002179H   PUBLIC    CODE     ---       _SL_Click_Sqrt
      01000D7CH   PUBLIC    CODE     ---       _SL_SC7A21_Single_Click_Config
      01001EC2H   PUBLIC    CODE     ---       SL_SC7A21_Get_Sleep_Status
      01002103H   PUBLIC    CODE     ---       SL_SC7A21_Get_Wrist_Status
      01001EDFH   PUBLIC    CODE     ---       SL_SC7A21_Get_Pedo_Count
      01000FD5H   PUBLIC    CODE     ---       _SL_SC7A21_Sleep_Config
      01001D73H   PUBLIC    CODE     ---       _SL_SC7A21_Wrist_Config
      01000F03H   PUBLIC    CODE     ---       _SL_SC7A21_Pedo_Config
      01000FA8H   PUBLIC    CODE     ---       SL_SC7A21_Pedo_Reset
      02000234H   PUBLIC    XDATA    BYTE      ?_SL_SC7A21_Read_XYZ_FIFO_Data?BYTE
LX51 LINKER/LOCATER V4.66.1.0                                                         10/28/2019  14:49:17  PAGE 73


      01000B4AH   PUBLIC    CODE     ---       _SL_SC7A21_Read_XYZ_FIFO_Data
      0100205FH   PUBLIC    CODE     ---       _SL_SC7A21_Read_XYZ_Data
      01001C88H   PUBLIC    CODE     ---       _SL_SC7A21_INT_Config
      01000C5EH   PUBLIC    CODE     ---       _SL_SC7A21_FIFO_Config
      01000E43H   PUBLIC    CODE     ---       _SL_SC7A21_Power_Config
      01001D17H   PUBLIC    CODE     ---       _SL_SC7A21_FS_Config
      01002008H   PUBLIC    CODE     ---       SL_SC7A21_BOOT_RESET
      01001CBCH   PUBLIC    CODE     ---       _SL_SC7A21_Online_Test
      000000F6H   SFRSYM    DATA     BYTE      AINDIDS
      000000B1H   SFRSYM    DATA     BYTE      P0M1
      000000B3H   SFRSYM    DATA     BYTE      P1M1
      000000B2H   SFRSYM    DATA     BYTE      P0M2
      00000080H   SFRSYM    DATA     BYTE      P0
      000000BBH   SFRSYM    DATA     BYTE      SADDR_1
      000000B4H   SFRSYM    DATA     BYTE      P1M2
      00000090H   SFRSYM    DATA     BYTE      P1
      000000C0H.2 SFRSYM    DATA     BIT       AA
      000000ACH   SFRSYM    DATA     BYTE      P3M1
      000000A0H   SFRSYM    DATA     BYTE      P2
      000000B0H   SFRSYM    DATA     BYTE      P3
      000000ADH   SFRSYM    DATA     BYTE      P3M2
      000000D0H.6 SFRSYM    DATA     BIT       AC
      0000008FH   SFRSYM    DATA     BYTE      WKCON
      0000009CH   SFRSYM    DATA     BYTE      EIE1
      000000A8H.7 SFRSYM    DATA     BIT       EA
      000000D8H   SFRSYM    DATA     BYTE      PWMCON0
      000000DFH   SFRSYM    DATA     BYTE      PWMCON1
      00000098H.7 SFRSYM    DATA     BIT       FE
      000000A8H.6 SFRSYM    DATA     BIT       EADC
      000000D1H   SFRSYM    DATA     BYTE      PWMPH
      000000A8H   SFRSYM    DATA     BYTE      IE
      00000096H   SFRSYM    DATA     BYTE      CKSWT
      000000E8H.7 SFRSYM    DATA     BIT       ADCF
      000000FEH   SFRSYM    DATA     BYTE      EIP1
      000000D9H   SFRSYM    DATA     BYTE      PWMPL
      000000E8H   SFRSYM    DATA     BIT       ADCHS0
      000000C7H   SFRSYM    DATA     BYTE      TA
      000000E8H.1 SFRSYM    DATA     BIT       ADCHS1
      000000E8H.2 SFRSYM    DATA     BIT       ADCHS2
      000000E8H.3 SFRSYM    DATA     BIT       ADCHS3
      000000A8H.4 SFRSYM    DATA     BIT       ES
      000000C1H   SFRSYM    DATA     BYTE      I2ADDR
      000000B8H.6 SFRSYM    DATA     BIT       PADC
      000000B8H   SFRSYM    DATA     BYTE      IP
      000000A8H.5 SFRSYM    DATA     BIT       EBOD
      00000098H   SFRSYM    DATA     BIT       RI
      000000F8H.7 SFRSYM    DATA     BIT       FE_1
      000000E8H.6 SFRSYM    DATA     BIT       ADCS
      000000D0H.7 SFRSYM    DATA     BIT       CY
      000000C0H.3 SFRSYM    DATA     BIT       SI
      000000B0H   SFRSYM    DATA     BIT       INT0
      00000098H.1 SFRSYM    DATA     BIT       TI
      000000D8H.6 SFRSYM    DATA     BIT       LOAD
      00000097H   SFRSYM    DATA     BYTE      CKEN
      000000B8H.4 SFRSYM    DATA     BIT       PS
      00000081H   SFRSYM    DATA     BYTE      SP
      000000D0H.2 SFRSYM    DATA     BIT       OV
      000000B7H   SFRSYM    DATA     BYTE      PWMINTC
      000000B8H.5 SFRSYM    DATA     BIT       PBOD
      000000B2H   SFRSYM    DATA     BYTE      P0SR
      000000F7H   SFRSYM    DATA     BYTE      EIPH
      000000B4H   SFRSYM    DATA     BYTE      P1SR
      000000ADH   SFRSYM    DATA     BYTE      P3SR
      000000F8H   SFRSYM    DATA     BIT       RI_1
      000000F8H.1 SFRSYM    DATA     BIT       TI_1
LX51 LINKER/LOCATER V4.66.1.0                                                         10/28/2019  14:49:17  PAGE 74


      000000CBH   SFRSYM    DATA     BYTE      RCMP2H
      000000CFH   SFRSYM    DATA     BYTE      ADCMPH
      00000080H   SFRSYM    DATA     BIT       P00
      00000090H   SFRSYM    DATA     BIT       P10
      00000080H.1 SFRSYM    DATA     BIT       P01
      000000FBH   SFRSYM    DATA     BYTE      PMEN
      00000099H   SFRSYM    DATA     BYTE      SBUF
      00000087H   SFRSYM    DATA     BYTE      PCON
      000000A0H   SFRSYM    DATA     BIT       P20
      00000090H.1 SFRSYM    DATA     BIT       P11
      00000080H.2 SFRSYM    DATA     BIT       P02
      000000CAH   SFRSYM    DATA     BYTE      RCMP2L
      000000B0H   SFRSYM    DATA     BIT       P30
      00000090H.2 SFRSYM    DATA     BIT       P12
      00000080H.3 SFRSYM    DATA     BIT       P03
      000000E3H   SFRSYM    DATA     BYTE      ADCDLY
      000000CEH   SFRSYM    DATA     BYTE      ADCMPL
      00000090H.3 SFRSYM    DATA     BIT       P13
      00000080H.4 SFRSYM    DATA     BIT       P04
      00000098H   SFRSYM    DATA     BYTE      SCON
      00000090H.4 SFRSYM    DATA     BIT       P14
      00000080H.5 SFRSYM    DATA     BIT       P05
      00000089H   SFRSYM    DATA     BYTE      TMOD
      00000088H   SFRSYM    DATA     BYTE      TCON
      00000090H.5 SFRSYM    DATA     BIT       P15
      00000080H.6 SFRSYM    DATA     BIT       P06
      00000090H.6 SFRSYM    DATA     BIT       P16
      00000080H.7 SFRSYM    DATA     BIT       P07
      00000090H.7 SFRSYM    DATA     BIT       P17
      000000F3H   SFRSYM    DATA     BYTE      SPCR
      000000BDH   SFRSYM    DATA     BYTE      I2STAT
      000000F5H   SFRSYM    DATA     BYTE      SPDR
      000000D8H.5 SFRSYM    DATA     BIT       PWMF
      000000E5H   SFRSYM    DATA     BYTE      C0H
      000000E7H   SFRSYM    DATA     BYTE      C1H
      000000EEH   SFRSYM    DATA     BYTE      C2H
      0000009FH   SFRSYM    DATA     BYTE      CHPCON
      00000088H.1 SFRSYM    DATA     BIT       IE0
      00000088H.3 SFRSYM    DATA     BIT       IE1
      000000E4H   SFRSYM    DATA     BYTE      C0L
      00000091H   SFRSYM    DATA     BYTE      SFRS
      000000E6H   SFRSYM    DATA     BYTE      C1L
      000000C8H   SFRSYM    DATA     BIT       CM_RL2
      000000F0H   SFRSYM    DATA     BYTE      B
      000000EDH   SFRSYM    DATA     BYTE      C2L
      0000009AH   SFRSYM    DATA     BYTE      SBUF_1
      000000A5H   SFRSYM    DATA     BYTE      IAPUEN
      000000F8H   SFRSYM    DATA     BYTE      SCON_1
      000000E0H   SFRSYM    DATA     BYTE      ACC
      000000A8H.1 SFRSYM    DATA     BIT       ET0
      000000F4H   SFRSYM    DATA     BYTE      SPSR
      000000A4H   SFRSYM    DATA     BYTE      IAPTRG
      000000A8H.3 SFRSYM    DATA     BIT       ET1
      00000088H.5 SFRSYM    DATA     BIT       TF0
      00000088H.7 SFRSYM    DATA     BIT       TF1
      000000C8H.7 SFRSYM    DATA     BIT       TF2
      00000098H.2 SFRSYM    DATA     BIT       RB8
      000000D7H   SFRSYM    DATA     BYTE      FBD
      0000008CH   SFRSYM    DATA     BYTE      TH0
      000000A8H   SFRSYM    DATA     BIT       EX0
      00000088H   SFRSYM    DATA     BIT       IT0
      000000C6H   SFRSYM    DATA     BYTE      RH3
      0000008DH   SFRSYM    DATA     BYTE      TH1
      000000A8H.2 SFRSYM    DATA     BIT       EX1
      00000098H.3 SFRSYM    DATA     BIT       TB8
LX51 LINKER/LOCATER V4.66.1.0                                                         10/28/2019  14:49:17  PAGE 75


      00000088H.2 SFRSYM    DATA     BIT       IT1
      000000CDH   SFRSYM    DATA     BYTE      TH2
      000000D0H   SFRSYM    DATA     BIT       P
      000000FAH   SFRSYM    DATA     BYTE      PDTCNT
      00000098H.7 SFRSYM    DATA     BIT       SM0
      0000008AH   SFRSYM    DATA     BYTE      TL0
      00000098H.6 SFRSYM    DATA     BIT       SM1
      000000C5H   SFRSYM    DATA     BYTE      RL3
      0000008BH   SFRSYM    DATA     BYTE      TL1
      000000C0H.6 SFRSYM    DATA     BIT       I2CEN
      00000098H.5 SFRSYM    DATA     BIT       SM2
      000000CCH   SFRSYM    DATA     BYTE      TL2
      000000B1H   SFRSYM    DATA     BYTE      P0S
      0000009BH   SFRSYM    DATA     BYTE      EIE
      000000B8H.1 SFRSYM    DATA     BIT       PT0
      000000B3H   SFRSYM    DATA     BYTE      P1S
      000000D0H.3 SFRSYM    DATA     BIT       RS0
      000000B8H.3 SFRSYM    DATA     BIT       PT1
      000000BCH   SFRSYM    DATA     BYTE      I2DAT
      000000B5H   SFRSYM    DATA     BYTE      P2S
      000000D0H.4 SFRSYM    DATA     BIT       RS1
      00000088H.4 SFRSYM    DATA     BIT       TR0
      000000BEH   SFRSYM    DATA     BYTE      I2CLK
      000000ACH   SFRSYM    DATA     BYTE      P3S
      000000D8H.4 SFRSYM    DATA     BIT       CLRPWM
      00000088H.6 SFRSYM    DATA     BIT       TR1
      000000C8H.2 SFRSYM    DATA     BIT       TR2
      000000B8H   SFRSYM    DATA     BIT       PX0
      00000090H.4 SFRSYM    DATA     BIT       SDA
      000000FFH   SFRSYM    DATA     BYTE      EIPH1
      000000B8H.2 SFRSYM    DATA     BIT       PX1
      000000E8H   SFRSYM    DATA     BYTE      ADCCON0
      000000E1H   SFRSYM    DATA     BYTE      ADCCON1
      000000E2H   SFRSYM    DATA     BYTE      ADCCON2
      000000C0H   SFRSYM    DATA     BYTE      I2CON
      00000083H   SFRSYM    DATA     BYTE      DPH
      000000F8H.2 SFRSYM    DATA     BIT       RB8_1
      000000EFH   SFRSYM    DATA     BYTE      EIP
      000000F8H.3 SFRSYM    DATA     BIT       TB8_1
      000000ECH   SFRSYM    DATA     BYTE      PIF
      00000082H   SFRSYM    DATA     BYTE      DPL
      000000F8H.7 SFRSYM    DATA     BIT       SM0_1
      000000FCH   SFRSYM    DATA     BYTE      PMD
      000000B7H   SFRSYM    DATA     BYTE      IPH
      000000F8H.6 SFRSYM    DATA     BIT       SM1_1
      00000090H.3 SFRSYM    DATA     BIT       SCL
      000000BFH   SFRSYM    DATA     BYTE      I2TOC
      000000F8H.5 SFRSYM    DATA     BIT       SM2_1
      000000C3H   SFRSYM    DATA     BYTE      ADCRH
      000000A7H   SFRSYM    DATA     BYTE      IAPAH
      00000098H.4 SFRSYM    DATA     BIT       REN
      000000AEH   SFRSYM    DATA     BYTE      IAPFD
      00000092H   SFRSYM    DATA     BYTE      CAPCON0
      000000C0H   SFRSYM    DATA     BIT       I2CPX
      000000C9H   SFRSYM    DATA     BYTE      T2MOD
      000000C8H   SFRSYM    DATA     BYTE      T2CON
      000000C2H   SFRSYM    DATA     BYTE      ADCRL
      000000A3H   SFRSYM    DATA     BYTE      BODCON0
      00000093H   SFRSYM    DATA     BYTE      CAPCON1
      000000C0H.5 SFRSYM    DATA     BIT       STA
      000000C4H   SFRSYM    DATA     BYTE      T3CON
      000000ABH   SFRSYM    DATA     BYTE      BODCON1
      000000A6H   SFRSYM    DATA     BYTE      IAPAL
      00000094H   SFRSYM    DATA     BYTE      CAPCON2
      000000F1H   SFRSYM    DATA     BYTE      CAPCON3
LX51 LINKER/LOCATER V4.66.1.0                                                         10/28/2019  14:49:17  PAGE 76


      000000F2H   SFRSYM    DATA     BYTE      CAPCON4
      000000D8H.7 SFRSYM    DATA     BIT       PWMRUN
      000000F3H   SFRSYM    DATA     BYTE      SPCR2
      000000B9H   SFRSYM    DATA     BYTE      SADEN
      000000AFH   SFRSYM    DATA     BYTE      IAPCN
      000000D2H   SFRSYM    DATA     BYTE      PWM0H
      000000D6H   SFRSYM    DATA     BYTE      PNP
      000000D3H   SFRSYM    DATA     BYTE      PWM1H
      000000D4H   SFRSYM    DATA     BYTE      PWM2H
      000000A9H   SFRSYM    DATA     BYTE      SADDR
      0000008EH   SFRSYM    DATA     BYTE      CKCON
      000000D5H   SFRSYM    DATA     BYTE      PWM3H
      000000DAH   SFRSYM    DATA     BYTE      PWM0L
      000000C4H   SFRSYM    DATA     BYTE      PWM4H
      000000DBH   SFRSYM    DATA     BYTE      PWM1L
      000000C5H   SFRSYM    DATA     BYTE      PWM5H
      000000A2H   SFRSYM    DATA     BYTE      AUXR1
      00000095H   SFRSYM    DATA     BYTE      CKDIV
      000000DCH   SFRSYM    DATA     BYTE      PWM2L
      000000DDH   SFRSYM    DATA     BYTE      PWM3L
      00000086H   SFRSYM    DATA     BYTE      RWK
      000000D0H.5 SFRSYM    DATA     BIT       F0
      000000CCH   SFRSYM    DATA     BYTE      PWM4L
      000000F8H.4 SFRSYM    DATA     BIT       REN_1
      000000E8H.4 SFRSYM    DATA     BIT       ETGSEL0
      000000C0H.4 SFRSYM    DATA     BIT       STO
      000000CDH   SFRSYM    DATA     BYTE      PWM5L
      000000E8H.5 SFRSYM    DATA     BIT       ETGSEL1
      000000E9H   SFRSYM    DATA     BYTE      PICON
      000000DEH   SFRSYM    DATA     BYTE      PIOCON0
      000000D0H   SFRSYM    DATA     BYTE      PSW
      000000EAH   SFRSYM    DATA     BYTE      PINEN
      000000C6H   SFRSYM    DATA     BYTE      PIOCON1
      000000F9H   SFRSYM    DATA     BYTE      PDTEN
      000000AAH   SFRSYM    DATA     BYTE      WDCON
      000000EBH   SFRSYM    DATA     BYTE      PIPEN
      000000BAH   SFRSYM    DATA     BYTE      SADEN_1
      02000326H   SYMBOL    XDATA    BYTE      sl_wrist_int_status
      02000328H   SYMBOL    XDATA    BYTE      sl_wrist_int_pin
      02000329H   SYMBOL    XDATA    WORD      SL_Step_Value_Temp

      01001CBCH   BLOCK     CODE     ---       LVL=0
      01001CBCH   LINE      ---      ---       #13
      01001CC1H   LINE      ---      ---       #14
      02000021H   SYMBOL    XDATA    BYTE      Sl_pull_up_mode
      01001CC1H   BLOCK     CODE     NEAR LAB  LVL=1
      01001CC1H   LINE      ---      ---       #15
      01001CC5H   LINE      ---      ---       #17
      01001CDCH   LINE      ---      ---       #18
      01001CEAH   LINE      ---      ---       #19
      01001CF3H   LINE      ---      ---       #21
      01001D0AH   LINE      ---      ---       #22
      01001D14H   LINE      ---      ---       #23
      01001D16H   LINE      ---      ---       #24
      02000022H   SYMBOL    XDATA    BYTE      SL_Read_Reg
      ---         BLOCKEND  CODE     ---       LVL=1
      ---         BLOCKEND  CODE     ---       LVL=0

      01002008H   BLOCK     CODE     ---       LVL=0
      01002008H   LINE      ---      ---       #27
      01002008H   LINE      ---      ---       #28
      01002008H   BLOCK     CODE     NEAR LAB  LVL=1
      01002008H   LINE      ---      ---       #29
      0100200EH   LINE      ---      ---       #30
      01002025H   LINE      ---      ---       #31
LX51 LINKER/LOCATER V4.66.1.0                                                         10/28/2019  14:49:17  PAGE 77


      0100202CH   LINE      ---      ---       #32
      01002035H   LINE      ---      ---       #34
      0100204CH   LINE      ---      ---       #35
      01002053H   LINE      ---      ---       #36
      0100205CH   LINE      ---      ---       #38
      0100205EH   LINE      ---      ---       #39
      0200033AH   SYMBOL    XDATA    BYTE      SL_Read_Reg
      ---         BLOCKEND  CODE     ---       LVL=1
      ---         BLOCKEND  CODE     ---       LVL=0

      01001D17H   BLOCK     CODE     ---       LVL=0
      01001D17H   LINE      ---      ---       #42
      01001D1CH   LINE      ---      ---       #43
      02000021H   SYMBOL    XDATA    BYTE      SC7A21_FS_Reg
      01001D1CH   BLOCK     CODE     NEAR LAB  LVL=1
      01001D1CH   LINE      ---      ---       #44
      01001D20H   LINE      ---      ---       #45
      01001D37H   LINE      ---      ---       #46
      01001D43H   LINE      ---      ---       #47
      01001D4AH   LINE      ---      ---       #48
      01001D61H   LINE      ---      ---       #49
      01001D70H   LINE      ---      ---       #50
      01001D72H   LINE      ---      ---       #51
      02000022H   SYMBOL    XDATA    BYTE      SL_Read_Reg
      02000023H   SYMBOL    XDATA    BYTE      SL_Write_Reg
      ---         BLOCKEND  CODE     ---       LVL=1
      ---         BLOCKEND  CODE     ---       LVL=0

      01000E43H   BLOCK     CODE     ---       LVL=0
      01000E43H   LINE      ---      ---       #54
      01000E4BH   LINE      ---      ---       #55
      02000024H   SYMBOL    XDATA    BYTE      ODR_Config_Reg
      02000025H   SYMBOL    XDATA    BYTE      Power_Mode
      01000E4BH   BLOCK     CODE     NEAR LAB  LVL=1
      01000E4BH   LINE      ---      ---       #58
      01000E52H   LINE      ---      ---       #59
      01000E52H   LINE      ---      ---       #60
      01000E58H   LINE      ---      ---       #61
      01000E5AH   LINE      ---      ---       #62
      01000E70H   LINE      ---      ---       #63
      01000E7EH   LINE      ---      ---       #64
      01000E86H   LINE      ---      ---       #65
      01000E88H   LINE      ---      ---       #66
      01000E90H   LINE      ---      ---       #67
      01000E90H   LINE      ---      ---       #68
      01000E92H   LINE      ---      ---       #69
      01000EA7H   LINE      ---      ---       #70
      01000EAEH   LINE      ---      ---       #71
      01000EB6H   LINE      ---      ---       #72
      01000EB6H   LINE      ---      ---       #74
      01000EC6H   LINE      ---      ---       #75
      01000EC6H   LINE      ---      ---       #76
      01000ECAH   LINE      ---      ---       #77
      01000ECAH   LINE      ---      ---       #79
      01000ED0H   LINE      ---      ---       #80
      01000EDBH   LINE      ---      ---       #81
      01000EF1H   LINE      ---      ---       #83
      01000F00H   LINE      ---      ---       #84
      01000F02H   LINE      ---      ---       #85
      02000026H   SYMBOL    XDATA    BYTE      SL_Read_Reg
      02000027H   SYMBOL    XDATA    BYTE      SL_Write_Reg
      ---         BLOCKEND  CODE     ---       LVL=1
      ---         BLOCKEND  CODE     ---       LVL=0

      01000C5EH   BLOCK     CODE     ---       LVL=0
LX51 LINKER/LOCATER V4.66.1.0                                                         10/28/2019  14:49:17  PAGE 78


      01000C5EH   LINE      ---      ---       #88
      01000C68H   LINE      ---      ---       #89
      02000024H   SYMBOL    XDATA    BYTE      Fifo_Mode
      02000025H   SYMBOL    XDATA    BYTE      Fifo_Bit
      01000C68H   BLOCK     CODE     NEAR LAB  LVL=1
      01000C68H   LINE      ---      ---       #93
      01000C6AH   LINE      ---      ---       #94
      01000C6AH   LINE      ---      ---       #95
      01000C7FH   LINE      ---      ---       #96
      01000C86H   LINE      ---      ---       #97
      01000C88H   LINE      ---      ---       #98
      01000C90H   LINE      ---      ---       #99
      01000C92H   LINE      ---      ---       #100
      01000C9AH   LINE      ---      ---       #101
      01000C9AH   LINE      ---      ---       #102
      01000CAFH   LINE      ---      ---       #103
      01000CB6H   LINE      ---      ---       #104
      01000CBEH   LINE      ---      ---       #105
      01000CC5H   LINE      ---      ---       #106
      01000CCDH   LINE      ---      ---       #107
      01000CCFH   LINE      ---      ---       #108
      01000CD7H   LINE      ---      ---       #109
      01000CD7H   LINE      ---      ---       #110
      01000CECH   LINE      ---      ---       #111
      01000CF3H   LINE      ---      ---       #112
      01000CF7H   LINE      ---      ---       #113
      01000CFFH   LINE      ---      ---       #114
      01000CFFH   LINE      ---      ---       #116
      01000D05H   LINE      ---      ---       #117
      01000D05H   LINE      ---      ---       #118
      01000D1AH   LINE      ---      ---       #119
      01000D21H   LINE      ---      ---       #120
      01000D23H   LINE      ---      ---       #121
      01000D2BH   LINE      ---      ---       #122
      01000D2DH   LINE      ---      ---       #123
      01000D35H   LINE      ---      ---       #124
      01000D35H   LINE      ---      ---       #125
      01000D4AH   LINE      ---      ---       #126
      01000D51H   LINE      ---      ---       #127
      01000D55H   LINE      ---      ---       #128
      01000D5DH   LINE      ---      ---       #129
      01000D5DH   LINE      ---      ---       #131
      01000D5FH   LINE      ---      ---       #132
      02000026H   SYMBOL    XDATA    BYTE      SL_Read_Reg
      02000027H   SYMBOL    XDATA    BYTE      SL_Write_Reg
      ---         BLOCKEND  CODE     ---       LVL=1
      ---         BLOCKEND  CODE     ---       LVL=0

      01001C88H   BLOCK     CODE     ---       LVL=0
      01001C88H   LINE      ---      ---       #134
      01001C8EH   LINE      ---      ---       #135
      02000021H   SYMBOL    XDATA    BYTE      int_para
      01001C8EH   BLOCK     CODE     NEAR LAB  LVL=1
      01001C8EH   LINE      ---      ---       #138
      01001C95H   LINE      ---      ---       #139
      01001CACH   LINE      ---      ---       #141
      01001CB9H   LINE      ---      ---       #142
      01001CBBH   LINE      ---      ---       #143
      02000022H   SYMBOL    XDATA    BYTE      SL_Read_Reg
      ---         BLOCKEND  CODE     ---       LVL=1
      ---         BLOCKEND  CODE     ---       LVL=0

      0100205FH   BLOCK     CODE     ---       LVL=0
      0100205FH   LINE      ---      ---       #174
      0100206AH   LINE      ---      ---       #175
LX51 LINKER/LOCATER V4.66.1.0                                                         10/28/2019  14:49:17  PAGE 79


      020002F9H   SYMBOL    XDATA    ---       SL_SC7A21_Data_XYZ_Buf
      0100206AH   BLOCK     CODE     NEAR LAB  LVL=1
      0100206AH   LINE      ---      ---       #178
      01002081H   LINE      ---      ---       #180
      0100208BH   LINE      ---      ---       #181
      0100208BH   LINE      ---      ---       #183
      010020A3H   LINE      ---      ---       #187
      010020C4H   LINE      ---      ---       #188
      010020E7H   LINE      ---      ---       #189
      010020FDH   LINE      ---      ---       #191
      01002100H   LINE      ---      ---       #192
      01002100H   LINE      ---      ---       #194
      01002100H   LINE      ---      ---       #195
      01002102H   LINE      ---      ---       #196
      01002102H   LINE      ---      ---       #197
      020002FCH   SYMBOL    XDATA    ---       SL_Read_Buf
      ---         BLOCKEND  CODE     ---       LVL=1
      ---         BLOCKEND  CODE     ---       LVL=0

      01000B4AH   BLOCK     CODE     ---       LVL=0
      01000B4AH   LINE      ---      ---       #234
      01000B55H   LINE      ---      ---       #235
      02000234H   SYMBOL    XDATA    ---       SL_SC7A21_Data_X_Buf
      02000237H   SYMBOL    XDATA    ---       SL_SC7A21_Data_Y_Buf
      0200023AH   SYMBOL    XDATA    ---       SL_SC7A21_Data_Z_Buf
      01000B55H   BLOCK     CODE     NEAR LAB  LVL=1
      01000B55H   LINE      ---      ---       #239
      01000B6BH   LINE      ---      ---       #240
      01000B73H   LINE      ---      ---       #241
      01000B7BH   LINE      ---      ---       #243
      01000B82H   LINE      ---      ---       #245
      01000B94H   LINE      ---      ---       #246
      01000B94H   LINE      ---      ---       #248
      01000BAAH   LINE      ---      ---       #253
      01000BD9H   LINE      ---      ---       #254
      01000C06H   LINE      ---      ---       #255
      01000C33H   LINE      ---      ---       #256
      01000C3BH   LINE      ---      ---       #257
      01000C40H   LINE      ---      ---       #258
      0200023DH   SYMBOL    XDATA    ---       SL_Read_Buf
      02000243H   SYMBOL    XDATA    BYTE      FIFO_LEN
      02000244H   SYMBOL    XDATA    BYTE      sl_i
      ---         BLOCKEND  CODE     ---       LVL=1
      ---         BLOCKEND  CODE     ---       LVL=0

      01000FA8H   BLOCK     CODE     ---       LVL=0
      01000FA8H   LINE      ---      ---       #261
      01000FA8H   LINE      ---      ---       #262
      01000FA8H   BLOCK     CODE     NEAR LAB  LVL=1
      01000FA8H   LINE      ---      ---       #265
      01000FBEH   LINE      ---      ---       #266
      01000FC5H   LINE      ---      ---       #267
      01000FCDH   LINE      ---      ---       #268
      01000FD4H   LINE      ---      ---       #270
      020000C8H   SYMBOL    XDATA    BYTE      SL_Read_Reg
      ---         BLOCKEND  CODE     ---       LVL=1
      ---         BLOCKEND  CODE     ---       LVL=0

      01000F03H   BLOCK     CODE     ---       LVL=0
      01000F03H   LINE      ---      ---       #272
      01000F0EH   LINE      ---      ---       #273
      02000021H   SYMBOL    XDATA    ---       pedo_reg_value
      01000F0EH   BLOCK     CODE     NEAR LAB  LVL=1
      01000F0EH   LINE      ---      ---       #277
      01000F18H   LINE      ---      ---       #279
LX51 LINKER/LOCATER V4.66.1.0                                                         10/28/2019  14:49:17  PAGE 80


      01000F30H   LINE      ---      ---       #281
      01000F48H   LINE      ---      ---       #283
      01000F60H   LINE      ---      ---       #285
      01000F78H   LINE      ---      ---       #287
      01000F90H   LINE      ---      ---       #288
      02000024H   SYMBOL    XDATA    BYTE      SL_Write_Reg
      ---         BLOCKEND  CODE     ---       LVL=1
      ---         BLOCKEND  CODE     ---       LVL=0

      01001D73H   BLOCK     CODE     ---       LVL=0
      01001D73H   LINE      ---      ---       #296
      01001D7EH   LINE      ---      ---       #297
      01001D7EH   LINE      ---      ---       #299
      01001D89H   LINE      ---      ---       #300
      01001D9CH   LINE      ---      ---       #301
      01001DA1H   LINE      ---      ---       #302
      01001DA6H   LINE      ---      ---       #303
      01001DA6H   LINE      ---      ---       #304
      01001DA9H   LINE      ---      ---       #305
      01001DA9H   LINE      ---      ---       #306
      01001DB1H   LINE      ---      ---       #307
      01001DB1H   LINE      ---      ---       #308
      01001DB8H   LINE      ---      ---       #309
      01001DB8H   LINE      ---      ---       #312
      01001DC6H   LINE      ---      ---       #314
      01001DDFH   LINE      ---      ---       #316
      02000021H   SYMBOL    XDATA    ---       wrist_reg_value
      ---         BLOCKEND  ---      ---       LVL=0

      01000FD5H   BLOCK     CODE     ---       LVL=0
      01000FD5H   LINE      ---      ---       #319
      01000FE0H   LINE      ---      ---       #320
      02000021H   SYMBOL    XDATA    ---       sleep_reg_value
      01000FE0H   BLOCK     CODE     NEAR LAB  LVL=1
      01000FE0H   LINE      ---      ---       #324
      01000FE9H   LINE      ---      ---       #326
      02000024H   SYMBOL    XDATA    BYTE      SL_Write_Reg
      ---         BLOCKEND  CODE     ---       LVL=1
      ---         BLOCKEND  CODE     ---       LVL=0

      01001EDFH   BLOCK     CODE     ---       LVL=0
      01001EDFH   LINE      ---      ---       #331
      01001EDFH   LINE      ---      ---       #332
      01001EDFH   BLOCK     CODE     NEAR LAB  LVL=1
      01001EDFH   LINE      ---      ---       #336
      01001EF6H   LINE      ---      ---       #338
      01001F1CH   LINE      ---      ---       #340
      01001F34H   LINE      ---      ---       #341
      01001F34H   LINE      ---      ---       #342
      01001F35H   LINE      ---      ---       #343
      01001F35H   LINE      ---      ---       #345
      01001F35H   LINE      ---      ---       #346
      01001F3DH   LINE      ---      ---       #347
      01001F40H   LINE      ---      ---       #348
      01001F40H   LINE      ---      ---       #349
      020000C8H   SYMBOL    XDATA    ---       SL_Step_Reg
      00000004H   SYMBOL    DATA     WORD      SL_Step_Value
      ---         BLOCKEND  CODE     ---       LVL=1
      ---         BLOCKEND  CODE     ---       LVL=0

      01002103H   BLOCK     CODE     ---       LVL=0
      01002103H   LINE      ---      ---       #352
      01002103H   LINE      ---      ---       #353
      01002103H   BLOCK     CODE     NEAR LAB  LVL=1
      01002103H   LINE      ---      ---       #357
LX51 LINKER/LOCATER V4.66.1.0                                                         10/28/2019  14:49:17  PAGE 81


      0100211AH   LINE      ---      ---       #359
      01002123H   LINE      ---      ---       #360
      01002123H   LINE      ---      ---       #362
      01002146H   LINE      ---      ---       #364
      01002146H   LINE      ---      ---       #365
      01002153H   LINE      ---      ---       #366
      0100215BH   LINE      ---      ---       #367
      0100215CH   LINE      ---      ---       #368
      01002164H   LINE      ---      ---       #369
      01002164H   LINE      ---      ---       #370
      01002164H   LINE      ---      ---       #372
      0100216CH   LINE      ---      ---       #373
      0100216CH   LINE      ---      ---       #375
      0100216FH   LINE      ---      ---       #376
      0100216FH   LINE      ---      ---       #377
      01002173H   LINE      ---      ---       #378
      01002173H   LINE      ---      ---       #380
      01002176H   LINE      ---      ---       #381
      01002176H   LINE      ---      ---       #383
      01002176H   LINE      ---      ---       #384
      01002178H   LINE      ---      ---       #385
      01002178H   LINE      ---      ---       #386
      02000252H   SYMBOL    XDATA    BYTE      SL_Read_Reg
      00000006H   SYMBOL    DATA     BYTE      SL_Write_Reg
      ---         BLOCKEND  CODE     ---       LVL=1
      ---         BLOCKEND  CODE     ---       LVL=0

      01001EC2H   BLOCK     CODE     ---       LVL=0
      01001EC2H   LINE      ---      ---       #390
      01001EC2H   LINE      ---      ---       #391
      01001EC2H   BLOCK     CODE     NEAR LAB  LVL=1
      01001EC2H   LINE      ---      ---       #395
      01001ED9H   LINE      ---      ---       #400
      01001EDEH   LINE      ---      ---       #401
      020000C8H   SYMBOL    XDATA    BYTE      SL_Sleep_Status
      ---         BLOCKEND  CODE     ---       LVL=1
      ---         BLOCKEND  CODE     ---       LVL=0

      01000D7CH   BLOCK     CODE     ---       LVL=0
      01000D7CH   LINE      ---      ---       #403
      01000D87H   LINE      ---      ---       #404
      01000D87H   LINE      ---      ---       #406
      01000D97H   LINE      ---      ---       #407
      01000D97H   LINE      ---      ---       #408
      01000D9DH   LINE      ---      ---       #409
      01000D9FH   LINE      ---      ---       #411
      01000D9FH   LINE      ---      ---       #412
      01000DA5H   LINE      ---      ---       #413
      01000DA5H   LINE      ---      ---       #415
      01000DABH   LINE      ---      ---       #417
      01000DC3H   LINE      ---      ---       #419
      01000DDBH   LINE      ---      ---       #421
      01000DF3H   LINE      ---      ---       #423
      01000E0BH   LINE      ---      ---       #425
      01000E23H   LINE      ---      ---       #427
      01000E3BH   LINE      ---      ---       #429
      02000021H   SYMBOL    XDATA    ---       click_para
      ---         BLOCKEND  ---      ---       LVL=0

      01002179H   BLOCK     CODE     ---       LVL=0
      01002179H   LINE      ---      ---       #433
      01002181H   LINE      ---      ---       #434
      02000234H   SYMBOL    XDATA    WORD      sqrt_data
      01002181H   BLOCK     CODE     NEAR LAB  LVL=1
      01002181H   LINE      ---      ---       #436
LX51 LINKER/LOCATER V4.66.1.0                                                         10/28/2019  14:49:17  PAGE 82


      01002183H   LINE      ---      ---       #438
      01002187H   LINE      ---      ---       #439
      0100218DH   LINE      ---      ---       #440
      0100219EH   LINE      ---      ---       #441
      0100219EH   LINE      ---      ---       #442
      0100219EH   LINE      ---      ---       #443
      010021BAH   LINE      ---      ---       #444
      010021BAH   LINE      ---      ---       #445
      010021C9H   LINE      ---      ---       #446
      010021CBH   LINE      ---      ---       #448
      010021CBH   LINE      ---      ---       #449
      010021DAH   LINE      ---      ---       #450
      010021DAH   LINE      ---      ---       #451
      010021F5H   LINE      ---      ---       #452
      010021F5H   LINE      ---      ---       #453
      0100222CH   LINE      ---      ---       #454
      0100222CH   LINE      ---      ---       #455
      01002233H   LINE      ---      ---       #456
      01002233H   LINE      ---      ---       #458
      01002233H   LINE      ---      ---       #459
      0100223CH   LINE      ---      ---       #460
      0100223CH   LINE      ---      ---       #461
      0100223CH   LINE      ---      ---       #462
      0100225DH   LINE      ---      ---       #463
      0100225EH   LINE      ---      ---       #464
      01002265H   LINE      ---      ---       #465
      01002268H   LINE      ---      ---       #466
      02000236H   SYMBOL    XDATA    WORD      SL_SQRT_LOW
      02000238H   SYMBOL    XDATA    WORD      SL_SQRT_UP
      0200023AH   SYMBOL    XDATA    WORD      SL_SQRT_MID
      00000001H   SYMBOL    DATA     BYTE      sl_sqrt_num
      ---         BLOCKEND  CODE     ---       LVL=1
      ---         BLOCKEND  CODE     ---       LVL=0

      01002269H   BLOCK     CODE     ---       LVL=0
      01002269H   LINE      ---      ---       #475
      01002269H   LINE      ---      ---       #476
      01002269H   LINE      ---      ---       #477
      0100226CH   LINE      ---      ---       #478
      01002270H   LINE      ---      ---       #479
      01002275H   LINE      ---      ---       #480
      00000007H   SYMBOL    DATA     BYTE      fun_flag
      ---         BLOCKEND  ---      ---       LVL=0

      010008BDH   BLOCK     CODE     ---       LVL=0
      010008BDH   LINE      ---      ---       #486
      010008C8H   LINE      ---      ---       #487
      020000E7H   SYMBOL    XDATA    WORD      Click_TH
      020000E9H   SYMBOL    XDATA    BYTE      Click_E
      010008C8H   BLOCK     CODE     NEAR LAB  LVL=1
      010008C8H   LINE      ---      ---       #488
      010008CFH   LINE      ---      ---       #489
      010008D1H   LINE      ---      ---       #492
      010008D7H   LINE      ---      ---       #494
      010008DBH   LINE      ---      ---       #495
      010008DFH   LINE      ---      ---       #497
      01000904H   LINE      ---      ---       #499
      01000919H   LINE      ---      ---       #500
      01000919H   LINE      ---      ---       #501
      01000972H   LINE      ---      ---       #502
      0100097DH   LINE      ---      ---       #503
      01000991H   LINE      ---      ---       #511
      01000999H   LINE      ---      ---       #513
      0100099EH   LINE      ---      ---       #514
      010009B4H   LINE      ---      ---       #515
LX51 LINKER/LOCATER V4.66.1.0                                                         10/28/2019  14:49:17  PAGE 83


      010009B4H   LINE      ---      ---       #516
      010009F3H   LINE      ---      ---       #517
      010009F3H   LINE      ---      ---       #518
      010009FBH   LINE      ---      ---       #519
      010009FBH   LINE      ---      ---       #520
      01000A01H   LINE      ---      ---       #521
      01000A14H   LINE      ---      ---       #522
      01000A14H   LINE      ---      ---       #523
      01000A3DH   LINE      ---      ---       #524
      01000A3DH   LINE      ---      ---       #525
      01000A64H   LINE      ---      ---       #526
      01000A66H   LINE      ---      ---       #528
      01000A66H   LINE      ---      ---       #529
      01000A9DH   LINE      ---      ---       #530
      01000A9DH   LINE      ---      ---       #531
      01000AA5H   LINE      ---      ---       #535
      01000AB8H   LINE      ---      ---       #536
      01000AB8H   LINE      ---      ---       #537
      01000ABEH   LINE      ---      ---       #538
      01000AC0H   LINE      ---      ---       #539
      01000AC0H   LINE      ---      ---       #540
      01000AC5H   LINE      ---      ---       #541
      01000AC7H   LINE      ---      ---       #543
      01000AC7H   LINE      ---      ---       #544
      01000ACFH   LINE      ---      ---       #545
      01000ACFH   LINE      ---      ---       #546
      01000ACFH   LINE      ---      ---       #548
      01000AD6H   LINE      ---      ---       #549
      01000AD6H   LINE      ---      ---       #550
      01000B16H   LINE      ---      ---       #551
      01000B16H   LINE      ---      ---       #552
      01000B20H   LINE      ---      ---       #553
      01000B20H   LINE      ---      ---       #554
      01000B26H   LINE      ---      ---       #555
      01000B28H   LINE      ---      ---       #556
      01000B28H   LINE      ---      ---       #557
      01000B28H   LINE      ---      ---       #558
      01000B28H   LINE      ---      ---       #559
      01000B30H   LINE      ---      ---       #560
      01000B37H   LINE      ---      ---       #561
      01000B37H   LINE      ---      ---       #562
      01000B3DH   LINE      ---      ---       #563
      01000B3FH   LINE      ---      ---       #565
      01000B3FH   LINE      ---      ---       #566
      01000B44H   LINE      ---      ---       #567
      01000B44H   LINE      ---      ---       #569
      01000B49H   LINE      ---      ---       #570
      020000EAH   SYMBOL    XDATA    BYTE      i
      020000EBH   SYMBOL    XDATA    BYTE      j
      020000ECH   SYMBOL    XDATA    BYTE      k
      020000EDH   SYMBOL    XDATA    BYTE      click_num
      020000EEH   SYMBOL    XDATA    ---       fifo_data
      020001AEH   SYMBOL    XDATA    BYTE      fifo_len
      020001AFH   SYMBOL    XDATA    WORD      sc7a20_data
      020001B1H   SYMBOL    XDATA    ---       fifo_data_xyz
      02000231H   SYMBOL    XDATA    BYTE      click_result
      02000232H   SYMBOL    XDATA    WORD      click_sum
      ---         BLOCKEND  CODE     ---       LVL=1
      ---         BLOCKEND  CODE     ---       LVL=0

      ---         MODULE    ---      ---       ?C_INIT
      010003ECH   PUBLIC    CODE     ---       ?C_START

      ---         MODULE    ---      ---       ?C?COPY
      0100015EH   PUBLIC    CODE     ---       ?C?COPY
LX51 LINKER/LOCATER V4.66.1.0                                                         10/28/2019  14:49:17  PAGE 84



      ---         MODULE    ---      ---       ?C?CLDPTR
      01000184H   PUBLIC    CODE     ---       ?C?CLDPTR

      ---         MODULE    ---      ---       ?C?CLDOPTR
      0100019DH   PUBLIC    CODE     ---       ?C?CLDOPTR

      ---         MODULE    ---      ---       ?C?CSTPTR
      010001CAH   PUBLIC    CODE     ---       ?C?CSTPTR

      ---         MODULE    ---      ---       ?C?CSTOPTR
      010001DCH   PUBLIC    CODE     ---       ?C?CSTOPTR

      ---         MODULE    ---      ---       ?C?IMUL
      010001FEH   PUBLIC    CODE     ---       ?C?IMUL

      ---         MODULE    ---      ---       ?C?ILDIX
      01000210H   PUBLIC    CODE     ---       ?C?ILDIX

      ---         MODULE    ---      ---       ?C?ILDOPTR
      01000226H   PUBLIC    CODE     ---       ?C?ILDOPTR

      ---         MODULE    ---      ---       ?C?ISTPTR
      0100025EH   PUBLIC    CODE     ---       ?C?ISTPTR

      ---         MODULE    ---      ---       ?C?ISTOPTR
      0100027DH   PUBLIC    CODE     ---       ?C?ISTOPTR

      ---         MODULE    ---      ---       ?C?ULDIV
      010002E6H   PUBLIC    CODE     ---       ?C?ULDIV

      ---         MODULE    ---      ---       ?C?ULSHR
      01000378H   PUBLIC    CODE     ---       ?C?ULSHR

      ---         MODULE    ---      ---       ?C?LSTXDATA
      0100038BH   PUBLIC    CODE     ---       ?C?LSTXDATA



*** WARNING L15: MULTIPLE CALL TO FUNCTION
    NAME:    _SL_SC7A21_READ_XYZ_FIFO_DATA/SL_SC7A21_DRIVER
    CALLER1: ?C_C51STARTUP
    CALLER2: EXT0_ISR/SYSTEM

*** WARNING L15: MULTIPLE CALL TO FUNCTION
    NAME:    _SL_SC7A21_I2C_SPI_READ/I2C_SOFTWARE
    CALLER1: ?C_C51STARTUP
    CALLER2: EXT0_ISR/SYSTEM

*** WARNING L15: MULTIPLE CALL TO FUNCTION
    NAME:    _I2CS_RX_DATA/I2C_SOFTWARE
    CALLER1: ?C_C51STARTUP
    CALLER2: EXT0_ISR/SYSTEM

*** WARNING L15: MULTIPLE CALL TO FUNCTION
    NAME:    _SL_SC7A21_I2C_SPI_READ/I2C_SOFTWARE
    CALLER1: EXT0_ISR/SYSTEM
    CALLER2: EXT1_ISR/SYSTEM

*** WARNING L15: MULTIPLE CALL TO FUNCTION
    NAME:    _I2CS_RX_DATA/I2C_SOFTWARE
    CALLER1: EXT0_ISR/SYSTEM
    CALLER2: EXT1_ISR/SYSTEM

*** WARNING L15: MULTIPLE CALL TO FUNCTION
LX51 LINKER/LOCATER V4.66.1.0                                                         10/28/2019  14:49:17  PAGE 85


    NAME:    _SL_SC7A21_I2C_SPI_WRITE/I2C_SOFTWARE
    CALLER1: ?C_C51STARTUP
    CALLER2: EXT1_ISR/SYSTEM

*** WARNING L15: MULTIPLE CALL TO FUNCTION
    NAME:    _I2CS_TX_DATA/I2C_SOFTWARE
    CALLER1: ?C_C51STARTUP
    CALLER2: EXT1_ISR/SYSTEM

Program Size: data=9.3 xdata=827 const=91 code=8720
LX51 RUN COMPLETE.  7 WARNING(S),  0 ERROR(S)
