LX51 LINKER/LOCATER V4.66.1.0                                                           10/19/2019  14:09:51  PAGE 1


LX51 LINKER/LOCATER V4.66.1.0, INVOKED BY:
C:\KEIL_V5\C51\BIN\LX51.EXE ..\Output\STARTUP.obj, ..\Output\System.obj, ..\Output\main.obj, ..\Output\adc.obj, ..\Outpu
>> t\eeprom.obj, ..\Output\i2c_software.obj, ..\Output\registers.obj, ..\Output\SC7A21.obj, ..\Output\UART.obj, ..\Outpu
>> t\Work.obj, ..\Output\SL_Sc7a21_Driver.obj, ..\Output\SL_SC7A21_Application.obj TO ..\Output\LED_12T PRINT (..\LST\LE
>> D_12T.map) DISABLEWARNING (16)


CPU MODE:     8051 MODE
MEMORY MODEL: LARGE


INPUT MODULES INCLUDED:
  ..\Output\STARTUP.obj (?C_STARTUP)
         COMMENT TYPE 1: A51 / ASM51 Assembler
  ..\Output\System.obj (SYSTEM)
         COMMENT TYPE 0: C51 V9.52.0.0
  ..\Output\main.obj (MAIN)
         COMMENT TYPE 0: C51 V9.52.0.0
  ..\Output\adc.obj (ADC)
         COMMENT TYPE 0: C51 V9.52.0.0
  ..\Output\eeprom.obj (EEPROM)
         COMMENT TYPE 0: C51 V9.52.0.0
  ..\Output\i2c_software.obj (I2C_SOFTWARE)
         COMMENT TYPE 0: C51 V9.52.0.0
  ..\Output\registers.obj (REGISTERS)
         COMMENT TYPE 0: C51 V9.52.0.0
  ..\Output\SC7A21.obj (SC7A21)
         COMMENT TYPE 0: C51 V9.52.0.0
  ..\Output\UART.obj (UART)
         COMMENT TYPE 0: C51 V9.52.0.0
  ..\Output\Work.obj (WORK)
         COMMENT TYPE 0: C51 V9.52.0.0
  ..\Output\SL_Sc7a21_Driver.obj (SL_SC7A21_DRIVER)
         COMMENT TYPE 0: C51 V9.52.0.0
  ..\Output\SL_SC7A21_Application.obj (SL_SC7A21_APPLICATION)
         COMMENT TYPE 0: C51 V9.52.0.0
  C:\KEIL_V5\C51\LIB\C51L.LIB (?C_INIT)
         COMMENT TYPE 1: A51 / ASM51 Assembler
  C:\KEIL_V5\C51\LIB\C51L.LIB (?C?COPY)
         COMMENT TYPE 1: A51 / ASM51 Assembler
  C:\KEIL_V5\C51\LIB\C51L.LIB (?C?CLDPTR)
         COMMENT TYPE 1: A51 / ASM51 Assembler
  C:\KEIL_V5\C51\LIB\C51L.LIB (?C?CLDOPTR)
         COMMENT TYPE 1: A51 / ASM51 Assembler
  C:\KEIL_V5\C51\LIB\C51L.LIB (?C?CSTPTR)
         COMMENT TYPE 1: A51 / ASM51 Assembler
  C:\KEIL_V5\C51\LIB\C51L.LIB (?C?CSTOPTR)
         COMMENT TYPE 1: A51 / ASM51 Assembler
  C:\KEIL_V5\C51\LIB\C51L.LIB (?C?ILDIX)
         COMMENT TYPE 1: A51 / ASM51 Assembler
  C:\KEIL_V5\C51\LIB\C51L.LIB (?C?ILDOPTR)
         COMMENT TYPE 1: A51 / ASM51 Assembler
  C:\KEIL_V5\C51\LIB\C51L.LIB (?C?ISTPTR)
         COMMENT TYPE 1: A51 / ASM51 Assembler
  C:\KEIL_V5\C51\LIB\C51L.LIB (?C?ISTOPTR)
         COMMENT TYPE 1: A51 / ASM51 Assembler
  C:\KEIL_V5\C51\LIB\C51L.LIB (?C?ULDIV)
         COMMENT TYPE 1: A51 / ASM51 Assembler
  C:\KEIL_V5\C51\LIB\C51L.LIB (?C?ULSHR)
         COMMENT TYPE 1: A51 / ASM51 Assembler
  C:\KEIL_V5\C51\LIB\C51L.LIB (?C?LSTXDATA)
         COMMENT TYPE 1: A51 / ASM51 Assembler
  C:\KEIL_V5\C51\LIB\C51L.LIB (?C?LIMUL)
         COMMENT TYPE 1: A51 / ASM51 Assembler


LX51 LINKER/LOCATER V4.66.1.0                                                         10/19/2019  14:09:51  PAGE 2


ACTIVE MEMORY CLASSES OF MODULE:  ..\Output\LED_12T (?C_STARTUP)

BASE        START       END         USED      MEMORY CLASS
==========================================================
C:000000H   C:000000H   C:00FFFFH   0019FAH   CODE
I:000000H   I:000000H   I:0000FFH   000001H   IDATA
X:000000H   X:000000H   X:00FFFFH   000218H   XDATA
I:000020H.0 I:000020H.0 I:00002FH.7 000000H.2 BIT
C:000000H   C:000000H   C:00FFFFH   000047H   CONST
I:000000H   I:000000H   I:00007FH   000008H   DATA


MEMORY MAP OF MODULE:  ..\Output\LED_12T (?C_STARTUP)


START     STOP      LENGTH    ALIGN  RELOC    MEMORY CLASS   SEGMENT NAME
=========================================================================

* * * * * * * * * * *   D A T A   M E M O R Y   * * * * * * * * * * * * *
000000H   000007H   000008H   ---    AT..     DATA           "REG BANK 0"
000008H.0 00001FH.7 000018H.0 ---    ---      **GAP**
000020H.0 000020H.0 000000H.1 BIT    UNIT     BIT            ?BI?SYSTEM
000020H.1 000020H.1 000000H.1 BIT    UNIT     BIT            ?BI?WORK
000020H.2 000020H   000000H.6 ---    ---      **GAP**
000021H   000021H   000001H   BYTE   UNIT     IDATA          ?STACK

* * * * * * * * * * *   C O D E   M E M O R Y   * * * * * * * * * * * * *
000000H   000002H   000003H   ---    OFFS..   CODE           ?CO??C_STARTUP?0
000003H   000003H   000001H   BYTE   UNIT     CODE           ?PR?EXT1_ISR?SYSTEM
000004H   000006H   000003H   BYTE   UNIT     CODE           ?PR?TIMER2_ISR?SYSTEM
000007H   000007H   000001H   BYTE   UNIT     CODE           ?PR?I2CS_INIT?I2C_SOFTWARE
000008H   00000AH   000003H   BYTE   UNIT     CODE           ?PR?READEEPROM?WORK
00000BH   00000CH   000002H   BYTE   OFFS..   CODE           ?SYSTEM?0000B
00000DH   000012H   000006H   ---    ---      **GAP**
000013H   000014H   000002H   BYTE   OFFS..   CODE           ?SYSTEM?00013
000015H   00001AH   000006H   ---    ---      **GAP**
00001BH   00001CH   000002H   BYTE   OFFS..   CODE           ?SYSTEM?0001B
00001DH   000029H   00000DH   BYTE   UNIT     CONST          ?CO?SL_SC7A21_APPLICATION
00002AH   00002AH   000001H   ---    ---      **GAP**
00002BH   00002CH   000002H   BYTE   OFFS..   CODE           ?SYSTEM?0002B
00002DH   000036H   00000AH   BYTE   UNIT     CODE           ?PR?TIMER1_ISR?SYSTEM
000037H   00003AH   000004H   ---    ---      **GAP**
00003BH   00003CH   000002H   BYTE   OFFS..   CODE           ?SYSTEM?0003B
00003DH   00004AH   00000EH   BYTE   UNIT     CODE           ?PR?SYSTIMER_PROCESS?SYSTEM
00004BH   000053H   000009H   BYTE   UNIT     CODE           ?PR?ADC_INIT?ADC
000054H   00005AH   000007H   ---    ---      **GAP**
00005BH   00005DH   000003H   BYTE   OFFS..   CODE           ?ADC?0005B
00005EH   000073H   000016H   BYTE   UNIT     CODE           ?PR?TIMER0INIT?SYSTEM
000074H   000083H   000010H   BYTE   UNIT     CODE           ?PR?TIMER1INIT?SYSTEM
000084H   00008AH   000007H   ---    ---      **GAP**
00008BH   00008CH   000002H   BYTE   OFFS..   CODE           ?SYSTEM?0008B
00008DH   0003B0H   000324H   BYTE   UNIT     CODE           ?C?LIB_CODE
0003B1H   00044AH   00009AH   BYTE   UNIT     CODE           ?C_C51STARTUP
00044BH   0004B1H   000067H   BYTE   UNIT     CODE           ?C_INITSEG
0004B2H   0004EBH   00003AH   BYTE   UNIT     CONST          ?CO?SC7A21
0004ECH   00051FH   000034H   BYTE   UNIT     CODE           ?PR?SYSTICK_HANDLER2?SYSTEM
000520H   00058BH   00006CH   BYTE   UNIT     CODE           ?PR?SYSTICK_HANDLER?SYSTEM
00058CH   0005B8H   00002DH   BYTE   UNIT     CODE           ?PR?TIMER0_ISR?SYSTEM
0005B9H   000647H   00008FH   BYTE   UNIT     CODE           ?PR?EXT_IO_ISR?SYSTEM
000648H   00068AH   000043H   BYTE   UNIT     CODE           ?PR?WKT_ISR?SYSTEM
00068BH   0006D3H   000049H   BYTE   UNIT     CODE           ?PR?_ADC_READ?ADC
0006D4H   0006F0H   00001DH   BYTE   UNIT     CODE           ?PR?INIT_IO?SYSTEM
0006F1H   000708H   000018H   BYTE   UNIT     CODE           ?PR?INITSYSTEM?SYSTEM
000709H   00077BH   000073H   BYTE   UNIT     CODE           ?PR?SET_SYSTEM_FRE_10K?SYSTEM
00077CH   0007C6H   00004BH   BYTE   UNIT     CODE           ?PR?INIT_SC7A21?SC7A21
LX51 LINKER/LOCATER V4.66.1.0                                                         10/19/2019  14:09:51  PAGE 3


0007C7H   0007D2H   00000CH   BYTE   UNIT     CODE           ?PR?INIT_WKT?SYSTEM
0007D3H   0007DEH   00000CH   BYTE   UNIT     CODE           ?PR?INIT_EXT_IO_INTERRUPT?SYSTEM
0007DFH   000851H   000073H   BYTE   UNIT     CODE           ?PR?SET_SYSTEM_FRE_16M?SYSTEM
000852H   00087CH   00002BH   BYTE   UNIT     CODE           ?PR?MAIN?MAIN
00087DH   000884H   000008H   BYTE   UNIT     CODE           ?PR?ADC_GO?ADC
000885H   0008C4H   000040H   BYTE   UNIT     CODE           ?PR?ADC_ISR?ADC
0008C5H   0008D7H   000013H   BYTE   UNIT     CODE           ?PR?ISP_DIS?EEPROM
0008D8H   0008F5H   00001EH   BYTE   UNIT     CODE           ?PR?_ERASE?EEPROM
0008F6H   000914H   00001FH   BYTE   UNIT     CODE           ?PR?_WRITE_ISP?EEPROM
000915H   000927H   000013H   BYTE   UNIT     CODE           ?PR?ISP_OPEN?EEPROM
000928H   000951H   00002AH   BYTE   UNIT     CODE           ?PR?_WRITEDATA_ISP?EEPROM
000952H   0009AAH   000059H   BYTE   UNIT     CODE           ?PR?_WRITEROM?EEPROM
0009ABH   0009B3H   000009H   BYTE   UNIT     CODE           ?PR?EEPROM_ERASE?EEPROM
0009B4H   0009BDH   00000AH   BYTE   UNIT     CODE           ?PR?WRITEEEPROM?WORK
0009BEH   0009C7H   00000AH   BYTE   UNIT     CODE           ?PR?PARAMETERRESET?WORK
0009C8H   000A39H   000072H   BYTE   UNIT     CODE           ?PR?_READROM?EEPROM
000A3AH   000A5BH   000022H   BYTE   UNIT     CODE           ?PR?_READDATA_ISP?EEPROM
000A5CH   000A63H   000008H   BYTE   UNIT     CODE           ?PR?_READ_APROM_BYTE?EEPROM
000A64H   000A85H   000022H   BYTE   UNIT     CODE           ?PR?EEPROM_RESTORE_REGISTERS?EEPROM
000A86H   000AA5H   000020H   BYTE   UNIT     CODE           ?PR?EEPROM_SAVE_REGISTERS?EEPROM
000AA6H   000B01H   00005CH   BYTE   UNIT     CODE           ?PR?_EEPROM_WRITE_BLOCK?EEPROM
000B02H   000B5DH   00005CH   BYTE   UNIT     CODE           ?PR?_EEPROM_READ_BLOCK?EEPROM
000B5EH   000B7FH   000022H   BYTE   UNIT     CODE           ?PR?_EEPROM_CHECKSUM?EEPROM
000B80H   000B8AH   00000BH   BYTE   UNIT     CODE           ?PR?_DELAY?I2C_SOFTWARE
000B8BH   000B97H   00000DH   BYTE   UNIT     CODE           ?PR?I2CS_STOP?I2C_SOFTWARE
000B98H   000C0CH   000075H   BYTE   UNIT     CODE           ?PR?_I2CS_TX_DATA?I2C_SOFTWARE
000C0DH   000C99H   00008DH   BYTE   UNIT     CODE           ?PR?_I2CS_RX_DATA?I2C_SOFTWARE
000C9AH   000CD0H   000037H   BYTE   UNIT     CODE           ?PR?_I2CS_TX_BYTE?I2C_SOFTWARE
000CD1H   000CE5H   000015H   BYTE   UNIT     CODE           ?PR?I2CS_START?I2C_SOFTWARE
000CE6H   000D2BH   000046H   BYTE   UNIT     CODE           ?PR?_I2CS_RX_BYTE?I2C_SOFTWARE
000D2CH   000D46H   00001BH   BYTE   UNIT     CODE           ?PR?_SL_SC7A21_I2C_SPI_WRITE?I2C_SOFTWARE
000D47H   000E48H   000102H   BYTE   UNIT     CODE           ?PR?_SL_SC7A21_FIFO_CONFIG?SL_SC7A21_DRIVER
000E49H   000E64H   00001CH   BYTE   UNIT     CODE           ?PR?_SL_SC7A21_I2C_SPI_READ?I2C_SOFTWARE
000E65H   000F09H   0000A5H   BYTE   UNIT     CODE           ?PR?_SL_SC7A21_PEDO_CONFIG?SL_SC7A21_DRIVER
000F0AH   000F36H   00002DH   BYTE   UNIT     CODE           ?PR?SL_SC7A21_PEDO_RESET?SL_SC7A21_DRIVER
000F37H   000F89H   000053H   BYTE   UNIT     CODE           ?PR?SL_SC7A21_BOOT_RESET?SL_SC7A21_DRIVER
000F8AH   000FE1H   000058H   BYTE   UNIT     CODE           ?PR?_SL_SC7A21_ONLINE_TEST?SL_SC7A21_DRIVER
000FE2H   000FF3H   000012H   BYTE   UNIT     CODE           ?PR?READ_STEP_COUNTER?SC7A21
000FF4H   001020H   00002DH   BYTE   UNIT     CODE           ?PR?CLEAN_STEP_COUNTER?SC7A21
001021H   00109DH   00007DH   BYTE   UNIT     CODE           ?PR?_INITIALUART0_TIMER3?UART
00109EH   0010A5H   000008H   BYTE   UNIT     CODE           ?PR?RECEIVE_DATA_FROM_UART0?UART
0010A6H   0010ADH   000008H   BYTE   UNIT     CODE           ?PR?_SEND_DATA_TO_UART0?UART
0010AEH   0010D9H   00002CH   BYTE   UNIT     CODE           ?PR?_UARTSENDBUF?UART
0010DAH   00121BH   000142H   BYTE   UNIT     CODE           ?PR?_ANO_DT_SEND_VERSION?UART
00121CH   001231H   000016H   BYTE   UNIT     CODE           ?PR?_SEND_WORD_TO_UART0?UART
001232H   001298H   000067H   BYTE   UNIT     CODE           ?PR?_INITIALUART1_TIMER3?UART
001299H   0012A0H   000008H   BYTE   UNIT     CODE           ?PR?_SEND_DATA_TO_UART1?UART
0012A1H   0012B6H   000016H   BYTE   UNIT     CODE           ?PR?_SEND_WORD_TO_UART1?UART
0012B7H   001449H   000193H   BYTE   UNIT     CODE           ?PR?SCAN_LED?WORK
00144AH   0014A5H   00005CH   BYTE   UNIT     CODE           ?PR?_SL_SC7A21_FS_CONFIG?SL_SC7A21_DRIVER
0014A6H   001544H   00009FH   BYTE   UNIT     CODE           ?PR?SL_SC7A21_INIT?SL_SC7A21_APPLICATION
001545H   001565H   000021H   BYTE   UNIT     CODE           ?PR?_SL_SC7A21_SLEEP_CONFIG?SL_SC7A21_DRIVER
001566H   001599H   000034H   BYTE   UNIT     CODE           ?PR?_SL_SC7A21_INT_CONFIG?SL_SC7A21_DRIVER
00159AH   00161AH   000081H   BYTE   UNIT     CODE           ?PR?_SL_SC7A21_WRIST_CONFIG?SL_SC7A21_DRIVER
00161BH   0016E0H   0000C6H   BYTE   UNIT     CODE           ?PR?_SL_SC7A21_POWER_CONFIG?SL_SC7A21_DRIVER
0016E1H   001784H   0000A4H   BYTE   UNIT     CODE           ?PR?_SL_SC7A21_READ_XYZ_DATA?SL_SC7A21_DRIVER
001785H   00189CH   000118H   BYTE   UNIT     CODE           ?PR?_SL_SC7A21_READ_XYZ_FIFO_DATA?SL_SC7A21_DRIVER
00189DH   0018FEH   000062H   BYTE   UNIT     CODE           ?PR?SL_SC7A21_GET_PEDO_COUNT?SL_SC7A21_DRIVER
0018FFH   00195CH   00005EH   BYTE   UNIT     CODE           ?PR?SL_SC7A21_GET_PEDO_VALUE?SL_SC7A21_APPLICATION
00195DH   0019C6H   00006AH   BYTE   UNIT     CODE           ?PR?SL_SC7A21_GET_SLEEP_VALUE?SL_SC7A21_APPLICATION
0019C7H   0019E3H   00001DH   BYTE   UNIT     CODE           ?PR?SL_SC7A21_GET_SLEEP_STATUS?SL_SC7A21_DRIVER
0019E4H   001A57H   000074H   BYTE   UNIT     CODE           ?PR?SL_SC7A21_GET_WRIST_STATUS?SL_SC7A21_DRIVER
001A58H   001A5FH   000008H   BYTE   UNIT     CODE           ?PR?SL_SC7A21_WRIST_INT12_SERVICE_FUNCTION?SL_SC7A21_APPLI
                                                             -CATION

LX51 LINKER/LOCATER V4.66.1.0                                                         10/19/2019  14:09:51  PAGE 4


* * * * * * * * * * *  X D A T A   M E M O R Y  * * * * * * * * * * * * *
000000H   0000C0H   0000C1H   BYTE   UNIT     XDATA          ?XD?SL_SC7A21_GET_PEDO_VALUE?SL_SC7A21_APPLICATION
0000C1H   000100H   000040H   BYTE   UNIT     XDATA          ?XD?SC7A21
000101H   000132H   000032H   BYTE   UNIT     XDATA          ?XD?UART
000133H   00014EH   00001CH   BYTE   UNIT     XDATA          ?XD?WORK
00014FH   00015FH   000011H   BYTE   UNIT     XDATA          ?XD?_SL_SC7A21_READ_XYZ_FIFO_DATA?SL_SC7A21_DRIVER
000160H   00016FH   000010H   BYTE   UNIT     XDATA          ?XD?SYSTEM
000170H   00017FH   000010H   BYTE   UNIT     XDATA          _XDATA_GROUP_
000180H   00018EH   00000FH   BYTE   UNIT     XDATA          ?XD?SL_SC7A21_INIT?SL_SC7A21_APPLICATION
00018FH   000199H   00000BH   BYTE   UNIT     XDATA          ?XD?_ANO_DT_SEND_VERSION?UART
00019AH   0001A3H   00000AH   BYTE   UNIT     XDATA          ?XD?SL_SC7A21_APPLICATION
0001A4H   0001ACH   000009H   BYTE   UNIT     XDATA          ?XD?_SL_SC7A21_READ_XYZ_DATA?SL_SC7A21_DRIVER
0001ADH   0001B3H   000007H   BYTE   UNIT     XDATA          ?XD?_EEPROM_READ_BLOCK?EEPROM
0001B4H   0001BAH   000007H   BYTE   UNIT     XDATA          ?XD?_EEPROM_WRITE_BLOCK?EEPROM
0001BBH   0001C1H   000007H   BYTE   UNIT     XDATA          ?XD?_I2CS_RX_DATA?I2C_SOFTWARE
0001C2H   0001C7H   000006H   BYTE   UNIT     XDATA          ?XD?_READROM?EEPROM
0001C8H   0001CDH   000006H   BYTE   UNIT     XDATA          ?XD?_EEPROM_CHECKSUM?EEPROM
0001CEH   0001D3H   000006H   BYTE   UNIT     XDATA          ?XD?_SL_SC7A21_I2C_SPI_READ?I2C_SOFTWARE
0001D4H   0001D8H   000005H   BYTE   UNIT     XDATA          ?XD?ADC
0001D9H   0001DDH   000005H   BYTE   UNIT     XDATA          ?XD?_WRITEROM?EEPROM
0001DEH   0001E1H   000004H   BYTE   UNIT     XDATA          ?XD?_WRITEDATA_ISP?EEPROM
0001E2H   0001E5H   000004H   BYTE   UNIT     XDATA          ?XD?_INITIALUART0_TIMER3?UART
0001E6H   0001E9H   000004H   BYTE   UNIT     XDATA          ?XD?_INITIALUART1_TIMER3?UART
0001EAH   0001EDH   000004H   BYTE   UNIT     XDATA          ?XD?_SL_SC7A21_POWER_CONFIG?SL_SC7A21_DRIVER
0001EEH   0001F1H   000004H   BYTE   UNIT     XDATA          ?XD?_SL_SC7A21_FIFO_CONFIG?SL_SC7A21_DRIVER
0001F2H   0001F5H   000004H   BYTE   UNIT     XDATA          ?XD?_SL_SC7A21_PEDO_CONFIG?SL_SC7A21_DRIVER
0001F6H   0001F9H   000004H   BYTE   UNIT     XDATA          ?XD?_SL_SC7A21_SLEEP_CONFIG?SL_SC7A21_DRIVER
0001FAH   0001FDH   000004H   BYTE   UNIT     XDATA          ?XD?SL_SC7A21_DRIVER
0001FEH   000200H   000003H   BYTE   UNIT     XDATA          ?XD?_UARTSENDBUF?UART
000201H   000203H   000003H   BYTE   UNIT     XDATA          ?XD?_SL_SC7A21_FS_CONFIG?SL_SC7A21_DRIVER
000204H   000206H   000003H   BYTE   UNIT     XDATA          ?XD?_SL_SC7A21_WRIST_CONFIG?SL_SC7A21_DRIVER
000207H   000209H   000003H   BYTE   UNIT     XDATA          ?XD?SL_SC7A21_GET_PEDO_COUNT?SL_SC7A21_DRIVER
00020AH   00020BH   000002H   BYTE   UNIT     XDATA          ?XD?EEPROM_RESTORE_REGISTERS?EEPROM
00020CH   00020DH   000002H   BYTE   UNIT     XDATA          ?XD?EEPROM_SAVE_REGISTERS?EEPROM
00020EH   00020FH   000002H   BYTE   UNIT     XDATA          ?XD?_SL_SC7A21_ONLINE_TEST?SL_SC7A21_DRIVER
000210H   000211H   000002H   BYTE   UNIT     XDATA          ?XD?_SL_SC7A21_INT_CONFIG?SL_SC7A21_DRIVER
000212H   000212H   000001H   BYTE   UNIT     XDATA          ?XD?_SL_SC7A21_I2C_SPI_WRITE?I2C_SOFTWARE
000213H   000213H   000001H   BYTE   UNIT     XDATA          ?XD?CLEAN_STEP_COUNTER?SC7A21
000214H   000214H   000001H   BYTE   UNIT     XDATA          ?XD?SL_SC7A21_BOOT_RESET?SL_SC7A21_DRIVER
000215H   000215H   000001H   BYTE   UNIT     XDATA          ?XD?SL_SC7A21_PEDO_RESET?SL_SC7A21_DRIVER
000216H   000216H   000001H   BYTE   UNIT     XDATA          ?XD?SL_SC7A21_GET_WRIST_STATUS?SL_SC7A21_DRIVER
000217H   000217H   000001H   BYTE   UNIT     XDATA          ?XD?SL_SC7A21_GET_SLEEP_STATUS?SL_SC7A21_DRIVER



OVERLAY MAP OF MODULE:   ..\Output\LED_12T (?C_STARTUP)


FUNCTION/MODULE                               XDATA_GROUP
--> CALLED FUNCTION/MODULE                    START  STOP
=========================================================
?C_C51STARTUP                                 ----- -----
  +--> MAIN/MAIN
  +--> ?C_INITSEG

MAIN/MAIN                                     ----- -----
  +--> INITSYSTEM/SYSTEM

INITSYSTEM/SYSTEM                             0170H 0173H
  +--> INIT_IO/SYSTEM
  +--> INIT_SC7A21/SC7A21
  +--> INIT_EXT_IO_INTERRUPT/SYSTEM
  +--> INIT_WKT/SYSTEM
  +--> SET_SYSTEM_FRE_10K/SYSTEM

LX51 LINKER/LOCATER V4.66.1.0                                                         10/19/2019  14:09:51  PAGE 5


INIT_IO/SYSTEM                                ----- -----

INIT_SC7A21/SC7A21                            0174H 0175H
  +--> ?CO?SC7A21
  +--> _I2CS_TX_DATA/I2C_SOFTWARE

?CO?SC7A21                                    ----- -----

_I2CS_TX_DATA/I2C_SOFTWARE                    0176H 017DH
  +--> I2CS_START/I2C_SOFTWARE
  +--> _I2CS_TX_BYTE/I2C_SOFTWARE
  +--> I2CS_STOP/I2C_SOFTWARE

I2CS_START/I2C_SOFTWARE                       ----- -----
  +--> _DELAY/I2C_SOFTWARE

_DELAY/I2C_SOFTWARE                           ----- -----

_I2CS_TX_BYTE/I2C_SOFTWARE                    ----- -----

I2CS_STOP/I2C_SOFTWARE                        ----- -----
  +--> _DELAY/I2C_SOFTWARE

INIT_EXT_IO_INTERRUPT/SYSTEM                  ----- -----

INIT_WKT/SYSTEM                               ----- -----

SET_SYSTEM_FRE_10K/SYSTEM                     ----- -----

?C_INITSEG                                    ----- -----

*** NEW ROOT ********************************

TIMER0_ISR/SYSTEM                             ----- -----
  +--> SYSTICK_HANDLER/SYSTEM

SYSTICK_HANDLER/SYSTEM                        ----- -----
  +--> SYSTICK_HANDLER2/SYSTEM

SYSTICK_HANDLER2/SYSTEM                       ----- -----

*** NEW ROOT ********************************

EXT1_ISR/SYSTEM                               ----- -----

*** NEW ROOT ********************************

TIMER1_ISR/SYSTEM                             ----- -----

*** NEW ROOT ********************************

TIMER2_ISR/SYSTEM                             ----- -----

*** NEW ROOT ********************************

EXT_IO_ISR/SYSTEM                             ----- -----
  +--> ADC_INIT/ADC
  +--> _ADC_READ/ADC

ADC_INIT/ADC                                  ----- -----

_ADC_READ/ADC                                 ----- -----

*** NEW ROOT ********************************

LX51 LINKER/LOCATER V4.66.1.0                                                         10/19/2019  14:09:51  PAGE 6


WKT_ISR/SYSTEM                                ----- -----
  +--> SCAN_LED/WORK

SCAN_LED/WORK                                 ----- -----

*** NEW ROOT ********************************

ADC_ISR/ADC                                   017EH 017FH



PUBLIC SYMBOLS OF MODULE:  ..\Output\LED_12T (?C_STARTUP)


      VALUE       CLASS    TYPE      PUBLIC SYMBOL NAME
      =================================================
      0200018FH   XDATA    BYTE      ?_ANO_DT_Send_Version?BYTE
      020001ADH   XDATA    BYTE      ?_eeprom_read_block?BYTE
      020001B4H   XDATA    BYTE      ?_eeprom_write_block?BYTE
      020001BBH   XDATA    BYTE      ?_i2cs_rx_data?BYTE
      02000176H   XDATA    BYTE      ?_i2cs_tx_data?BYTE
      020001CEH   XDATA    BYTE      ?_SL_SC7A21_I2c_Spi_Read?BYTE
      0200014FH   XDATA    BYTE      ?_SL_SC7A21_Read_XYZ_FIFO_Data?BYTE
      0100019CH   CODE     ---       ?C?CLDOPTR
      01000183H   CODE     ---       ?C?CLDPTR
      00000000H   NUMBER   ---       ?C?CODESEG
      0100015DH   CODE     ---       ?C?COPY
      010001DBH   CODE     ---       ?C?CSTOPTR
      010001C9H   CODE     ---       ?C?CSTPTR
      010001FDH   CODE     ---       ?C?ILDIX
      01000213H   CODE     ---       ?C?ILDOPTR
      0100026AH   CODE     ---       ?C?ISTOPTR
      0100024BH   CODE     ---       ?C?ISTPTR
      01000384H   CODE     ---       ?C?LIMUL
      01000378H   CODE     ---       ?C?LSTXDATA
      010002D3H   CODE     ---       ?C?ULDIV
      01000365H   CODE     ---       ?C?ULSHR
      00000000H   NUMBER   ---       ?C?XDATASEG
      01000406H   CODE     ---       ?C_START
      01000000H   CODE     ---       ?C_STARTUP
      0100068BH   CODE     ---       _ADC_Read
      010010DAH   CODE     ---       _ANO_DT_Send_Version
      01000B80H   CODE     ---       _delay
      01000B02H   CODE     ---       _eeprom_read_block
      01000AA6H   CODE     ---       _eeprom_write_block
      010008D8H   CODE     ---       _ERASE
      01000CE6H   CODE     ---       _i2cs_rx_byte
      01000C0DH   CODE     ---       _i2cs_rx_data
      01000C9AH   CODE     ---       _i2cs_tx_byte
      01000B98H   CODE     ---       _i2cs_tx_data
      01001021H   CODE     ---       _InitialUART0_Timer3
      01001232H   CODE     ---       _InitialUART1_Timer3
      01000A5CH   CODE     ---       _Read_APROM_BYTE
      01000A3AH   CODE     ---       _ReadDATA_ISP
      010009C8H   CODE     ---       _readrom
      010010A6H   CODE     ---       _Send_Data_To_UART0
      01001299H   CODE     ---       _Send_Data_To_UART1
      0100121CH   CODE     ---       _Send_Word_To_UART0
      010012A1H   CODE     ---       _Send_Word_To_UART1
      01000D47H   CODE     ---       _SL_SC7A21_FIFO_Config
      0100144AH   CODE     ---       _SL_SC7A21_FS_Config
      01000E49H   CODE     ---       _SL_SC7A21_I2c_Spi_Read
      01000D2CH   CODE     ---       _SL_SC7A21_I2c_Spi_Write
      01001566H   CODE     ---       _SL_SC7A21_INT_Config
      01000F8AH   CODE     ---       _SL_SC7A21_Online_Test
LX51 LINKER/LOCATER V4.66.1.0                                                         10/19/2019  14:09:51  PAGE 7


      01000E65H   CODE     ---       _SL_SC7A21_Pedo_Config
      0100161BH   CODE     ---       _SL_SC7A21_Power_Config
      010016E1H   CODE     ---       _SL_SC7A21_Read_XYZ_Data
      01001785H   CODE     ---       _SL_SC7A21_Read_XYZ_FIFO_Data
      01001545H   CODE     ---       _SL_SC7A21_Sleep_Config
      0100159AH   CODE     ---       _SL_SC7A21_Wrist_Config
      010010AEH   CODE     ---       _UartSendBuf
      010008F6H   CODE     ---       _Write_ISP
      01000928H   CODE     ---       _WriteDATA_ISP
      01000952H   CODE     ---       _writerom
*SFR* 000000C0H.2 DATA     BIT       AA
*SFR* 000000D0H.6 DATA     BIT       AC
*SFR* 000000E0H   DATA     BYTE      ACC
      0100087DH   CODE     ---       ADC_GO
      0100004BH   CODE     ---       adc_init
      01000885H   CODE     ---       ADC_ISR
      020001D8H   XDATA    BYTE      adc_position_ready
      020001D4H   XDATA    WORD      adc_position_value
      020001D6H   XDATA    WORD      adc_seek_position_value
      02000166H   XDATA    WORD      ADC_VAL
*SFR* 000000E8H   DATA     BYTE      ADCCON0
*SFR* 000000E1H   DATA     BYTE      ADCCON1
*SFR* 000000E2H   DATA     BYTE      ADCCON2
*SFR* 000000E3H   DATA     BYTE      ADCDLY
*SFR* 000000E8H.7 DATA     BIT       ADCF
*SFR* 000000E8H   DATA     BIT       ADCHS0
*SFR* 000000E8H.1 DATA     BIT       ADCHS1
*SFR* 000000E8H.2 DATA     BIT       ADCHS2
*SFR* 000000E8H.3 DATA     BIT       ADCHS3
*SFR* 000000CFH   DATA     BYTE      ADCMPH
*SFR* 000000CEH   DATA     BYTE      ADCMPL
*SFR* 000000C3H   DATA     BYTE      ADCRH
*SFR* 000000C2H   DATA     BYTE      ADCRL
*SFR* 000000E8H.6 DATA     BIT       ADCS
*SFR* 000000F6H   DATA     BYTE      AINDIDS
*SFR* 000000A2H   DATA     BYTE      AUXR1
*SFR* 000000F0H   DATA     BYTE      B
      00000020H.0 BIT      BIT       BIT_TMP
*SFR* 000000A3H   DATA     BYTE      BODCON0
*SFR* 000000ABH   DATA     BYTE      BODCON1
*SFR* 000000E5H   DATA     BYTE      C0H
*SFR* 000000E4H   DATA     BYTE      C0L
*SFR* 000000E7H   DATA     BYTE      C1H
*SFR* 000000E6H   DATA     BYTE      C1L
*SFR* 000000EEH   DATA     BYTE      C2H
*SFR* 000000EDH   DATA     BYTE      C2L
*SFR* 00000092H   DATA     BYTE      CAPCON0
*SFR* 00000093H   DATA     BYTE      CAPCON1
*SFR* 00000094H   DATA     BYTE      CAPCON2
*SFR* 000000F1H   DATA     BYTE      CAPCON3
*SFR* 000000F2H   DATA     BYTE      CAPCON4
*SFR* 0000009FH   DATA     BYTE      CHPCON
*SFR* 0000008EH   DATA     BYTE      CKCON
*SFR* 00000095H   DATA     BYTE      CKDIV
*SFR* 00000097H   DATA     BYTE      CKEN
*SFR* 00000096H   DATA     BYTE      CKSWT
      01000FF4H   CODE     ---       Clean_STEP_COUNTER
*SFR* 000000D8H.4 DATA     BIT       CLRPWM
*SFR* 000000C8H   DATA     BIT       CM_RL2
*SFR* 000000D0H.7 DATA     BIT       CY
      02000101H   XDATA    ---       data_to_send
      02000168H   XDATA    WORD      DelaymS
*SFR* 00000083H   DATA     BYTE      DPH
*SFR* 00000082H   DATA     BYTE      DPL
*SFR* 000000A8H.7 DATA     BIT       EA
LX51 LINKER/LOCATER V4.66.1.0                                                         10/19/2019  14:09:51  PAGE 8


*SFR* 000000A8H.6 DATA     BIT       EADC
*SFR* 000000A8H.5 DATA     BIT       EBOD
      02000137H   XDATA    ---       EEPROM_DATA
      010009ABH   CODE     ---       eeprom_erase
      01000A64H   CODE     ---       eeprom_restore_registers
      01000A86H   CODE     ---       eeprom_save_registers
*SFR* 0000009BH   DATA     BYTE      EIE
*SFR* 0000009CH   DATA     BYTE      EIE1
*SFR* 000000EFH   DATA     BYTE      EIP
*SFR* 000000FEH   DATA     BYTE      EIP1
*SFR* 000000F7H   DATA     BYTE      EIPH
*SFR* 000000FFH   DATA     BYTE      EIPH1
*SFR* 000000A8H.4 DATA     BIT       ES
*SFR* 000000A8H.1 DATA     BIT       ET0
*SFR* 000000A8H.3 DATA     BIT       ET1
*SFR* 000000E8H.4 DATA     BIT       ETGSEL0
*SFR* 000000E8H.5 DATA     BIT       ETGSEL1
*SFR* 000000A8H   DATA     BIT       EX0
*SFR* 000000A8H.2 DATA     BIT       EX1
      01000003H   CODE     ---       EXT1_ISR
      010005B9H   CODE     ---       EXT_IO_ISR
*SFR* 000000D0H.5 DATA     BIT       F0
*SFR* 000000D7H   DATA     BYTE      FBD
*SFR* 00000098H.7 DATA     BIT       FE
*SFR* 000000F8H.7 DATA     BIT       FE_1
      0200016AH   XDATA    ---       gTimer
*SFR* 000000C1H   DATA     BYTE      I2ADDR
*SFR* 000000C0H.6 DATA     BIT       I2CEN
*SFR* 000000BEH   DATA     BYTE      I2CLK
*SFR* 000000C0H   DATA     BYTE      I2CON
*SFR* 000000C0H   DATA     BIT       I2CPX
      01000007H   CODE     ---       i2cs_init
      01000CD1H   CODE     ---       i2cs_start
      01000B8BH   CODE     ---       i2cs_stop
*SFR* 000000BCH   DATA     BYTE      I2DAT
*SFR* 000000BDH   DATA     BYTE      I2STAT
*SFR* 000000BFH   DATA     BYTE      I2TOC
*SFR* 000000A7H   DATA     BYTE      IAPAH
*SFR* 000000A6H   DATA     BYTE      IAPAL
*SFR* 000000AFH   DATA     BYTE      IAPCN
*SFR* 000000AEH   DATA     BYTE      IAPFD
*SFR* 000000A4H   DATA     BYTE      IAPTRG
*SFR* 000000A5H   DATA     BYTE      IAPUEN
*SFR* 000000A8H   DATA     BYTE      IE
*SFR* 00000088H.1 DATA     BIT       IE0
*SFR* 00000088H.3 DATA     BIT       IE1
      010007D3H   CODE     ---       Init_EXT_IO_Interrupt
      010006D4H   CODE     ---       Init_IO
      0100077CH   CODE     ---       INIT_SC7A21
      010007C7H   CODE     ---       Init_WKT
      010006F1H   CODE     ---       InitSystem
*SFR* 000000B0H   DATA     BIT       INT0
*SFR* 000000B8H   DATA     BYTE      IP
*SFR* 000000B7H   DATA     BYTE      IPH
      010008C5H   CODE     ---       ISP_DIS
      01000915H   CODE     ---       ISP_OPEN
*SFR* 00000088H   DATA     BIT       IT0
*SFR* 00000088H.2 DATA     BIT       IT1
      0200014BH   XDATA    BYTE      LED_Bri
      0200014DH   XDATA    BYTE      LED_CLOSE_T
      02000136H   XDATA    BYTE      LED_Count
      0200014EH   XDATA    BYTE      LED_Count2
      02000135H   XDATA    BYTE      LED_Cycle
      02000134H   XDATA    BYTE      LED_OPEN_T
      0200014CH   XDATA    BYTE      LED_OPEN_Time
LX51 LINKER/LOCATER V4.66.1.0                                                         10/19/2019  14:09:51  PAGE 9


      00000020H.1 BIT      BIT       LED_State
      02000160H   XDATA    WORD      Light_Val
*SFR* 000000D8H.6 DATA     BIT       LOAD
      01000852H   CODE     ---       main
*SFR* 000000D0H.2 DATA     BIT       OV
*SFR* 000000D0H   DATA     BIT       P
*SFR* 00000080H   DATA     BYTE      P0
*SFR* 00000080H   DATA     BIT       P00
*SFR* 00000080H.1 DATA     BIT       P01
*SFR* 00000080H.2 DATA     BIT       P02
*SFR* 00000080H.3 DATA     BIT       P03
*SFR* 00000080H.4 DATA     BIT       P04
*SFR* 00000080H.5 DATA     BIT       P05
*SFR* 00000080H.6 DATA     BIT       P06
*SFR* 00000080H.7 DATA     BIT       P07
*SFR* 000000B1H   DATA     BYTE      P0M1
*SFR* 000000B2H   DATA     BYTE      P0M2
*SFR* 000000B1H   DATA     BYTE      P0S
*SFR* 000000B2H   DATA     BYTE      P0SR
*SFR* 00000090H   DATA     BYTE      P1
*SFR* 00000090H   DATA     BIT       P10
*SFR* 00000090H.1 DATA     BIT       P11
*SFR* 00000090H.2 DATA     BIT       P12
*SFR* 00000090H.3 DATA     BIT       P13
*SFR* 00000090H.4 DATA     BIT       P14
*SFR* 00000090H.5 DATA     BIT       P15
*SFR* 00000090H.6 DATA     BIT       P16
*SFR* 00000090H.7 DATA     BIT       P17
*SFR* 000000B3H   DATA     BYTE      P1M1
*SFR* 000000B4H   DATA     BYTE      P1M2
*SFR* 000000B3H   DATA     BYTE      P1S
*SFR* 000000B4H   DATA     BYTE      P1SR
*SFR* 000000A0H   DATA     BYTE      P2
*SFR* 000000A0H   DATA     BIT       P20
*SFR* 000000B5H   DATA     BYTE      P2S
*SFR* 000000B0H   DATA     BYTE      P3
*SFR* 000000B0H   DATA     BIT       P30
*SFR* 000000ACH   DATA     BYTE      P3M1
*SFR* 000000ADH   DATA     BYTE      P3M2
*SFR* 000000ACH   DATA     BYTE      P3S
*SFR* 000000ADH   DATA     BYTE      P3SR
*SFR* 000000B8H.6 DATA     BIT       PADC
      010009BEH   CODE     ---       ParameterReset
*SFR* 000000B8H.5 DATA     BIT       PBOD
*SFR* 00000087H   DATA     BYTE      PCON
*SFR* 000000FAH   DATA     BYTE      PDTCNT
*SFR* 000000F9H   DATA     BYTE      PDTEN
*SFR* 000000E9H   DATA     BYTE      PICON
*SFR* 000000ECH   DATA     BYTE      PIF
*SFR* 000000EAH   DATA     BYTE      PINEN
*SFR* 000000DEH   DATA     BYTE      PIOCON0
*SFR* 000000C6H   DATA     BYTE      PIOCON1
*SFR* 000000EBH   DATA     BYTE      PIPEN
*SFR* 000000FCH   DATA     BYTE      PMD
*SFR* 000000FBH   DATA     BYTE      PMEN
*SFR* 000000D6H   DATA     BYTE      PNP
*SFR* 000000B8H.4 DATA     BIT       PS
*SFR* 000000D0H   DATA     BYTE      PSW
*SFR* 000000B8H.1 DATA     BIT       PT0
*SFR* 000000B8H.3 DATA     BIT       PT1
*SFR* 000000D2H   DATA     BYTE      PWM0H
*SFR* 000000DAH   DATA     BYTE      PWM0L
*SFR* 000000D3H   DATA     BYTE      PWM1H
*SFR* 000000DBH   DATA     BYTE      PWM1L
*SFR* 000000D4H   DATA     BYTE      PWM2H
LX51 LINKER/LOCATER V4.66.1.0                                                         10/19/2019  14:09:51  PAGE 10


*SFR* 000000DCH   DATA     BYTE      PWM2L
*SFR* 000000D5H   DATA     BYTE      PWM3H
*SFR* 000000DDH   DATA     BYTE      PWM3L
*SFR* 000000C4H   DATA     BYTE      PWM4H
*SFR* 000000CCH   DATA     BYTE      PWM4L
*SFR* 000000C5H   DATA     BYTE      PWM5H
*SFR* 000000CDH   DATA     BYTE      PWM5L
*SFR* 000000D8H   DATA     BYTE      PWMCON0
*SFR* 000000DFH   DATA     BYTE      PWMCON1
*SFR* 000000D8H.5 DATA     BIT       PWMF
*SFR* 000000B7H   DATA     BYTE      PWMINTC
*SFR* 000000D1H   DATA     BYTE      PWMPH
*SFR* 000000D9H   DATA     BYTE      PWMPL
*SFR* 000000D8H.7 DATA     BIT       PWMRUN
*SFR* 000000B8H   DATA     BIT       PX0
*SFR* 000000B8H.2 DATA     BIT       PX1
*SFR* 00000098H.2 DATA     BIT       RB8
*SFR* 000000F8H.2 DATA     BIT       RB8_1
*SFR* 000000CBH   DATA     BYTE      RCMP2H
*SFR* 000000CAH   DATA     BYTE      RCMP2L
      01000FE2H   CODE     ---       Read_STEP_COUNTER
      01000008H   CODE     ---       ReadEeprom
      0100109EH   CODE     ---       Receive_Data_From_UART0
      010004B2H   CONST    ---       Reg
*SFR* 00000098H.4 DATA     BIT       REN
*SFR* 000000F8H.4 DATA     BIT       REN_1
*SFR* 000000C6H   DATA     BYTE      RH3
*SFR* 00000098H   DATA     BIT       RI
*SFR* 000000F8H   DATA     BIT       RI_1
*SFR* 000000C5H   DATA     BYTE      RL3
*SFR* 000000D0H.3 DATA     BIT       RS0
*SFR* 000000D0H.4 DATA     BIT       RS1
*SFR* 00000086H   DATA     BYTE      RWK
      020000E1H   XDATA    ---       Rx_buf
*SFR* 000000A9H   DATA     BYTE      SADDR
*SFR* 000000BBH   DATA     BYTE      SADDR_1
*SFR* 000000B9H   DATA     BYTE      SADEN
*SFR* 000000BAH   DATA     BYTE      SADEN_1
*SFR* 00000099H   DATA     BYTE      SBUF
*SFR* 0000009AH   DATA     BYTE      SBUF_1
      010012B7H   CODE     ---       Scan_LED
*SFR* 00000090H.3 DATA     BIT       SCL
*SFR* 00000098H   DATA     BYTE      SCON
*SFR* 000000F8H   DATA     BYTE      SCON_1
*SFR* 00000090H.4 DATA     BIT       SDA
      01000709H   CODE     ---       Set_System_Fre_10K
      010007DFH   CODE     ---       Set_System_Fre_16M
*SFR* 00000091H   DATA     BYTE      SFRS
*SFR* 000000C0H.3 DATA     BIT       SI
      01000F37H   CODE     ---       SL_SC7A21_BOOT_RESET
      0100189DH   CODE     ---       SL_SC7A21_Get_Pedo_Count
      010018FFH   CODE     ---       SL_SC7A21_GET_PEDO_VALUE
      010019C7H   CODE     ---       SL_SC7A21_Get_Sleep_Status
      0100195DH   CODE     ---       SL_SC7A21_GET_SLEEP_VALUE
      010019E4H   CODE     ---       SL_SC7A21_Get_Wrist_Status
      010014A6H   CODE     ---       SL_SC7A21_INIT
      01000F0AH   CODE     ---       SL_SC7A21_Pedo_Reset
      01001A58H   CODE     ---       SL_SC7A21_WRIST_INT12_SERVICE_FUNCTION
*SFR* 00000098H.7 DATA     BIT       SM0
*SFR* 000000F8H.7 DATA     BIT       SM0_1
*SFR* 00000098H.6 DATA     BIT       SM1
*SFR* 000000F8H.6 DATA     BIT       SM1_1
*SFR* 00000098H.5 DATA     BIT       SM2
*SFR* 000000F8H.5 DATA     BIT       SM2_1
*SFR* 00000081H   DATA     BYTE      SP
LX51 LINKER/LOCATER V4.66.1.0                                                         10/19/2019  14:09:51  PAGE 11


*SFR* 000000F3H   DATA     BYTE      SPCR
*SFR* 000000F3H   DATA     BYTE      SPCR2
*SFR* 000000F5H   DATA     BYTE      SPDR
*SFR* 000000F4H   DATA     BYTE      SPSR
*SFR* 000000C0H.5 DATA     BIT       STA
*SFR* 000000C0H.4 DATA     BIT       STO
      0200016EH   XDATA    WORD      System_Timer
      01000520H   CODE     ---       SysTick_Handler
      010004ECH   CODE     ---       SysTick_Handler2
      0100003DH   CODE     ---       SysTimer_Process
*SFR* 000000C8H   DATA     BYTE      T2CON
*SFR* 000000C9H   DATA     BYTE      T2MOD
*SFR* 000000C4H   DATA     BYTE      T3CON
*SFR* 000000C7H   DATA     BYTE      TA
*SFR* 00000098H.3 DATA     BIT       TB8
*SFR* 000000F8H.3 DATA     BIT       TB8_1
*SFR* 00000088H   DATA     BYTE      TCON
*SFR* 00000088H.5 DATA     BIT       TF0
*SFR* 00000088H.7 DATA     BIT       TF1
*SFR* 000000C8H.7 DATA     BIT       TF2
*SFR* 0000008CH   DATA     BYTE      TH0
*SFR* 0000008DH   DATA     BYTE      TH1
*SFR* 000000CDH   DATA     BYTE      TH2
*SFR* 00000098H.1 DATA     BIT       TI
*SFR* 000000F8H.1 DATA     BIT       TI_1
      0100058CH   CODE     ---       Timer0_ISR
      0100005EH   CODE     ---       Timer0Init
      0100002DH   CODE     ---       Timer1_ISR
      01000074H   CODE     ---       Timer1Init
      01000004H   CODE     ---       Timer2_ISR
      02000162H   XDATA    DWORD     Timer_1s
*SFR* 0000008AH   DATA     BYTE      TL0
*SFR* 0000008BH   DATA     BYTE      TL1
*SFR* 000000CCH   DATA     BYTE      TL2
*SFR* 00000089H   DATA     BYTE      TMOD
*SFR* 00000088H.4 DATA     BIT       TR0
*SFR* 00000088H.6 DATA     BIT       TR1
*SFR* 000000C8H.2 DATA     BIT       TR2
      020000C1H   XDATA    ---       TX_buf
*SFR* 000000AAH   DATA     BYTE      WDCON
*SFR* 0000008FH   DATA     BYTE      WKCON
      01000648H   CODE     ---       WKT_ISR
      010009B4H   CODE     ---       WriteEeprom



SYMBOL TABLE OF MODULE:  ..\Output\LED_12T (?C_STARTUP)

      VALUE       REP       CLASS    TYPE      SYMBOL NAME
      ====================================================
      ---         MODULE    ---      ---       ?C_STARTUP
      01000000H   PUBLIC    CODE     ---       ?C_STARTUP
      000000E0H   SYMBOL    DATA     ---       ACC
      000000F0H   SYMBOL    DATA     ---       B
      00000083H   SYMBOL    DATA     ---       DPH
      00000082H   SYMBOL    DATA     ---       DPL
      00000000H   SYMBOL    NUMBER   ---       IBPSTACK
      00000100H   SYMBOL    NUMBER   ---       IBPSTACKTOP
      00000080H   SYMBOL    NUMBER   ---       IDATALEN
      010003B4H   SYMBOL    CODE     ---       IDATALOOP
      00000000H   SYMBOL    NUMBER   ---       PBPSTACK
      00000000H   SYMBOL    NUMBER   ---       PBPSTACKTOP
      00000000H   SYMBOL    NUMBER   ---       PDATALEN
      00000000H   SYMBOL    NUMBER   ---       PDATASTART
      00000000H   SYMBOL    NUMBER   ---       PPAGE
LX51 LINKER/LOCATER V4.66.1.0                                                         10/19/2019  14:09:51  PAGE 12


      00000000H   SYMBOL    NUMBER   ---       PPAGEENABLE
      000000A0H   SYMBOL    DATA     ---       PPAGE_SFR
      00000081H   SYMBOL    DATA     ---       SP
      010003B1H   SYMBOL    CODE     ---       STARTUP1
      00000000H   SYMBOL    NUMBER   ---       XBPSTACK
      00000000H   SYMBOL    NUMBER   ---       XBPSTACKTOP
      000002FFH   SYMBOL    NUMBER   ---       XDATALEN
      010003BFH   SYMBOL    CODE     ---       XDATALOOP
      00000000H   SYMBOL    NUMBER   ---       XDATASTART
      01000000H   LINE      CODE     ---       #92
      010003B1H   LINE      CODE     ---       #99
      010003B3H   LINE      CODE     ---       #100
      010003B4H   LINE      CODE     ---       #101
      010003B5H   LINE      CODE     ---       #102
      010003B7H   LINE      CODE     ---       #106
      010003BAH   LINE      CODE     ---       #107
      010003BCH   LINE      CODE     ---       #109
      010003BEH   LINE      CODE     ---       #113
      010003BFH   LINE      CODE     ---       #114
      010003C0H   LINE      CODE     ---       #115
      010003C1H   LINE      CODE     ---       #116
      010003C3H   LINE      CODE     ---       #117
      010003C5H   LINE      CODE     ---       #151
      010003C8H   LINE      CODE     ---       #155

      ---         MODULE    ---      ---       SYSTEM
      0200016EH   PUBLIC    XDATA    WORD      System_Timer
      0200016AH   PUBLIC    XDATA    ---       gTimer
      02000168H   PUBLIC    XDATA    WORD      DelaymS
      00000020H.0 PUBLIC    BIT      BIT       BIT_TMP
      02000166H   PUBLIC    XDATA    WORD      ADC_VAL
      02000162H   PUBLIC    XDATA    DWORD     Timer_1s
      02000160H   PUBLIC    XDATA    WORD      Light_Val
      010006F1H   PUBLIC    CODE     ---       InitSystem
      010007D3H   PUBLIC    CODE     ---       Init_EXT_IO_Interrupt
      010007C7H   PUBLIC    CODE     ---       Init_WKT
      010007DFH   PUBLIC    CODE     ---       Set_System_Fre_16M
      01000709H   PUBLIC    CODE     ---       Set_System_Fre_10K
      010006D4H   PUBLIC    CODE     ---       Init_IO
      01000648H   PUBLIC    CODE     ---       WKT_ISR
      010005B9H   PUBLIC    CODE     ---       EXT_IO_ISR
      01000004H   PUBLIC    CODE     ---       Timer2_ISR
      0100002DH   PUBLIC    CODE     ---       Timer1_ISR
      01000003H   PUBLIC    CODE     ---       EXT1_ISR
      0100058CH   PUBLIC    CODE     ---       Timer0_ISR
      01000074H   PUBLIC    CODE     ---       Timer1Init
      0100005EH   PUBLIC    CODE     ---       Timer0Init
      0100003DH   PUBLIC    CODE     ---       SysTimer_Process
      01000520H   PUBLIC    CODE     ---       SysTick_Handler
      010004ECH   PUBLIC    CODE     ---       SysTick_Handler2
      000000F6H   SFRSYM    DATA     BYTE      AINDIDS
      000000B1H   SFRSYM    DATA     BYTE      P0M1
      000000B3H   SFRSYM    DATA     BYTE      P1M1
      000000B2H   SFRSYM    DATA     BYTE      P0M2
      00000080H   SFRSYM    DATA     BYTE      P0
      000000BBH   SFRSYM    DATA     BYTE      SADDR_1
      000000B4H   SFRSYM    DATA     BYTE      P1M2
      00000090H   SFRSYM    DATA     BYTE      P1
      000000C0H.2 SFRSYM    DATA     BIT       AA
      000000ACH   SFRSYM    DATA     BYTE      P3M1
      000000A0H   SFRSYM    DATA     BYTE      P2
      000000B0H   SFRSYM    DATA     BYTE      P3
      000000ADH   SFRSYM    DATA     BYTE      P3M2
      000000D0H.6 SFRSYM    DATA     BIT       AC
      0000008FH   SFRSYM    DATA     BYTE      WKCON
LX51 LINKER/LOCATER V4.66.1.0                                                         10/19/2019  14:09:51  PAGE 13


      0000009CH   SFRSYM    DATA     BYTE      EIE1
      000000A8H.7 SFRSYM    DATA     BIT       EA
      000000D8H   SFRSYM    DATA     BYTE      PWMCON0
      000000DFH   SFRSYM    DATA     BYTE      PWMCON1
      00000098H.7 SFRSYM    DATA     BIT       FE
      000000A8H.6 SFRSYM    DATA     BIT       EADC
      000000D1H   SFRSYM    DATA     BYTE      PWMPH
      000000A8H   SFRSYM    DATA     BYTE      IE
      00000096H   SFRSYM    DATA     BYTE      CKSWT
      000000E8H.7 SFRSYM    DATA     BIT       ADCF
      000000FEH   SFRSYM    DATA     BYTE      EIP1
      000000D9H   SFRSYM    DATA     BYTE      PWMPL
      000000E8H   SFRSYM    DATA     BIT       ADCHS0
      000000C7H   SFRSYM    DATA     BYTE      TA
      000000E8H.1 SFRSYM    DATA     BIT       ADCHS1
      000000E8H.2 SFRSYM    DATA     BIT       ADCHS2
      000000E8H.3 SFRSYM    DATA     BIT       ADCHS3
      000000A8H.4 SFRSYM    DATA     BIT       ES
      000000C1H   SFRSYM    DATA     BYTE      I2ADDR
      000000B8H.6 SFRSYM    DATA     BIT       PADC
      000000B8H   SFRSYM    DATA     BYTE      IP
      000000A8H.5 SFRSYM    DATA     BIT       EBOD
      00000098H   SFRSYM    DATA     BIT       RI
      000000F8H.7 SFRSYM    DATA     BIT       FE_1
      000000E8H.6 SFRSYM    DATA     BIT       ADCS
      000000D0H.7 SFRSYM    DATA     BIT       CY
      000000C0H.3 SFRSYM    DATA     BIT       SI
      000000B0H   SFRSYM    DATA     BIT       INT0
      00000098H.1 SFRSYM    DATA     BIT       TI
      000000D8H.6 SFRSYM    DATA     BIT       LOAD
      00000097H   SFRSYM    DATA     BYTE      CKEN
      000000B8H.4 SFRSYM    DATA     BIT       PS
      00000081H   SFRSYM    DATA     BYTE      SP
      000000D0H.2 SFRSYM    DATA     BIT       OV
      000000B7H   SFRSYM    DATA     BYTE      PWMINTC
      000000B8H.5 SFRSYM    DATA     BIT       PBOD
      000000B2H   SFRSYM    DATA     BYTE      P0SR
      000000F7H   SFRSYM    DATA     BYTE      EIPH
      000000B4H   SFRSYM    DATA     BYTE      P1SR
      000000ADH   SFRSYM    DATA     BYTE      P3SR
      000000F8H   SFRSYM    DATA     BIT       RI_1
      000000F8H.1 SFRSYM    DATA     BIT       TI_1
      000000CBH   SFRSYM    DATA     BYTE      RCMP2H
      000000CFH   SFRSYM    DATA     BYTE      ADCMPH
      00000080H   SFRSYM    DATA     BIT       P00
      00000090H   SFRSYM    DATA     BIT       P10
      00000080H.1 SFRSYM    DATA     BIT       P01
      000000FBH   SFRSYM    DATA     BYTE      PMEN
      00000099H   SFRSYM    DATA     BYTE      SBUF
      00000087H   SFRSYM    DATA     BYTE      PCON
      000000A0H   SFRSYM    DATA     BIT       P20
      00000090H.1 SFRSYM    DATA     BIT       P11
      00000080H.2 SFRSYM    DATA     BIT       P02
      000000CAH   SFRSYM    DATA     BYTE      RCMP2L
      000000B0H   SFRSYM    DATA     BIT       P30
      00000090H.2 SFRSYM    DATA     BIT       P12
      00000080H.3 SFRSYM    DATA     BIT       P03
      000000E3H   SFRSYM    DATA     BYTE      ADCDLY
      000000CEH   SFRSYM    DATA     BYTE      ADCMPL
      00000090H.3 SFRSYM    DATA     BIT       P13
      00000080H.4 SFRSYM    DATA     BIT       P04
      00000098H   SFRSYM    DATA     BYTE      SCON
      00000090H.4 SFRSYM    DATA     BIT       P14
      00000080H.5 SFRSYM    DATA     BIT       P05
      00000089H   SFRSYM    DATA     BYTE      TMOD
LX51 LINKER/LOCATER V4.66.1.0                                                         10/19/2019  14:09:51  PAGE 14


      00000088H   SFRSYM    DATA     BYTE      TCON
      00000090H.5 SFRSYM    DATA     BIT       P15
      00000080H.6 SFRSYM    DATA     BIT       P06
      00000090H.6 SFRSYM    DATA     BIT       P16
      00000080H.7 SFRSYM    DATA     BIT       P07
      00000090H.7 SFRSYM    DATA     BIT       P17
      000000F3H   SFRSYM    DATA     BYTE      SPCR
      000000BDH   SFRSYM    DATA     BYTE      I2STAT
      000000F5H   SFRSYM    DATA     BYTE      SPDR
      000000D8H.5 SFRSYM    DATA     BIT       PWMF
      000000E5H   SFRSYM    DATA     BYTE      C0H
      000000E7H   SFRSYM    DATA     BYTE      C1H
      000000EEH   SFRSYM    DATA     BYTE      C2H
      0000009FH   SFRSYM    DATA     BYTE      CHPCON
      00000088H.1 SFRSYM    DATA     BIT       IE0
      00000088H.3 SFRSYM    DATA     BIT       IE1
      000000E4H   SFRSYM    DATA     BYTE      C0L
      00000091H   SFRSYM    DATA     BYTE      SFRS
      000000E6H   SFRSYM    DATA     BYTE      C1L
      000000C8H   SFRSYM    DATA     BIT       CM_RL2
      000000F0H   SFRSYM    DATA     BYTE      B
      000000EDH   SFRSYM    DATA     BYTE      C2L
      0000009AH   SFRSYM    DATA     BYTE      SBUF_1
      000000A5H   SFRSYM    DATA     BYTE      IAPUEN
      000000F8H   SFRSYM    DATA     BYTE      SCON_1
      000000E0H   SFRSYM    DATA     BYTE      ACC
      000000A8H.1 SFRSYM    DATA     BIT       ET0
      000000F4H   SFRSYM    DATA     BYTE      SPSR
      000000A4H   SFRSYM    DATA     BYTE      IAPTRG
      000000A8H.3 SFRSYM    DATA     BIT       ET1
      00000088H.5 SFRSYM    DATA     BIT       TF0
      00000088H.7 SFRSYM    DATA     BIT       TF1
      000000C8H.7 SFRSYM    DATA     BIT       TF2
      00000098H.2 SFRSYM    DATA     BIT       RB8
      000000D7H   SFRSYM    DATA     BYTE      FBD
      0000008CH   SFRSYM    DATA     BYTE      TH0
      000000A8H   SFRSYM    DATA     BIT       EX0
      00000088H   SFRSYM    DATA     BIT       IT0
      000000C6H   SFRSYM    DATA     BYTE      RH3
      0000008DH   SFRSYM    DATA     BYTE      TH1
      000000A8H.2 SFRSYM    DATA     BIT       EX1
      00000098H.3 SFRSYM    DATA     BIT       TB8
      00000088H.2 SFRSYM    DATA     BIT       IT1
      000000CDH   SFRSYM    DATA     BYTE      TH2
      000000D0H   SFRSYM    DATA     BIT       P
      000000FAH   SFRSYM    DATA     BYTE      PDTCNT
      00000098H.7 SFRSYM    DATA     BIT       SM0
      0000008AH   SFRSYM    DATA     BYTE      TL0
      00000098H.6 SFRSYM    DATA     BIT       SM1
      000000C5H   SFRSYM    DATA     BYTE      RL3
      0000008BH   SFRSYM    DATA     BYTE      TL1
      000000C0H.6 SFRSYM    DATA     BIT       I2CEN
      00000098H.5 SFRSYM    DATA     BIT       SM2
      000000CCH   SFRSYM    DATA     BYTE      TL2
      000000B1H   SFRSYM    DATA     BYTE      P0S
      0000009BH   SFRSYM    DATA     BYTE      EIE
      000000B8H.1 SFRSYM    DATA     BIT       PT0
      000000B3H   SFRSYM    DATA     BYTE      P1S
      000000D0H.3 SFRSYM    DATA     BIT       RS0
      000000B8H.3 SFRSYM    DATA     BIT       PT1
      000000BCH   SFRSYM    DATA     BYTE      I2DAT
      000000B5H   SFRSYM    DATA     BYTE      P2S
      000000D0H.4 SFRSYM    DATA     BIT       RS1
      00000088H.4 SFRSYM    DATA     BIT       TR0
      000000BEH   SFRSYM    DATA     BYTE      I2CLK
LX51 LINKER/LOCATER V4.66.1.0                                                         10/19/2019  14:09:51  PAGE 15


      000000ACH   SFRSYM    DATA     BYTE      P3S
      000000D8H.4 SFRSYM    DATA     BIT       CLRPWM
      00000088H.6 SFRSYM    DATA     BIT       TR1
      000000C8H.2 SFRSYM    DATA     BIT       TR2
      000000B8H   SFRSYM    DATA     BIT       PX0
      00000090H.4 SFRSYM    DATA     BIT       SDA
      000000FFH   SFRSYM    DATA     BYTE      EIPH1
      000000B8H.2 SFRSYM    DATA     BIT       PX1
      000000E8H   SFRSYM    DATA     BYTE      ADCCON0
      000000E1H   SFRSYM    DATA     BYTE      ADCCON1
      000000E2H   SFRSYM    DATA     BYTE      ADCCON2
      000000C0H   SFRSYM    DATA     BYTE      I2CON
      00000083H   SFRSYM    DATA     BYTE      DPH
      000000F8H.2 SFRSYM    DATA     BIT       RB8_1
      000000EFH   SFRSYM    DATA     BYTE      EIP
      000000F8H.3 SFRSYM    DATA     BIT       TB8_1
      000000ECH   SFRSYM    DATA     BYTE      PIF
      00000082H   SFRSYM    DATA     BYTE      DPL
      000000F8H.7 SFRSYM    DATA     BIT       SM0_1
      000000FCH   SFRSYM    DATA     BYTE      PMD
      000000B7H   SFRSYM    DATA     BYTE      IPH
      000000F8H.6 SFRSYM    DATA     BIT       SM1_1
      00000090H.3 SFRSYM    DATA     BIT       SCL
      000000BFH   SFRSYM    DATA     BYTE      I2TOC
      000000F8H.5 SFRSYM    DATA     BIT       SM2_1
      000000C3H   SFRSYM    DATA     BYTE      ADCRH
      000000A7H   SFRSYM    DATA     BYTE      IAPAH
      00000098H.4 SFRSYM    DATA     BIT       REN
      000000AEH   SFRSYM    DATA     BYTE      IAPFD
      00000092H   SFRSYM    DATA     BYTE      CAPCON0
      000000C0H   SFRSYM    DATA     BIT       I2CPX
      000000C9H   SFRSYM    DATA     BYTE      T2MOD
      000000C8H   SFRSYM    DATA     BYTE      T2CON
      000000C2H   SFRSYM    DATA     BYTE      ADCRL
      000000A3H   SFRSYM    DATA     BYTE      BODCON0
      00000093H   SFRSYM    DATA     BYTE      CAPCON1
      000000C0H.5 SFRSYM    DATA     BIT       STA
      000000C4H   SFRSYM    DATA     BYTE      T3CON
      000000ABH   SFRSYM    DATA     BYTE      BODCON1
      000000A6H   SFRSYM    DATA     BYTE      IAPAL
      00000094H   SFRSYM    DATA     BYTE      CAPCON2
      000000F1H   SFRSYM    DATA     BYTE      CAPCON3
      000000F2H   SFRSYM    DATA     BYTE      CAPCON4
      000000D8H.7 SFRSYM    DATA     BIT       PWMRUN
      000000F3H   SFRSYM    DATA     BYTE      SPCR2
      000000B9H   SFRSYM    DATA     BYTE      SADEN
      000000AFH   SFRSYM    DATA     BYTE      IAPCN
      000000D2H   SFRSYM    DATA     BYTE      PWM0H
      000000D6H   SFRSYM    DATA     BYTE      PNP
      000000D3H   SFRSYM    DATA     BYTE      PWM1H
      000000D4H   SFRSYM    DATA     BYTE      PWM2H
      000000A9H   SFRSYM    DATA     BYTE      SADDR
      0000008EH   SFRSYM    DATA     BYTE      CKCON
      000000D5H   SFRSYM    DATA     BYTE      PWM3H
      000000DAH   SFRSYM    DATA     BYTE      PWM0L
      000000C4H   SFRSYM    DATA     BYTE      PWM4H
      000000DBH   SFRSYM    DATA     BYTE      PWM1L
      000000C5H   SFRSYM    DATA     BYTE      PWM5H
      000000A2H   SFRSYM    DATA     BYTE      AUXR1
      00000095H   SFRSYM    DATA     BYTE      CKDIV
      000000DCH   SFRSYM    DATA     BYTE      PWM2L
      000000DDH   SFRSYM    DATA     BYTE      PWM3L
      00000086H   SFRSYM    DATA     BYTE      RWK
      000000D0H.5 SFRSYM    DATA     BIT       F0
      000000CCH   SFRSYM    DATA     BYTE      PWM4L
LX51 LINKER/LOCATER V4.66.1.0                                                         10/19/2019  14:09:51  PAGE 16


      000000F8H.4 SFRSYM    DATA     BIT       REN_1
      000000E8H.4 SFRSYM    DATA     BIT       ETGSEL0
      000000C0H.4 SFRSYM    DATA     BIT       STO
      000000CDH   SFRSYM    DATA     BYTE      PWM5L
      000000E8H.5 SFRSYM    DATA     BIT       ETGSEL1
      000000E9H   SFRSYM    DATA     BYTE      PICON
      000000DEH   SFRSYM    DATA     BYTE      PIOCON0
      000000D0H   SFRSYM    DATA     BYTE      PSW
      000000EAH   SFRSYM    DATA     BYTE      PINEN
      000000C6H   SFRSYM    DATA     BYTE      PIOCON1
      000000F9H   SFRSYM    DATA     BYTE      PDTEN
      000000AAH   SFRSYM    DATA     BYTE      WDCON
      000000EBH   SFRSYM    DATA     BYTE      PIPEN
      000000BAH   SFRSYM    DATA     BYTE      SADEN_1

      010004ECH   BLOCK     CODE     ---       LVL=0
      010004ECH   LINE      ---      ---       #17
      010004ECH   LINE      ---      ---       #18
      010004ECH   LINE      ---      ---       #19
      010004F2H   LINE      ---      ---       #20
      010004FBH   LINE      ---      ---       #21
      010004FBH   LINE      ---      ---       #22
      01000500H   LINE      ---      ---       #23
      01000500H   LINE      ---      ---       #24
      0100050CH   LINE      ---      ---       #25
      0100050CH   LINE      ---      ---       #26
      01000511H   LINE      ---      ---       #27
      01000511H   LINE      ---      ---       #28
      01000518H   LINE      ---      ---       #29
      0100051AH   LINE      ---      ---       #30
      0100051FH   LINE      ---      ---       #31
      0100051FH   LINE      ---      ---       #32
      ---         BLOCKEND  ---      ---       LVL=0

      01000520H   BLOCK     CODE     ---       LVL=0
      01000520H   LINE      ---      ---       #33
      01000520H   LINE      ---      ---       #34
      01000520H   LINE      ---      ---       #35
      01000527H   LINE      ---      ---       #36
      0100052DH   LINE      ---      ---       #37
      01000531H   LINE      ---      ---       #38
      01000531H   LINE      ---      ---       #39
      01000538H   LINE      ---      ---       #40
      01000538H   LINE      ---      ---       #41
      01000544H   LINE      ---      ---       #42
      01000544H   LINE      ---      ---       #43
      0100054BH   LINE      ---      ---       #44
      0100054BH   LINE      ---      ---       #45
      01000557H   LINE      ---      ---       #46
      01000557H   LINE      ---      ---       #47
      0100055EH   LINE      ---      ---       #48
      0100055EH   LINE      ---      ---       #49
      01000565H   LINE      ---      ---       #50
      01000565H   LINE      ---      ---       #51
      01000567H   LINE      ---      ---       #52
      0100056EH   LINE      ---      ---       #53
      01000570H   LINE      ---      ---       #54
      01000570H   LINE      ---      ---       #55
      0100057FH   LINE      ---      ---       #56
      0100057FH   LINE      ---      ---       #57
      0100058BH   LINE      ---      ---       #58
      0100058BH   LINE      ---      ---       #60
      ---         BLOCKEND  ---      ---       LVL=0

      0100003DH   BLOCK     CODE     ---       LVL=0
LX51 LINKER/LOCATER V4.66.1.0                                                         10/19/2019  14:09:51  PAGE 17


      0100003DH   LINE      ---      ---       #62
      0100003DH   LINE      ---      ---       #63
      0100003DH   LINE      ---      ---       #65
      01000043H   LINE      ---      ---       #67
      01000048H   LINE      ---      ---       #68
      01000048H   LINE      ---      ---       #69
      0100004AH   LINE      ---      ---       #71
      0100004AH   LINE      ---      ---       #79
      ---         BLOCKEND  ---      ---       LVL=0

      0100005EH   BLOCK     CODE     ---       LVL=0
      0100005EH   LINE      ---      ---       #85
      0100005EH   LINE      ---      ---       #86
      0100005EH   LINE      ---      ---       #87
      01000061H   LINE      ---      ---       #88
      01000064H   LINE      ---      ---       #89
      01000067H   LINE      ---      ---       #90
      0100006AH   LINE      ---      ---       #91
      0100006DH   LINE      ---      ---       #92
      0100006FH   LINE      ---      ---       #93
      01000071H   LINE      ---      ---       #94
      01000073H   LINE      ---      ---       #95
      ---         BLOCKEND  ---      ---       LVL=0

      01000074H   BLOCK     CODE     ---       LVL=0
      01000074H   LINE      ---      ---       #101
      01000074H   LINE      ---      ---       #102
      01000074H   LINE      ---      ---       #103
      01000077H   LINE      ---      ---       #104
      0100007AH   LINE      ---      ---       #105
      0100007DH   LINE      ---      ---       #108
      0100007FH   LINE      ---      ---       #109
      01000081H   LINE      ---      ---       #110
      01000083H   LINE      ---      ---       #111
      ---         BLOCKEND  ---      ---       LVL=0

      0100058CH   BLOCK     CODE     ---       LVL=0
      01000596H   LINE      ---      ---       #117
      01000596H   LINE      ---      ---       #119
      01000599H   LINE      ---      ---       #120
      0100059CH   LINE      ---      ---       #121
      0100059EH   LINE      ---      ---       #122
      010005ACH   LINE      ---      ---       #123
      010005AEH   LINE      ---      ---       #124
      ---         BLOCKEND  ---      ---       LVL=0

      01000003H   BLOCK     CODE     ---       LVL=0
      01000003H   LINE      ---      ---       #125
      01000003H   LINE      ---      ---       #131
      ---         BLOCKEND  ---      ---       LVL=0

      0100002DH   BLOCK     CODE     ---       LVL=0
      0100002FH   LINE      ---      ---       #138
      0100002FH   BLOCK     CODE     NEAR LAB  LVL=1
      0100002FH   LINE      ---      ---       #140
      01000030H   LINE      ---      ---       #142
      01000032H   LINE      ---      ---       #143
      01000034H   LINE      ---      ---       #145
      00000006H   SYMBOL    DATA     WORD      T1_Reload
      ---         BLOCKEND  CODE     ---       LVL=1
      ---         BLOCKEND  CODE     ---       LVL=0

      01000004H   BLOCK     CODE     ---       LVL=0
      01000004H   LINE      ---      ---       #146
      01000004H   LINE      ---      ---       #148
LX51 LINKER/LOCATER V4.66.1.0                                                         10/19/2019  14:09:51  PAGE 18


      01000006H   LINE      ---      ---       #149
      ---         BLOCKEND  ---      ---       LVL=0

      010005B9H   BLOCK     CODE     ---       LVL=0
      010005D6H   LINE      ---      ---       #152
      010005D6H   LINE      ---      ---       #154
      010005DDH   LINE      ---      ---       #155
      010005DDH   LINE      ---      ---       #156
      010005DDH   LINE      ---      ---       #157
      010005DDH   LINE      ---      ---       #158
      010005DDH   LINE      ---      ---       #159
      010005DFH   LINE      ---      ---       #160
      010005E1H   LINE      ---      ---       #161
      010005EDH   LINE      ---      ---       #162
      010005F0H   LINE      ---      ---       #163
      010005F2H   LINE      ---      ---       #164
      01000609H   LINE      ---      ---       #165
      01000616H   LINE      ---      ---       #166
      0100061EH   LINE      ---      ---       #167
      01000623H   LINE      ---      ---       #168
      01000627H   LINE      ---      ---       #169
      0100062AH   LINE      ---      ---       #170
      0100062AH   LINE      ---      ---       #172
      0100062AH   LINE      ---      ---       #173
      0100062DH   LINE      ---      ---       #174
      ---         BLOCKEND  ---      ---       LVL=0

      01000648H   BLOCK     CODE     ---       LVL=0
      01000665H   LINE      ---      ---       #176
      01000665H   LINE      ---      ---       #178
      01000668H   LINE      ---      ---       #180
      0100066BH   LINE      ---      ---       #181
      0100066EH   LINE      ---      ---       #182
      01000670H   LINE      ---      ---       #183
      ---         BLOCKEND  ---      ---       LVL=0

      010006D4H   BLOCK     CODE     ---       LVL=0
      010006D4H   LINE      ---      ---       #228
      010006D4H   LINE      ---      ---       #229
      010006D4H   LINE      ---      ---       #230
      010006D7H   LINE      ---      ---       #231
      010006DAH   LINE      ---      ---       #232
      010006DDH   LINE      ---      ---       #234
      010006E0H   LINE      ---      ---       #235
      010006E3H   LINE      ---      ---       #236
      010006E6H   LINE      ---      ---       #238
      010006E9H   LINE      ---      ---       #240
      010006EBH   LINE      ---      ---       #241
      010006EDH   LINE      ---      ---       #242
      010006F0H   LINE      ---      ---       #244
      ---         BLOCKEND  ---      ---       LVL=0

      01000709H   BLOCK     CODE     ---       LVL=0
      01000709H   LINE      ---      ---       #245
      01000709H   LINE      ---      ---       #246
      01000709H   LINE      ---      ---       #247
      0100071CH   LINE      ---      ---       #248
      0100072FH   LINE      ---      ---       #249
      01000742H   LINE      ---      ---       #251
      01000755H   LINE      ---      ---       #252
      01000768H   LINE      ---      ---       #253
      0100077BH   LINE      ---      ---       #254
      ---         BLOCKEND  ---      ---       LVL=0

      010007DFH   BLOCK     CODE     ---       LVL=0
LX51 LINKER/LOCATER V4.66.1.0                                                         10/19/2019  14:09:51  PAGE 19


      010007DFH   LINE      ---      ---       #255
      010007DFH   LINE      ---      ---       #256
      010007DFH   LINE      ---      ---       #257
      010007F2H   LINE      ---      ---       #258
      01000805H   LINE      ---      ---       #259
      01000818H   LINE      ---      ---       #260
      0100082BH   LINE      ---      ---       #261
      0100083EH   LINE      ---      ---       #262
      01000851H   LINE      ---      ---       #264
      ---         BLOCKEND  ---      ---       LVL=0

      010007C7H   BLOCK     CODE     ---       LVL=0
      010007C7H   LINE      ---      ---       #270
      010007C7H   LINE      ---      ---       #271
      010007C7H   LINE      ---      ---       #272
      010007CAH   LINE      ---      ---       #273
      010007CDH   LINE      ---      ---       #274
      010007D0H   LINE      ---      ---       #276
      010007D2H   LINE      ---      ---       #277
      ---         BLOCKEND  ---      ---       LVL=0

      010007D3H   BLOCK     CODE     ---       LVL=0
      010007D3H   LINE      ---      ---       #283
      010007D3H   LINE      ---      ---       #284
      010007D3H   LINE      ---      ---       #285
      010007D6H   LINE      ---      ---       #286
      010007D9H   LINE      ---      ---       #287
      010007DCH   LINE      ---      ---       #288
      010007DEH   LINE      ---      ---       #289
      ---         BLOCKEND  ---      ---       LVL=0

      010006F1H   BLOCK     CODE     ---       LVL=0
      010006F1H   LINE      ---      ---       #296
      010006F1H   LINE      ---      ---       #297
      010006F1H   BLOCK     CODE     NEAR LAB  LVL=1
      010006F1H   LINE      ---      ---       #300
      010006F3H   LINE      ---      ---       #301
      01000703H   LINE      ---      ---       #302
      01000705H   LINE      ---      ---       #308
      01000707H   LINE      ---      ---       #309
      02000170H   SYMBOL    XDATA    WORD      BG_1_22V
      02000172H   SYMBOL    XDATA    WORD      VDD_VAL
      ---         BLOCKEND  CODE     ---       LVL=1
      ---         BLOCKEND  CODE     ---       LVL=0

      ---         MODULE    ---      ---       MAIN
      01000852H   PUBLIC    CODE     ---       main
      000000F6H   SFRSYM    DATA     BYTE      AINDIDS
      000000B1H   SFRSYM    DATA     BYTE      P0M1
      000000B3H   SFRSYM    DATA     BYTE      P1M1
      000000B2H   SFRSYM    DATA     BYTE      P0M2
      00000080H   SFRSYM    DATA     BYTE      P0
      000000BBH   SFRSYM    DATA     BYTE      SADDR_1
      000000B4H   SFRSYM    DATA     BYTE      P1M2
      00000090H   SFRSYM    DATA     BYTE      P1
      000000C0H.2 SFRSYM    DATA     BIT       AA
      000000ACH   SFRSYM    DATA     BYTE      P3M1
      000000A0H   SFRSYM    DATA     BYTE      P2
      000000B0H   SFRSYM    DATA     BYTE      P3
      000000ADH   SFRSYM    DATA     BYTE      P3M2
      000000D0H.6 SFRSYM    DATA     BIT       AC
      0000008FH   SFRSYM    DATA     BYTE      WKCON
      0000009CH   SFRSYM    DATA     BYTE      EIE1
      000000A8H.7 SFRSYM    DATA     BIT       EA
      000000D8H   SFRSYM    DATA     BYTE      PWMCON0
LX51 LINKER/LOCATER V4.66.1.0                                                         10/19/2019  14:09:51  PAGE 20


      000000DFH   SFRSYM    DATA     BYTE      PWMCON1
      00000098H.7 SFRSYM    DATA     BIT       FE
      000000A8H.6 SFRSYM    DATA     BIT       EADC
      000000D1H   SFRSYM    DATA     BYTE      PWMPH
      000000A8H   SFRSYM    DATA     BYTE      IE
      00000096H   SFRSYM    DATA     BYTE      CKSWT
      000000E8H.7 SFRSYM    DATA     BIT       ADCF
      000000FEH   SFRSYM    DATA     BYTE      EIP1
      000000D9H   SFRSYM    DATA     BYTE      PWMPL
      000000E8H   SFRSYM    DATA     BIT       ADCHS0
      000000C7H   SFRSYM    DATA     BYTE      TA
      000000E8H.1 SFRSYM    DATA     BIT       ADCHS1
      000000E8H.2 SFRSYM    DATA     BIT       ADCHS2
      000000E8H.3 SFRSYM    DATA     BIT       ADCHS3
      000000A8H.4 SFRSYM    DATA     BIT       ES
      000000C1H   SFRSYM    DATA     BYTE      I2ADDR
      000000B8H.6 SFRSYM    DATA     BIT       PADC
      000000B8H   SFRSYM    DATA     BYTE      IP
      000000A8H.5 SFRSYM    DATA     BIT       EBOD
      00000098H   SFRSYM    DATA     BIT       RI
      000000F8H.7 SFRSYM    DATA     BIT       FE_1
      000000E8H.6 SFRSYM    DATA     BIT       ADCS
      000000D0H.7 SFRSYM    DATA     BIT       CY
      000000C0H.3 SFRSYM    DATA     BIT       SI
      000000B0H   SFRSYM    DATA     BIT       INT0
      00000098H.1 SFRSYM    DATA     BIT       TI
      000000D8H.6 SFRSYM    DATA     BIT       LOAD
      00000097H   SFRSYM    DATA     BYTE      CKEN
      000000B8H.4 SFRSYM    DATA     BIT       PS
      00000081H   SFRSYM    DATA     BYTE      SP
      000000D0H.2 SFRSYM    DATA     BIT       OV
      000000B7H   SFRSYM    DATA     BYTE      PWMINTC
      000000B8H.5 SFRSYM    DATA     BIT       PBOD
      000000B2H   SFRSYM    DATA     BYTE      P0SR
      000000F7H   SFRSYM    DATA     BYTE      EIPH
      000000B4H   SFRSYM    DATA     BYTE      P1SR
      000000ADH   SFRSYM    DATA     BYTE      P3SR
      000000F8H   SFRSYM    DATA     BIT       RI_1
      000000F8H.1 SFRSYM    DATA     BIT       TI_1
      000000CBH   SFRSYM    DATA     BYTE      RCMP2H
      000000CFH   SFRSYM    DATA     BYTE      ADCMPH
      00000080H   SFRSYM    DATA     BIT       P00
      00000090H   SFRSYM    DATA     BIT       P10
      00000080H.1 SFRSYM    DATA     BIT       P01
      000000FBH   SFRSYM    DATA     BYTE      PMEN
      00000099H   SFRSYM    DATA     BYTE      SBUF
      00000087H   SFRSYM    DATA     BYTE      PCON
      000000A0H   SFRSYM    DATA     BIT       P20
      00000090H.1 SFRSYM    DATA     BIT       P11
      00000080H.2 SFRSYM    DATA     BIT       P02
      000000CAH   SFRSYM    DATA     BYTE      RCMP2L
      000000B0H   SFRSYM    DATA     BIT       P30
      00000090H.2 SFRSYM    DATA     BIT       P12
      00000080H.3 SFRSYM    DATA     BIT       P03
      000000E3H   SFRSYM    DATA     BYTE      ADCDLY
      000000CEH   SFRSYM    DATA     BYTE      ADCMPL
      00000090H.3 SFRSYM    DATA     BIT       P13
      00000080H.4 SFRSYM    DATA     BIT       P04
      00000098H   SFRSYM    DATA     BYTE      SCON
      00000090H.4 SFRSYM    DATA     BIT       P14
      00000080H.5 SFRSYM    DATA     BIT       P05
      00000089H   SFRSYM    DATA     BYTE      TMOD
      00000088H   SFRSYM    DATA     BYTE      TCON
      00000090H.5 SFRSYM    DATA     BIT       P15
      00000080H.6 SFRSYM    DATA     BIT       P06
LX51 LINKER/LOCATER V4.66.1.0                                                         10/19/2019  14:09:51  PAGE 21


      00000090H.6 SFRSYM    DATA     BIT       P16
      00000080H.7 SFRSYM    DATA     BIT       P07
      00000090H.7 SFRSYM    DATA     BIT       P17
      000000F3H   SFRSYM    DATA     BYTE      SPCR
      000000BDH   SFRSYM    DATA     BYTE      I2STAT
      000000F5H   SFRSYM    DATA     BYTE      SPDR
      000000D8H.5 SFRSYM    DATA     BIT       PWMF
      000000E5H   SFRSYM    DATA     BYTE      C0H
      000000E7H   SFRSYM    DATA     BYTE      C1H
      000000EEH   SFRSYM    DATA     BYTE      C2H
      0000009FH   SFRSYM    DATA     BYTE      CHPCON
      00000088H.1 SFRSYM    DATA     BIT       IE0
      00000088H.3 SFRSYM    DATA     BIT       IE1
      000000E4H   SFRSYM    DATA     BYTE      C0L
      00000091H   SFRSYM    DATA     BYTE      SFRS
      000000E6H   SFRSYM    DATA     BYTE      C1L
      000000C8H   SFRSYM    DATA     BIT       CM_RL2
      000000F0H   SFRSYM    DATA     BYTE      B
      000000EDH   SFRSYM    DATA     BYTE      C2L
      0000009AH   SFRSYM    DATA     BYTE      SBUF_1
      000000A5H   SFRSYM    DATA     BYTE      IAPUEN
      000000F8H   SFRSYM    DATA     BYTE      SCON_1
      000000E0H   SFRSYM    DATA     BYTE      ACC
      000000A8H.1 SFRSYM    DATA     BIT       ET0
      000000F4H   SFRSYM    DATA     BYTE      SPSR
      000000A4H   SFRSYM    DATA     BYTE      IAPTRG
      000000A8H.3 SFRSYM    DATA     BIT       ET1
      00000088H.5 SFRSYM    DATA     BIT       TF0
      00000088H.7 SFRSYM    DATA     BIT       TF1
      000000C8H.7 SFRSYM    DATA     BIT       TF2
      00000098H.2 SFRSYM    DATA     BIT       RB8
      000000D7H   SFRSYM    DATA     BYTE      FBD
      0000008CH   SFRSYM    DATA     BYTE      TH0
      000000A8H   SFRSYM    DATA     BIT       EX0
      00000088H   SFRSYM    DATA     BIT       IT0
      000000C6H   SFRSYM    DATA     BYTE      RH3
      0000008DH   SFRSYM    DATA     BYTE      TH1
      000000A8H.2 SFRSYM    DATA     BIT       EX1
      00000098H.3 SFRSYM    DATA     BIT       TB8
      00000088H.2 SFRSYM    DATA     BIT       IT1
      000000CDH   SFRSYM    DATA     BYTE      TH2
      000000D0H   SFRSYM    DATA     BIT       P
      000000FAH   SFRSYM    DATA     BYTE      PDTCNT
      00000098H.7 SFRSYM    DATA     BIT       SM0
      0000008AH   SFRSYM    DATA     BYTE      TL0
      00000098H.6 SFRSYM    DATA     BIT       SM1
      000000C5H   SFRSYM    DATA     BYTE      RL3
      0000008BH   SFRSYM    DATA     BYTE      TL1
      000000C0H.6 SFRSYM    DATA     BIT       I2CEN
      00000098H.5 SFRSYM    DATA     BIT       SM2
      000000CCH   SFRSYM    DATA     BYTE      TL2
      000000B1H   SFRSYM    DATA     BYTE      P0S
      0000009BH   SFRSYM    DATA     BYTE      EIE
      000000B8H.1 SFRSYM    DATA     BIT       PT0
      000000B3H   SFRSYM    DATA     BYTE      P1S
      000000D0H.3 SFRSYM    DATA     BIT       RS0
      000000B8H.3 SFRSYM    DATA     BIT       PT1
      000000BCH   SFRSYM    DATA     BYTE      I2DAT
      000000B5H   SFRSYM    DATA     BYTE      P2S
      000000D0H.4 SFRSYM    DATA     BIT       RS1
      00000088H.4 SFRSYM    DATA     BIT       TR0
      000000BEH   SFRSYM    DATA     BYTE      I2CLK
      000000ACH   SFRSYM    DATA     BYTE      P3S
      000000D8H.4 SFRSYM    DATA     BIT       CLRPWM
      00000088H.6 SFRSYM    DATA     BIT       TR1
LX51 LINKER/LOCATER V4.66.1.0                                                         10/19/2019  14:09:51  PAGE 22


      000000C8H.2 SFRSYM    DATA     BIT       TR2
      000000B8H   SFRSYM    DATA     BIT       PX0
      00000090H.4 SFRSYM    DATA     BIT       SDA
      000000FFH   SFRSYM    DATA     BYTE      EIPH1
      000000B8H.2 SFRSYM    DATA     BIT       PX1
      000000E8H   SFRSYM    DATA     BYTE      ADCCON0
      000000E1H   SFRSYM    DATA     BYTE      ADCCON1
      000000E2H   SFRSYM    DATA     BYTE      ADCCON2
      000000C0H   SFRSYM    DATA     BYTE      I2CON
      00000083H   SFRSYM    DATA     BYTE      DPH
      000000F8H.2 SFRSYM    DATA     BIT       RB8_1
      000000EFH   SFRSYM    DATA     BYTE      EIP
      000000F8H.3 SFRSYM    DATA     BIT       TB8_1
      000000ECH   SFRSYM    DATA     BYTE      PIF
      00000082H   SFRSYM    DATA     BYTE      DPL
      000000F8H.7 SFRSYM    DATA     BIT       SM0_1
      000000FCH   SFRSYM    DATA     BYTE      PMD
      000000B7H   SFRSYM    DATA     BYTE      IPH
      000000F8H.6 SFRSYM    DATA     BIT       SM1_1
      00000090H.3 SFRSYM    DATA     BIT       SCL
      000000BFH   SFRSYM    DATA     BYTE      I2TOC
      000000F8H.5 SFRSYM    DATA     BIT       SM2_1
      000000C3H   SFRSYM    DATA     BYTE      ADCRH
      000000A7H   SFRSYM    DATA     BYTE      IAPAH
      00000098H.4 SFRSYM    DATA     BIT       REN
      000000AEH   SFRSYM    DATA     BYTE      IAPFD
      00000092H   SFRSYM    DATA     BYTE      CAPCON0
      000000C0H   SFRSYM    DATA     BIT       I2CPX
      000000C9H   SFRSYM    DATA     BYTE      T2MOD
      000000C8H   SFRSYM    DATA     BYTE      T2CON
      000000C2H   SFRSYM    DATA     BYTE      ADCRL
      000000A3H   SFRSYM    DATA     BYTE      BODCON0
      00000093H   SFRSYM    DATA     BYTE      CAPCON1
      000000C0H.5 SFRSYM    DATA     BIT       STA
      000000C4H   SFRSYM    DATA     BYTE      T3CON
      000000ABH   SFRSYM    DATA     BYTE      BODCON1
      000000A6H   SFRSYM    DATA     BYTE      IAPAL
      00000094H   SFRSYM    DATA     BYTE      CAPCON2
      000000F1H   SFRSYM    DATA     BYTE      CAPCON3
      000000F2H   SFRSYM    DATA     BYTE      CAPCON4
      000000D8H.7 SFRSYM    DATA     BIT       PWMRUN
      000000F3H   SFRSYM    DATA     BYTE      SPCR2
      000000B9H   SFRSYM    DATA     BYTE      SADEN
      000000AFH   SFRSYM    DATA     BYTE      IAPCN
      000000D2H   SFRSYM    DATA     BYTE      PWM0H
      000000D6H   SFRSYM    DATA     BYTE      PNP
      000000D3H   SFRSYM    DATA     BYTE      PWM1H
      000000D4H   SFRSYM    DATA     BYTE      PWM2H
      000000A9H   SFRSYM    DATA     BYTE      SADDR
      0000008EH   SFRSYM    DATA     BYTE      CKCON
      000000D5H   SFRSYM    DATA     BYTE      PWM3H
      000000DAH   SFRSYM    DATA     BYTE      PWM0L
      000000C4H   SFRSYM    DATA     BYTE      PWM4H
      000000DBH   SFRSYM    DATA     BYTE      PWM1L
      000000C5H   SFRSYM    DATA     BYTE      PWM5H
      000000A2H   SFRSYM    DATA     BYTE      AUXR1
      00000095H   SFRSYM    DATA     BYTE      CKDIV
      000000DCH   SFRSYM    DATA     BYTE      PWM2L
      000000DDH   SFRSYM    DATA     BYTE      PWM3L
      00000086H   SFRSYM    DATA     BYTE      RWK
      000000D0H.5 SFRSYM    DATA     BIT       F0
      000000CCH   SFRSYM    DATA     BYTE      PWM4L
      000000F8H.4 SFRSYM    DATA     BIT       REN_1
      000000E8H.4 SFRSYM    DATA     BIT       ETGSEL0
      000000C0H.4 SFRSYM    DATA     BIT       STO
LX51 LINKER/LOCATER V4.66.1.0                                                         10/19/2019  14:09:51  PAGE 23


      000000CDH   SFRSYM    DATA     BYTE      PWM5L
      000000E8H.5 SFRSYM    DATA     BIT       ETGSEL1
      000000E9H   SFRSYM    DATA     BYTE      PICON
      000000DEH   SFRSYM    DATA     BYTE      PIOCON0
      000000D0H   SFRSYM    DATA     BYTE      PSW
      000000EAH   SFRSYM    DATA     BYTE      PINEN
      000000C6H   SFRSYM    DATA     BYTE      PIOCON1
      000000F9H   SFRSYM    DATA     BYTE      PDTEN
      000000AAH   SFRSYM    DATA     BYTE      WDCON
      000000EBH   SFRSYM    DATA     BYTE      PIPEN
      000000BAH   SFRSYM    DATA     BYTE      SADEN_1

      01000852H   BLOCK     CODE     ---       LVL=0
      01000852H   LINE      ---      ---       #3
      01000852H   LINE      ---      ---       #4
      01000852H   LINE      ---      ---       #5
      01000855H   LINE      ---      ---       #6
      01000855H   LINE      ---      ---       #7
      0100085EH   LINE      ---      ---       #8
      0100086EH   LINE      ---      ---       #9
      01000871H   LINE      ---      ---       #10
      01000874H   LINE      ---      ---       #11
      01000877H   LINE      ---      ---       #15
      0100087AH   LINE      ---      ---       #16
      ---         BLOCKEND  ---      ---       LVL=0

      ---         MODULE    ---      ---       ADC
      020001D8H   PUBLIC    XDATA    BYTE      adc_position_ready
      020001D6H   PUBLIC    XDATA    WORD      adc_seek_position_value
      020001D4H   PUBLIC    XDATA    WORD      adc_position_value
      01000885H   PUBLIC    CODE     ---       ADC_ISR
      0100087DH   PUBLIC    CODE     ---       ADC_GO
      0100068BH   PUBLIC    CODE     ---       _ADC_Read
      0100004BH   PUBLIC    CODE     ---       adc_init
      000000F6H   SFRSYM    DATA     BYTE      AINDIDS
      000000B1H   SFRSYM    DATA     BYTE      P0M1
      000000B3H   SFRSYM    DATA     BYTE      P1M1
      000000B2H   SFRSYM    DATA     BYTE      P0M2
      00000080H   SFRSYM    DATA     BYTE      P0
      000000BBH   SFRSYM    DATA     BYTE      SADDR_1
      000000B4H   SFRSYM    DATA     BYTE      P1M2
      00000090H   SFRSYM    DATA     BYTE      P1
      000000C0H.2 SFRSYM    DATA     BIT       AA
      000000ACH   SFRSYM    DATA     BYTE      P3M1
      000000A0H   SFRSYM    DATA     BYTE      P2
      000000B0H   SFRSYM    DATA     BYTE      P3
      000000ADH   SFRSYM    DATA     BYTE      P3M2
      000000D0H.6 SFRSYM    DATA     BIT       AC
      0000008FH   SFRSYM    DATA     BYTE      WKCON
      0000009CH   SFRSYM    DATA     BYTE      EIE1
      000000A8H.7 SFRSYM    DATA     BIT       EA
      000000D8H   SFRSYM    DATA     BYTE      PWMCON0
      000000DFH   SFRSYM    DATA     BYTE      PWMCON1
      00000098H.7 SFRSYM    DATA     BIT       FE
      000000A8H.6 SFRSYM    DATA     BIT       EADC
      000000D1H   SFRSYM    DATA     BYTE      PWMPH
      000000A8H   SFRSYM    DATA     BYTE      IE
      00000096H   SFRSYM    DATA     BYTE      CKSWT
      000000E8H.7 SFRSYM    DATA     BIT       ADCF
      000000FEH   SFRSYM    DATA     BYTE      EIP1
      000000D9H   SFRSYM    DATA     BYTE      PWMPL
      000000E8H   SFRSYM    DATA     BIT       ADCHS0
      000000C7H   SFRSYM    DATA     BYTE      TA
      000000E8H.1 SFRSYM    DATA     BIT       ADCHS1
      000000E8H.2 SFRSYM    DATA     BIT       ADCHS2
LX51 LINKER/LOCATER V4.66.1.0                                                         10/19/2019  14:09:51  PAGE 24


      000000E8H.3 SFRSYM    DATA     BIT       ADCHS3
      000000A8H.4 SFRSYM    DATA     BIT       ES
      000000C1H   SFRSYM    DATA     BYTE      I2ADDR
      000000B8H.6 SFRSYM    DATA     BIT       PADC
      000000B8H   SFRSYM    DATA     BYTE      IP
      000000A8H.5 SFRSYM    DATA     BIT       EBOD
      00000098H   SFRSYM    DATA     BIT       RI
      000000F8H.7 SFRSYM    DATA     BIT       FE_1
      000000E8H.6 SFRSYM    DATA     BIT       ADCS
      000000D0H.7 SFRSYM    DATA     BIT       CY
      000000C0H.3 SFRSYM    DATA     BIT       SI
      000000B0H   SFRSYM    DATA     BIT       INT0
      00000098H.1 SFRSYM    DATA     BIT       TI
      000000D8H.6 SFRSYM    DATA     BIT       LOAD
      00000097H   SFRSYM    DATA     BYTE      CKEN
      000000B8H.4 SFRSYM    DATA     BIT       PS
      00000081H   SFRSYM    DATA     BYTE      SP
      000000D0H.2 SFRSYM    DATA     BIT       OV
      000000B7H   SFRSYM    DATA     BYTE      PWMINTC
      000000B8H.5 SFRSYM    DATA     BIT       PBOD
      000000B2H   SFRSYM    DATA     BYTE      P0SR
      000000F7H   SFRSYM    DATA     BYTE      EIPH
      000000B4H   SFRSYM    DATA     BYTE      P1SR
      000000ADH   SFRSYM    DATA     BYTE      P3SR
      000000F8H   SFRSYM    DATA     BIT       RI_1
      000000F8H.1 SFRSYM    DATA     BIT       TI_1
      000000CBH   SFRSYM    DATA     BYTE      RCMP2H
      000000CFH   SFRSYM    DATA     BYTE      ADCMPH
      00000080H   SFRSYM    DATA     BIT       P00
      00000090H   SFRSYM    DATA     BIT       P10
      00000080H.1 SFRSYM    DATA     BIT       P01
      000000FBH   SFRSYM    DATA     BYTE      PMEN
      00000099H   SFRSYM    DATA     BYTE      SBUF
      00000087H   SFRSYM    DATA     BYTE      PCON
      000000A0H   SFRSYM    DATA     BIT       P20
      00000090H.1 SFRSYM    DATA     BIT       P11
      00000080H.2 SFRSYM    DATA     BIT       P02
      000000CAH   SFRSYM    DATA     BYTE      RCMP2L
      000000B0H   SFRSYM    DATA     BIT       P30
      00000090H.2 SFRSYM    DATA     BIT       P12
      00000080H.3 SFRSYM    DATA     BIT       P03
      000000E3H   SFRSYM    DATA     BYTE      ADCDLY
      000000CEH   SFRSYM    DATA     BYTE      ADCMPL
      00000090H.3 SFRSYM    DATA     BIT       P13
      00000080H.4 SFRSYM    DATA     BIT       P04
      00000098H   SFRSYM    DATA     BYTE      SCON
      00000090H.4 SFRSYM    DATA     BIT       P14
      00000080H.5 SFRSYM    DATA     BIT       P05
      00000089H   SFRSYM    DATA     BYTE      TMOD
      00000088H   SFRSYM    DATA     BYTE      TCON
      00000090H.5 SFRSYM    DATA     BIT       P15
      00000080H.6 SFRSYM    DATA     BIT       P06
      00000090H.6 SFRSYM    DATA     BIT       P16
      00000080H.7 SFRSYM    DATA     BIT       P07
      00000090H.7 SFRSYM    DATA     BIT       P17
      000000F3H   SFRSYM    DATA     BYTE      SPCR
      000000BDH   SFRSYM    DATA     BYTE      I2STAT
      000000F5H   SFRSYM    DATA     BYTE      SPDR
      000000D8H.5 SFRSYM    DATA     BIT       PWMF
      000000E5H   SFRSYM    DATA     BYTE      C0H
      000000E7H   SFRSYM    DATA     BYTE      C1H
      000000EEH   SFRSYM    DATA     BYTE      C2H
      0000009FH   SFRSYM    DATA     BYTE      CHPCON
      00000088H.1 SFRSYM    DATA     BIT       IE0
      00000088H.3 SFRSYM    DATA     BIT       IE1
LX51 LINKER/LOCATER V4.66.1.0                                                         10/19/2019  14:09:51  PAGE 25


      000000E4H   SFRSYM    DATA     BYTE      C0L
      00000091H   SFRSYM    DATA     BYTE      SFRS
      000000E6H   SFRSYM    DATA     BYTE      C1L
      000000C8H   SFRSYM    DATA     BIT       CM_RL2
      000000F0H   SFRSYM    DATA     BYTE      B
      000000EDH   SFRSYM    DATA     BYTE      C2L
      0000009AH   SFRSYM    DATA     BYTE      SBUF_1
      000000A5H   SFRSYM    DATA     BYTE      IAPUEN
      000000F8H   SFRSYM    DATA     BYTE      SCON_1
      000000E0H   SFRSYM    DATA     BYTE      ACC
      000000A8H.1 SFRSYM    DATA     BIT       ET0
      000000F4H   SFRSYM    DATA     BYTE      SPSR
      000000A4H   SFRSYM    DATA     BYTE      IAPTRG
      000000A8H.3 SFRSYM    DATA     BIT       ET1
      00000088H.5 SFRSYM    DATA     BIT       TF0
      00000088H.7 SFRSYM    DATA     BIT       TF1
      000000C8H.7 SFRSYM    DATA     BIT       TF2
      00000098H.2 SFRSYM    DATA     BIT       RB8
      000000D7H   SFRSYM    DATA     BYTE      FBD
      0000008CH   SFRSYM    DATA     BYTE      TH0
      000000A8H   SFRSYM    DATA     BIT       EX0
      00000088H   SFRSYM    DATA     BIT       IT0
      000000C6H   SFRSYM    DATA     BYTE      RH3
      0000008DH   SFRSYM    DATA     BYTE      TH1
      000000A8H.2 SFRSYM    DATA     BIT       EX1
      00000098H.3 SFRSYM    DATA     BIT       TB8
      00000088H.2 SFRSYM    DATA     BIT       IT1
      000000CDH   SFRSYM    DATA     BYTE      TH2
      000000D0H   SFRSYM    DATA     BIT       P
      000000FAH   SFRSYM    DATA     BYTE      PDTCNT
      00000098H.7 SFRSYM    DATA     BIT       SM0
      0000008AH   SFRSYM    DATA     BYTE      TL0
      00000098H.6 SFRSYM    DATA     BIT       SM1
      000000C5H   SFRSYM    DATA     BYTE      RL3
      0000008BH   SFRSYM    DATA     BYTE      TL1
      000000C0H.6 SFRSYM    DATA     BIT       I2CEN
      00000098H.5 SFRSYM    DATA     BIT       SM2
      000000CCH   SFRSYM    DATA     BYTE      TL2
      000000B1H   SFRSYM    DATA     BYTE      P0S
      0000009BH   SFRSYM    DATA     BYTE      EIE
      000000B8H.1 SFRSYM    DATA     BIT       PT0
      000000B3H   SFRSYM    DATA     BYTE      P1S
      000000D0H.3 SFRSYM    DATA     BIT       RS0
      000000B8H.3 SFRSYM    DATA     BIT       PT1
      000000BCH   SFRSYM    DATA     BYTE      I2DAT
      000000B5H   SFRSYM    DATA     BYTE      P2S
      000000D0H.4 SFRSYM    DATA     BIT       RS1
      00000088H.4 SFRSYM    DATA     BIT       TR0
      000000BEH   SFRSYM    DATA     BYTE      I2CLK
      000000ACH   SFRSYM    DATA     BYTE      P3S
      000000D8H.4 SFRSYM    DATA     BIT       CLRPWM
      00000088H.6 SFRSYM    DATA     BIT       TR1
      000000C8H.2 SFRSYM    DATA     BIT       TR2
      000000B8H   SFRSYM    DATA     BIT       PX0
      00000090H.4 SFRSYM    DATA     BIT       SDA
      000000FFH   SFRSYM    DATA     BYTE      EIPH1
      000000B8H.2 SFRSYM    DATA     BIT       PX1
      000000E8H   SFRSYM    DATA     BYTE      ADCCON0
      000000E1H   SFRSYM    DATA     BYTE      ADCCON1
      000000E2H   SFRSYM    DATA     BYTE      ADCCON2
      000000C0H   SFRSYM    DATA     BYTE      I2CON
      00000083H   SFRSYM    DATA     BYTE      DPH
      000000F8H.2 SFRSYM    DATA     BIT       RB8_1
      000000EFH   SFRSYM    DATA     BYTE      EIP
      000000F8H.3 SFRSYM    DATA     BIT       TB8_1
LX51 LINKER/LOCATER V4.66.1.0                                                         10/19/2019  14:09:51  PAGE 26


      000000ECH   SFRSYM    DATA     BYTE      PIF
      00000082H   SFRSYM    DATA     BYTE      DPL
      000000F8H.7 SFRSYM    DATA     BIT       SM0_1
      000000FCH   SFRSYM    DATA     BYTE      PMD
      000000B7H   SFRSYM    DATA     BYTE      IPH
      000000F8H.6 SFRSYM    DATA     BIT       SM1_1
      00000090H.3 SFRSYM    DATA     BIT       SCL
      000000BFH   SFRSYM    DATA     BYTE      I2TOC
      000000F8H.5 SFRSYM    DATA     BIT       SM2_1
      000000C3H   SFRSYM    DATA     BYTE      ADCRH
      000000A7H   SFRSYM    DATA     BYTE      IAPAH
      00000098H.4 SFRSYM    DATA     BIT       REN
      000000AEH   SFRSYM    DATA     BYTE      IAPFD
      00000092H   SFRSYM    DATA     BYTE      CAPCON0
      000000C0H   SFRSYM    DATA     BIT       I2CPX
      000000C9H   SFRSYM    DATA     BYTE      T2MOD
      000000C8H   SFRSYM    DATA     BYTE      T2CON
      000000C2H   SFRSYM    DATA     BYTE      ADCRL
      000000A3H   SFRSYM    DATA     BYTE      BODCON0
      00000093H   SFRSYM    DATA     BYTE      CAPCON1
      000000C0H.5 SFRSYM    DATA     BIT       STA
      000000C4H   SFRSYM    DATA     BYTE      T3CON
      000000ABH   SFRSYM    DATA     BYTE      BODCON1
      000000A6H   SFRSYM    DATA     BYTE      IAPAL
      00000094H   SFRSYM    DATA     BYTE      CAPCON2
      000000F1H   SFRSYM    DATA     BYTE      CAPCON3
      000000F2H   SFRSYM    DATA     BYTE      CAPCON4
      000000D8H.7 SFRSYM    DATA     BIT       PWMRUN
      000000F3H   SFRSYM    DATA     BYTE      SPCR2
      000000B9H   SFRSYM    DATA     BYTE      SADEN
      000000AFH   SFRSYM    DATA     BYTE      IAPCN
      000000D2H   SFRSYM    DATA     BYTE      PWM0H
      000000D6H   SFRSYM    DATA     BYTE      PNP
      000000D3H   SFRSYM    DATA     BYTE      PWM1H
      000000D4H   SFRSYM    DATA     BYTE      PWM2H
      000000A9H   SFRSYM    DATA     BYTE      SADDR
      0000008EH   SFRSYM    DATA     BYTE      CKCON
      000000D5H   SFRSYM    DATA     BYTE      PWM3H
      000000DAH   SFRSYM    DATA     BYTE      PWM0L
      000000C4H   SFRSYM    DATA     BYTE      PWM4H
      000000DBH   SFRSYM    DATA     BYTE      PWM1L
      000000C5H   SFRSYM    DATA     BYTE      PWM5H
      000000A2H   SFRSYM    DATA     BYTE      AUXR1
      00000095H   SFRSYM    DATA     BYTE      CKDIV
      000000DCH   SFRSYM    DATA     BYTE      PWM2L
      000000DDH   SFRSYM    DATA     BYTE      PWM3L
      00000086H   SFRSYM    DATA     BYTE      RWK
      000000D0H.5 SFRSYM    DATA     BIT       F0
      000000CCH   SFRSYM    DATA     BYTE      PWM4L
      000000F8H.4 SFRSYM    DATA     BIT       REN_1
      000000E8H.4 SFRSYM    DATA     BIT       ETGSEL0
      000000C0H.4 SFRSYM    DATA     BIT       STO
      000000CDH   SFRSYM    DATA     BYTE      PWM5L
      000000E8H.5 SFRSYM    DATA     BIT       ETGSEL1
      000000E9H   SFRSYM    DATA     BYTE      PICON
      000000DEH   SFRSYM    DATA     BYTE      PIOCON0
      000000D0H   SFRSYM    DATA     BYTE      PSW
      000000EAH   SFRSYM    DATA     BYTE      PINEN
      000000C6H   SFRSYM    DATA     BYTE      PIOCON1
      000000F9H   SFRSYM    DATA     BYTE      PDTEN
      000000AAH   SFRSYM    DATA     BYTE      WDCON
      000000EBH   SFRSYM    DATA     BYTE      PIPEN
      000000BAH   SFRSYM    DATA     BYTE      SADEN_1

      0100004BH   BLOCK     CODE     ---       LVL=0
LX51 LINKER/LOCATER V4.66.1.0                                                         10/19/2019  14:09:51  PAGE 27


      0100004BH   LINE      ---      ---       #15
      0100004BH   LINE      ---      ---       #16
      0100004BH   LINE      ---      ---       #20
      0100004EH   LINE      ---      ---       #21
      01000051H   LINE      ---      ---       #22
      01000053H   LINE      ---      ---       #24
      ---         BLOCKEND  ---      ---       LVL=0

      0100068BH   BLOCK     CODE     ---       LVL=0
      0100068BH   LINE      ---      ---       #26
      0100068BH   LINE      ---      ---       #27
      00000007H   SYMBOL    DATA     BYTE      CHS
      0100068BH   BLOCK     CODE     NEAR LAB  LVL=1
      0100068BH   LINE      ---      ---       #28
      0100069EH   LINE      ---      ---       #29
      010006A3H   LINE      ---      ---       #30
      010006A5H   LINE      ---      ---       #31
      010006A7H   LINE      ---      ---       #32
      010006AAH   LINE      ---      ---       #33
      010006ACH   LINE      ---      ---       #34
      010006C0H   LINE      ---      ---       #35
      010006D3H   LINE      ---      ---       #36
      010006D3H   LINE      ---      ---       #37
      00000006H   SYMBOL    DATA     WORD      new_value
      ---         BLOCKEND  CODE     ---       LVL=1
      ---         BLOCKEND  CODE     ---       LVL=0

      0100087DH   BLOCK     CODE     ---       LVL=0
      0100087DH   LINE      ---      ---       #43
      0100087DH   LINE      ---      ---       #44
      0100087DH   LINE      ---      ---       #45
      01000880H   LINE      ---      ---       #46
      01000882H   LINE      ---      ---       #47
      01000884H   LINE      ---      ---       #48
      ---         BLOCKEND  ---      ---       LVL=0

      01000885H   BLOCK     CODE     ---       LVL=0
      01000898H   LINE      ---      ---       #92
      01000898H   BLOCK     CODE     NEAR LAB  LVL=1
      01000898H   LINE      ---      ---       #94
      010008B2H   LINE      ---      ---       #96
      010008B4H   LINE      ---      ---       #117
      0200017EH   SYMBOL    XDATA    WORD      new_value
      ---         BLOCKEND  CODE     ---       LVL=1
      ---         BLOCKEND  CODE     ---       LVL=0

      ---         MODULE    ---      ---       EEPROM
      01000A86H   PUBLIC    CODE     ---       eeprom_save_registers
      01000A64H   PUBLIC    CODE     ---       eeprom_restore_registers
      010009ABH   PUBLIC    CODE     ---       eeprom_erase
      010009C8H   PUBLIC    CODE     ---       _readrom
      01000952H   PUBLIC    CODE     ---       _writerom
      020001B4H   PUBLIC    XDATA    BYTE      ?_eeprom_write_block?BYTE
      01000AA6H   PUBLIC    CODE     ---       _eeprom_write_block
      020001ADH   PUBLIC    XDATA    BYTE      ?_eeprom_read_block?BYTE
      01000B02H   PUBLIC    CODE     ---       _eeprom_read_block
      01000928H   PUBLIC    CODE     ---       _WriteDATA_ISP
      010008F6H   PUBLIC    CODE     ---       _Write_ISP
      01000A3AH   PUBLIC    CODE     ---       _ReadDATA_ISP
      01000A5CH   PUBLIC    CODE     ---       _Read_APROM_BYTE
      010008D8H   PUBLIC    CODE     ---       _ERASE
      01000915H   PUBLIC    CODE     ---       ISP_OPEN
      010008C5H   PUBLIC    CODE     ---       ISP_DIS
      000000F6H   SFRSYM    DATA     BYTE      AINDIDS
      000000B1H   SFRSYM    DATA     BYTE      P0M1
LX51 LINKER/LOCATER V4.66.1.0                                                         10/19/2019  14:09:51  PAGE 28


      000000B3H   SFRSYM    DATA     BYTE      P1M1
      000000B2H   SFRSYM    DATA     BYTE      P0M2
      00000080H   SFRSYM    DATA     BYTE      P0
      000000BBH   SFRSYM    DATA     BYTE      SADDR_1
      000000B4H   SFRSYM    DATA     BYTE      P1M2
      00000090H   SFRSYM    DATA     BYTE      P1
      000000C0H.2 SFRSYM    DATA     BIT       AA
      000000ACH   SFRSYM    DATA     BYTE      P3M1
      000000A0H   SFRSYM    DATA     BYTE      P2
      000000B0H   SFRSYM    DATA     BYTE      P3
      000000ADH   SFRSYM    DATA     BYTE      P3M2
      000000D0H.6 SFRSYM    DATA     BIT       AC
      0000008FH   SFRSYM    DATA     BYTE      WKCON
      0000009CH   SFRSYM    DATA     BYTE      EIE1
      000000A8H.7 SFRSYM    DATA     BIT       EA
      000000D8H   SFRSYM    DATA     BYTE      PWMCON0
      000000DFH   SFRSYM    DATA     BYTE      PWMCON1
      00000098H.7 SFRSYM    DATA     BIT       FE
      000000A8H.6 SFRSYM    DATA     BIT       EADC
      000000D1H   SFRSYM    DATA     BYTE      PWMPH
      000000A8H   SFRSYM    DATA     BYTE      IE
      00000096H   SFRSYM    DATA     BYTE      CKSWT
      000000E8H.7 SFRSYM    DATA     BIT       ADCF
      000000FEH   SFRSYM    DATA     BYTE      EIP1
      000000D9H   SFRSYM    DATA     BYTE      PWMPL
      000000E8H   SFRSYM    DATA     BIT       ADCHS0
      000000C7H   SFRSYM    DATA     BYTE      TA
      000000E8H.1 SFRSYM    DATA     BIT       ADCHS1
      000000E8H.2 SFRSYM    DATA     BIT       ADCHS2
      000000E8H.3 SFRSYM    DATA     BIT       ADCHS3
      000000A8H.4 SFRSYM    DATA     BIT       ES
      000000C1H   SFRSYM    DATA     BYTE      I2ADDR
      000000B8H.6 SFRSYM    DATA     BIT       PADC
      000000B8H   SFRSYM    DATA     BYTE      IP
      000000A8H.5 SFRSYM    DATA     BIT       EBOD
      00000098H   SFRSYM    DATA     BIT       RI
      000000F8H.7 SFRSYM    DATA     BIT       FE_1
      000000E8H.6 SFRSYM    DATA     BIT       ADCS
      000000D0H.7 SFRSYM    DATA     BIT       CY
      000000C0H.3 SFRSYM    DATA     BIT       SI
      000000B0H   SFRSYM    DATA     BIT       INT0
      00000098H.1 SFRSYM    DATA     BIT       TI
      000000D8H.6 SFRSYM    DATA     BIT       LOAD
      00000097H   SFRSYM    DATA     BYTE      CKEN
      000000B8H.4 SFRSYM    DATA     BIT       PS
      00000081H   SFRSYM    DATA     BYTE      SP
      000000D0H.2 SFRSYM    DATA     BIT       OV
      000000B7H   SFRSYM    DATA     BYTE      PWMINTC
      000000B8H.5 SFRSYM    DATA     BIT       PBOD
      000000B2H   SFRSYM    DATA     BYTE      P0SR
      000000F7H   SFRSYM    DATA     BYTE      EIPH
      000000B4H   SFRSYM    DATA     BYTE      P1SR
      000000ADH   SFRSYM    DATA     BYTE      P3SR
      000000F8H   SFRSYM    DATA     BIT       RI_1
      000000F8H.1 SFRSYM    DATA     BIT       TI_1
      000000CBH   SFRSYM    DATA     BYTE      RCMP2H
      000000CFH   SFRSYM    DATA     BYTE      ADCMPH
      00000080H   SFRSYM    DATA     BIT       P00
      00000090H   SFRSYM    DATA     BIT       P10
      00000080H.1 SFRSYM    DATA     BIT       P01
      000000FBH   SFRSYM    DATA     BYTE      PMEN
      00000099H   SFRSYM    DATA     BYTE      SBUF
      00000087H   SFRSYM    DATA     BYTE      PCON
      000000A0H   SFRSYM    DATA     BIT       P20
      00000090H.1 SFRSYM    DATA     BIT       P11
LX51 LINKER/LOCATER V4.66.1.0                                                         10/19/2019  14:09:51  PAGE 29


      00000080H.2 SFRSYM    DATA     BIT       P02
      000000CAH   SFRSYM    DATA     BYTE      RCMP2L
      000000B0H   SFRSYM    DATA     BIT       P30
      00000090H.2 SFRSYM    DATA     BIT       P12
      00000080H.3 SFRSYM    DATA     BIT       P03
      000000E3H   SFRSYM    DATA     BYTE      ADCDLY
      000000CEH   SFRSYM    DATA     BYTE      ADCMPL
      00000090H.3 SFRSYM    DATA     BIT       P13
      00000080H.4 SFRSYM    DATA     BIT       P04
      00000098H   SFRSYM    DATA     BYTE      SCON
      00000090H.4 SFRSYM    DATA     BIT       P14
      00000080H.5 SFRSYM    DATA     BIT       P05
      00000089H   SFRSYM    DATA     BYTE      TMOD
      00000088H   SFRSYM    DATA     BYTE      TCON
      00000090H.5 SFRSYM    DATA     BIT       P15
      00000080H.6 SFRSYM    DATA     BIT       P06
      00000090H.6 SFRSYM    DATA     BIT       P16
      00000080H.7 SFRSYM    DATA     BIT       P07
      00000090H.7 SFRSYM    DATA     BIT       P17
      000000F3H   SFRSYM    DATA     BYTE      SPCR
      000000BDH   SFRSYM    DATA     BYTE      I2STAT
      000000F5H   SFRSYM    DATA     BYTE      SPDR
      000000D8H.5 SFRSYM    DATA     BIT       PWMF
      000000E5H   SFRSYM    DATA     BYTE      C0H
      000000E7H   SFRSYM    DATA     BYTE      C1H
      000000EEH   SFRSYM    DATA     BYTE      C2H
      0000009FH   SFRSYM    DATA     BYTE      CHPCON
      00000088H.1 SFRSYM    DATA     BIT       IE0
      00000088H.3 SFRSYM    DATA     BIT       IE1
      000000E4H   SFRSYM    DATA     BYTE      C0L
      00000091H   SFRSYM    DATA     BYTE      SFRS
      000000E6H   SFRSYM    DATA     BYTE      C1L
      000000C8H   SFRSYM    DATA     BIT       CM_RL2
      000000F0H   SFRSYM    DATA     BYTE      B
      000000EDH   SFRSYM    DATA     BYTE      C2L
      0000009AH   SFRSYM    DATA     BYTE      SBUF_1
      000000A5H   SFRSYM    DATA     BYTE      IAPUEN
      000000F8H   SFRSYM    DATA     BYTE      SCON_1
      000000E0H   SFRSYM    DATA     BYTE      ACC
      000000A8H.1 SFRSYM    DATA     BIT       ET0
      000000F4H   SFRSYM    DATA     BYTE      SPSR
      000000A4H   SFRSYM    DATA     BYTE      IAPTRG
      000000A8H.3 SFRSYM    DATA     BIT       ET1
      00000088H.5 SFRSYM    DATA     BIT       TF0
      00000088H.7 SFRSYM    DATA     BIT       TF1
      000000C8H.7 SFRSYM    DATA     BIT       TF2
      00000098H.2 SFRSYM    DATA     BIT       RB8
      000000D7H   SFRSYM    DATA     BYTE      FBD
      0000008CH   SFRSYM    DATA     BYTE      TH0
      000000A8H   SFRSYM    DATA     BIT       EX0
      00000088H   SFRSYM    DATA     BIT       IT0
      000000C6H   SFRSYM    DATA     BYTE      RH3
      0000008DH   SFRSYM    DATA     BYTE      TH1
      000000A8H.2 SFRSYM    DATA     BIT       EX1
      00000098H.3 SFRSYM    DATA     BIT       TB8
      00000088H.2 SFRSYM    DATA     BIT       IT1
      000000CDH   SFRSYM    DATA     BYTE      TH2
      000000D0H   SFRSYM    DATA     BIT       P
      000000FAH   SFRSYM    DATA     BYTE      PDTCNT
      00000098H.7 SFRSYM    DATA     BIT       SM0
      0000008AH   SFRSYM    DATA     BYTE      TL0
      00000098H.6 SFRSYM    DATA     BIT       SM1
      000000C5H   SFRSYM    DATA     BYTE      RL3
      0000008BH   SFRSYM    DATA     BYTE      TL1
      000000C0H.6 SFRSYM    DATA     BIT       I2CEN
LX51 LINKER/LOCATER V4.66.1.0                                                         10/19/2019  14:09:51  PAGE 30


      00000098H.5 SFRSYM    DATA     BIT       SM2
      000000CCH   SFRSYM    DATA     BYTE      TL2
      000000B1H   SFRSYM    DATA     BYTE      P0S
      0000009BH   SFRSYM    DATA     BYTE      EIE
      000000B8H.1 SFRSYM    DATA     BIT       PT0
      000000B3H   SFRSYM    DATA     BYTE      P1S
      000000D0H.3 SFRSYM    DATA     BIT       RS0
      000000B8H.3 SFRSYM    DATA     BIT       PT1
      000000BCH   SFRSYM    DATA     BYTE      I2DAT
      000000B5H   SFRSYM    DATA     BYTE      P2S
      000000D0H.4 SFRSYM    DATA     BIT       RS1
      00000088H.4 SFRSYM    DATA     BIT       TR0
      000000BEH   SFRSYM    DATA     BYTE      I2CLK
      000000ACH   SFRSYM    DATA     BYTE      P3S
      000000D8H.4 SFRSYM    DATA     BIT       CLRPWM
      00000088H.6 SFRSYM    DATA     BIT       TR1
      000000C8H.2 SFRSYM    DATA     BIT       TR2
      000000B8H   SFRSYM    DATA     BIT       PX0
      00000090H.4 SFRSYM    DATA     BIT       SDA
      000000FFH   SFRSYM    DATA     BYTE      EIPH1
      000000B8H.2 SFRSYM    DATA     BIT       PX1
      000000E8H   SFRSYM    DATA     BYTE      ADCCON0
      000000E1H   SFRSYM    DATA     BYTE      ADCCON1
      000000E2H   SFRSYM    DATA     BYTE      ADCCON2
      000000C0H   SFRSYM    DATA     BYTE      I2CON
      00000083H   SFRSYM    DATA     BYTE      DPH
      000000F8H.2 SFRSYM    DATA     BIT       RB8_1
      000000EFH   SFRSYM    DATA     BYTE      EIP
      000000F8H.3 SFRSYM    DATA     BIT       TB8_1
      000000ECH   SFRSYM    DATA     BYTE      PIF
      00000082H   SFRSYM    DATA     BYTE      DPL
      000000F8H.7 SFRSYM    DATA     BIT       SM0_1
      000000FCH   SFRSYM    DATA     BYTE      PMD
      000000B7H   SFRSYM    DATA     BYTE      IPH
      000000F8H.6 SFRSYM    DATA     BIT       SM1_1
      00000090H.3 SFRSYM    DATA     BIT       SCL
      000000BFH   SFRSYM    DATA     BYTE      I2TOC
      000000F8H.5 SFRSYM    DATA     BIT       SM2_1
      000000C3H   SFRSYM    DATA     BYTE      ADCRH
      000000A7H   SFRSYM    DATA     BYTE      IAPAH
      00000098H.4 SFRSYM    DATA     BIT       REN
      000000AEH   SFRSYM    DATA     BYTE      IAPFD
      00000092H   SFRSYM    DATA     BYTE      CAPCON0
      000000C0H   SFRSYM    DATA     BIT       I2CPX
      000000C9H   SFRSYM    DATA     BYTE      T2MOD
      000000C8H   SFRSYM    DATA     BYTE      T2CON
      000000C2H   SFRSYM    DATA     BYTE      ADCRL
      000000A3H   SFRSYM    DATA     BYTE      BODCON0
      00000093H   SFRSYM    DATA     BYTE      CAPCON1
      000000C0H.5 SFRSYM    DATA     BIT       STA
      000000C4H   SFRSYM    DATA     BYTE      T3CON
      000000ABH   SFRSYM    DATA     BYTE      BODCON1
      000000A6H   SFRSYM    DATA     BYTE      IAPAL
      00000094H   SFRSYM    DATA     BYTE      CAPCON2
      000000F1H   SFRSYM    DATA     BYTE      CAPCON3
      000000F2H   SFRSYM    DATA     BYTE      CAPCON4
      000000D8H.7 SFRSYM    DATA     BIT       PWMRUN
      000000F3H   SFRSYM    DATA     BYTE      SPCR2
      000000B9H   SFRSYM    DATA     BYTE      SADEN
      000000AFH   SFRSYM    DATA     BYTE      IAPCN
      000000D2H   SFRSYM    DATA     BYTE      PWM0H
      000000D6H   SFRSYM    DATA     BYTE      PNP
      000000D3H   SFRSYM    DATA     BYTE      PWM1H
      000000D4H   SFRSYM    DATA     BYTE      PWM2H
      000000A9H   SFRSYM    DATA     BYTE      SADDR
LX51 LINKER/LOCATER V4.66.1.0                                                         10/19/2019  14:09:51  PAGE 31


      0000008EH   SFRSYM    DATA     BYTE      CKCON
      000000D5H   SFRSYM    DATA     BYTE      PWM3H
      000000DAH   SFRSYM    DATA     BYTE      PWM0L
      000000C4H   SFRSYM    DATA     BYTE      PWM4H
      000000DBH   SFRSYM    DATA     BYTE      PWM1L
      000000C5H   SFRSYM    DATA     BYTE      PWM5H
      000000A2H   SFRSYM    DATA     BYTE      AUXR1
      00000095H   SFRSYM    DATA     BYTE      CKDIV
      000000DCH   SFRSYM    DATA     BYTE      PWM2L
      000000DDH   SFRSYM    DATA     BYTE      PWM3L
      00000086H   SFRSYM    DATA     BYTE      RWK
      000000D0H.5 SFRSYM    DATA     BIT       F0
      000000CCH   SFRSYM    DATA     BYTE      PWM4L
      000000F8H.4 SFRSYM    DATA     BIT       REN_1
      000000E8H.4 SFRSYM    DATA     BIT       ETGSEL0
      000000C0H.4 SFRSYM    DATA     BIT       STO
      000000CDH   SFRSYM    DATA     BYTE      PWM5L
      000000E8H.5 SFRSYM    DATA     BIT       ETGSEL1
      000000E9H   SFRSYM    DATA     BYTE      PICON
      000000DEH   SFRSYM    DATA     BYTE      PIOCON0
      000000D0H   SFRSYM    DATA     BYTE      PSW
      000000EAH   SFRSYM    DATA     BYTE      PINEN
      000000C6H   SFRSYM    DATA     BYTE      PIOCON1
      000000F9H   SFRSYM    DATA     BYTE      PDTEN
      000000AAH   SFRSYM    DATA     BYTE      WDCON
      000000EBH   SFRSYM    DATA     BYTE      PIPEN
      000000BAH   SFRSYM    DATA     BYTE      SADEN_1
      01000B5EH   SYMBOL    CODE     ---       _eeprom_checksum

      010008C5H   BLOCK     CODE     ---       LVL=0
      010008C5H   LINE      ---      ---       #12
      010008C5H   LINE      ---      ---       #13
      010008C5H   LINE      ---      ---       #14
      010008C8H   LINE      ---      ---       #15
      010008CBH   LINE      ---      ---       #16
      010008CEH   LINE      ---      ---       #17
      010008D1H   LINE      ---      ---       #18
      010008D4H   LINE      ---      ---       #19
      010008D7H   LINE      ---      ---       #20
      ---         BLOCKEND  ---      ---       LVL=0

      01000915H   BLOCK     CODE     ---       LVL=0
      01000915H   LINE      ---      ---       #24
      01000915H   LINE      ---      ---       #25
      01000915H   LINE      ---      ---       #26
      01000918H   LINE      ---      ---       #27
      0100091BH   LINE      ---      ---       #28
      0100091EH   LINE      ---      ---       #29
      01000921H   LINE      ---      ---       #30
      01000924H   LINE      ---      ---       #31
      01000927H   LINE      ---      ---       #32
      ---         BLOCKEND  ---      ---       LVL=0

      010008D8H   BLOCK     CODE     ---       LVL=0
      010008D8H   LINE      ---      ---       #36
      010008DCH   LINE      ---      ---       #37
      010008DCH   LINE      ---      ---       #38
      010008DEH   LINE      ---      ---       #39
      010008E1H   LINE      ---      ---       #40
      010008E4H   LINE      ---      ---       #41
      010008E8H   LINE      ---      ---       #42
      010008EBH   LINE      ---      ---       #43
      010008EEH   LINE      ---      ---       #44
      010008F1H   LINE      ---      ---       #45
      010008F4H   LINE      ---      ---       #46
LX51 LINKER/LOCATER V4.66.1.0                                                         10/19/2019  14:09:51  PAGE 32


      00000004H   SYMBOL    DATA     WORD      addr
      ---         BLOCKEND  ---      ---       LVL=0

      01000A5CH   BLOCK     CODE     ---       LVL=0
      01000A5CH   LINE      ---      ---       #51
      01000A60H   LINE      ---      ---       #52
      00000082H   SYMBOL    DATA     ---       u16_addr
      01000A60H   BLOCK     CODE     NEAR LAB  LVL=1
      01000A60H   LINE      ---      ---       #54
      01000A63H   LINE      ---      ---       #55
      01000A63H   LINE      ---      ---       #56
      00000007H   SYMBOL    DATA     BYTE      rdata
      ---         BLOCKEND  CODE     ---       LVL=1
      ---         BLOCKEND  CODE     ---       LVL=0

      01000A3AH   BLOCK     CODE     ---       LVL=0
      01000A3AH   LINE      ---      ---       #60
      01000A3EH   LINE      ---      ---       #61
      00000004H   SYMBOL    DATA     WORD      bite_addr
      01000A3EH   BLOCK     CODE     NEAR LAB  LVL=1
      01000A3EH   LINE      ---      ---       #64
      01000A40H   LINE      ---      ---       #65
      01000A44H   LINE      ---      ---       #66
      01000A4FH   LINE      ---      ---       #67
      01000A59H   LINE      ---      ---       #68
      01000A5BH   LINE      ---      ---       #69
      01000A5BH   LINE      ---      ---       #71
      00000006H   SYMBOL    DATA     WORD      DATA
      00000003H   SYMBOL    DATA     BYTE      BITE
      ---         BLOCKEND  CODE     ---       LVL=1
      ---         BLOCKEND  CODE     ---       LVL=0

      010008F6H   BLOCK     CODE     ---       LVL=0
      010008F6H   LINE      ---      ---       #76
      010008FAH   LINE      ---      ---       #77
      010008FAH   LINE      ---      ---       #78
      010008FCH   LINE      ---      ---       #79
      010008FFH   LINE      ---      ---       #80
      01000902H   LINE      ---      ---       #81
      01000906H   LINE      ---      ---       #82
      0100090AH   LINE      ---      ---       #83
      0100090DH   LINE      ---      ---       #84
      01000910H   LINE      ---      ---       #85
      01000913H   LINE      ---      ---       #86
      00000002H   SYMBOL    DATA     WORD      bite_addr
      00000005H   SYMBOL    DATA     BYTE      DATA
      ---         BLOCKEND  ---      ---       LVL=0

      01000928H   BLOCK     CODE     ---       LVL=0
      01000928H   LINE      ---      ---       #91
      01000936H   LINE      ---      ---       #92
      01000936H   LINE      ---      ---       #93
      01000938H   LINE      ---      ---       #95
      0100093AH   LINE      ---      ---       #96
      0100094FH   LINE      ---      ---       #97
      01000951H   LINE      ---      ---       #98
      020001DEH   SYMBOL    XDATA    WORD      bite_addr
      020001E0H   SYMBOL    XDATA    WORD      DATA
      ---         BLOCKEND  ---      ---       LVL=0

      01000B02H   BLOCK     CODE     ---       LVL=0
      01000B02H   LINE      ---      ---       #99
      01000B13H   LINE      ---      ---       #100
      020001ADH   SYMBOL    XDATA    ---       Data_Buf
      020001B0H   SYMBOL    XDATA    WORD      bite_addr
LX51 LINKER/LOCATER V4.66.1.0                                                         10/19/2019  14:09:51  PAGE 33


      020001B2H   SYMBOL    XDATA    BYTE      n
      01000B13H   BLOCK     CODE     NEAR LAB  LVL=1
      01000B13H   LINE      ---      ---       #101
      01000B18H   LINE      ---      ---       #103
      01000B25H   LINE      ---      ---       #104
      01000B5DH   LINE      ---      ---       #106
      020001B3H   SYMBOL    XDATA    BYTE      i
      ---         BLOCKEND  CODE     ---       LVL=1
      ---         BLOCKEND  CODE     ---       LVL=0

      01000AA6H   BLOCK     CODE     ---       LVL=0
      01000AA6H   LINE      ---      ---       #107
      01000AB7H   LINE      ---      ---       #108
      020001B4H   SYMBOL    XDATA    ---       Data_Buf
      020001B7H   SYMBOL    XDATA    WORD      bite_addr
      020001B9H   SYMBOL    XDATA    BYTE      n
      01000AB7H   BLOCK     CODE     NEAR LAB  LVL=1
      01000ABCH   LINE      ---      ---       #109
      01000AC9H   LINE      ---      ---       #110
      01000AC9H   LINE      ---      ---       #111
      01000AF9H   LINE      ---      ---       #112
      01000B01H   LINE      ---      ---       #114
      020001BAH   SYMBOL    XDATA    BYTE      i
      ---         BLOCKEND  CODE     ---       LVL=1
      ---         BLOCKEND  CODE     ---       LVL=0

      01000952H   BLOCK     CODE     ---       LVL=0
      01000952H   LINE      ---      ---       #115
      01000960H   LINE      ---      ---       #116
      020001D9H   SYMBOL    XDATA    ---       Data_Buf
      020001DCH   SYMBOL    XDATA    BYTE      n
      01000960H   BLOCK     CODE     NEAR LAB  LVL=1
      01000960H   LINE      ---      ---       #117
      01000966H   LINE      ---      ---       #118
      01000975H   LINE      ---      ---       #119
      01000975H   LINE      ---      ---       #120
      010009A2H   LINE      ---      ---       #121
      010009AAH   LINE      ---      ---       #122
      020001DDH   SYMBOL    XDATA    BYTE      dispLine
      ---         BLOCKEND  CODE     ---       LVL=1
      ---         BLOCKEND  CODE     ---       LVL=0

      010009C8H   BLOCK     CODE     ---       LVL=0
      010009C8H   LINE      ---      ---       #124
      010009D6H   LINE      ---      ---       #125
      020001C2H   SYMBOL    XDATA    ---       Data_Buf
      020001C5H   SYMBOL    XDATA    BYTE      n
      010009D6H   BLOCK     CODE     NEAR LAB  LVL=1
      010009DBH   LINE      ---      ---       #127
      010009F3H   LINE      ---      ---       #128
      01000A39H   LINE      ---      ---       #129
      020001C6H   SYMBOL    XDATA    WORD      i
      ---         BLOCKEND  CODE     ---       LVL=1
      ---         BLOCKEND  CODE     ---       LVL=0

      01000B5EH   BLOCK     CODE     ---       LVL=0
      01000B5EH   LINE      ---      ---       #135
      01000B5EH   LINE      ---      ---       #136
      01000B5EH   LINE      ---      ---       #137
      01000B62H   LINE      ---      ---       #138
      01000B62H   LINE      ---      ---       #139
      01000B6CH   LINE      ---      ---       #140
      01000B73H   LINE      ---      ---       #141
      01000B78H   LINE      ---      ---       #142
      01000B7AH   LINE      ---      ---       #143
LX51 LINKER/LOCATER V4.66.1.0                                                         10/19/2019  14:09:51  PAGE 34


      01000B7FH   LINE      ---      ---       #144
      00000001H   SYMBOL    DATA     ---       buffer
      00000004H   SYMBOL    DATA     WORD      Size
      020001CDH   SYMBOL    XDATA    BYTE      sum
      ---         BLOCKEND  ---      ---       LVL=0

      010009ABH   BLOCK     CODE     ---       LVL=0
      010009ABH   LINE      ---      ---       #151
      010009ABH   LINE      ---      ---       #152
      010009ABH   LINE      ---      ---       #153
      010009B1H   LINE      ---      ---       #154
      010009B3H   LINE      ---      ---       #155
      ---         BLOCKEND  ---      ---       LVL=0

      01000A64H   BLOCK     CODE     ---       LVL=0
      01000A64H   LINE      ---      ---       #158
      01000A64H   LINE      ---      ---       #159
      01000A64H   BLOCK     CODE     NEAR LAB  LVL=1
      01000A64H   LINE      ---      ---       #166
      01000A6FH   LINE      ---      ---       #167
      01000A78H   LINE      ---      ---       #169
      01000A83H   LINE      ---      ---       #181
      01000A85H   LINE      ---      ---       #182
      0200020AH   SYMBOL    XDATA    ---       header
      ---         BLOCKEND  CODE     ---       LVL=1
      ---         BLOCKEND  CODE     ---       LVL=0

      01000A86H   BLOCK     CODE     ---       LVL=0
      01000A86H   LINE      ---      ---       #185
      01000A86H   LINE      ---      ---       #187
      01000A86H   BLOCK     CODE     NEAR LAB  LVL=1
      01000A86H   LINE      ---      ---       #193
      01000A8CH   LINE      ---      ---       #195
      01000A92H   LINE      ---      ---       #198
      01000AA3H   LINE      ---      ---       #206
      01000AA5H   LINE      ---      ---       #207
      0200020CH   SYMBOL    XDATA    ---       header
      ---         BLOCKEND  CODE     ---       LVL=1
      ---         BLOCKEND  CODE     ---       LVL=0

      ---         MODULE    ---      ---       I2C_SOFTWARE
      020001CEH   PUBLIC    XDATA    BYTE      ?_SL_SC7A21_I2c_Spi_Read?BYTE
      01000E49H   PUBLIC    CODE     ---       _SL_SC7A21_I2c_Spi_Read
      01000D2CH   PUBLIC    CODE     ---       _SL_SC7A21_I2c_Spi_Write
      020001BBH   PUBLIC    XDATA    BYTE      ?_i2cs_rx_data?BYTE
      01000C0DH   PUBLIC    CODE     ---       _i2cs_rx_data
      02000176H   PUBLIC    XDATA    BYTE      ?_i2cs_tx_data?BYTE
      01000B98H   PUBLIC    CODE     ---       _i2cs_tx_data
      01000CE6H   PUBLIC    CODE     ---       _i2cs_rx_byte
      01000C9AH   PUBLIC    CODE     ---       _i2cs_tx_byte
      01000B8BH   PUBLIC    CODE     ---       i2cs_stop
      01000CD1H   PUBLIC    CODE     ---       i2cs_start
      01000007H   PUBLIC    CODE     ---       i2cs_init
      01000B80H   PUBLIC    CODE     ---       _delay
      000000F6H   SFRSYM    DATA     BYTE      AINDIDS
      000000B1H   SFRSYM    DATA     BYTE      P0M1
      000000B3H   SFRSYM    DATA     BYTE      P1M1
      000000B2H   SFRSYM    DATA     BYTE      P0M2
      00000080H   SFRSYM    DATA     BYTE      P0
      000000BBH   SFRSYM    DATA     BYTE      SADDR_1
      000000B4H   SFRSYM    DATA     BYTE      P1M2
      00000090H   SFRSYM    DATA     BYTE      P1
      000000C0H.2 SFRSYM    DATA     BIT       AA
      000000ACH   SFRSYM    DATA     BYTE      P3M1
      000000A0H   SFRSYM    DATA     BYTE      P2
LX51 LINKER/LOCATER V4.66.1.0                                                         10/19/2019  14:09:51  PAGE 35


      000000B0H   SFRSYM    DATA     BYTE      P3
      000000ADH   SFRSYM    DATA     BYTE      P3M2
      000000D0H.6 SFRSYM    DATA     BIT       AC
      0000008FH   SFRSYM    DATA     BYTE      WKCON
      0000009CH   SFRSYM    DATA     BYTE      EIE1
      000000A8H.7 SFRSYM    DATA     BIT       EA
      000000D8H   SFRSYM    DATA     BYTE      PWMCON0
      000000DFH   SFRSYM    DATA     BYTE      PWMCON1
      00000098H.7 SFRSYM    DATA     BIT       FE
      000000A8H.6 SFRSYM    DATA     BIT       EADC
      000000D1H   SFRSYM    DATA     BYTE      PWMPH
      000000A8H   SFRSYM    DATA     BYTE      IE
      00000096H   SFRSYM    DATA     BYTE      CKSWT
      000000E8H.7 SFRSYM    DATA     BIT       ADCF
      000000FEH   SFRSYM    DATA     BYTE      EIP1
      000000D9H   SFRSYM    DATA     BYTE      PWMPL
      000000E8H   SFRSYM    DATA     BIT       ADCHS0
      000000C7H   SFRSYM    DATA     BYTE      TA
      000000E8H.1 SFRSYM    DATA     BIT       ADCHS1
      000000E8H.2 SFRSYM    DATA     BIT       ADCHS2
      000000E8H.3 SFRSYM    DATA     BIT       ADCHS3
      000000A8H.4 SFRSYM    DATA     BIT       ES
      000000C1H   SFRSYM    DATA     BYTE      I2ADDR
      000000B8H.6 SFRSYM    DATA     BIT       PADC
      000000B8H   SFRSYM    DATA     BYTE      IP
      000000A8H.5 SFRSYM    DATA     BIT       EBOD
      00000098H   SFRSYM    DATA     BIT       RI
      000000F8H.7 SFRSYM    DATA     BIT       FE_1
      000000E8H.6 SFRSYM    DATA     BIT       ADCS
      000000D0H.7 SFRSYM    DATA     BIT       CY
      000000C0H.3 SFRSYM    DATA     BIT       SI
      000000B0H   SFRSYM    DATA     BIT       INT0
      00000098H.1 SFRSYM    DATA     BIT       TI
      000000D8H.6 SFRSYM    DATA     BIT       LOAD
      00000097H   SFRSYM    DATA     BYTE      CKEN
      000000B8H.4 SFRSYM    DATA     BIT       PS
      00000081H   SFRSYM    DATA     BYTE      SP
      000000D0H.2 SFRSYM    DATA     BIT       OV
      000000B7H   SFRSYM    DATA     BYTE      PWMINTC
      000000B8H.5 SFRSYM    DATA     BIT       PBOD
      000000B2H   SFRSYM    DATA     BYTE      P0SR
      000000F7H   SFRSYM    DATA     BYTE      EIPH
      000000B4H   SFRSYM    DATA     BYTE      P1SR
      000000ADH   SFRSYM    DATA     BYTE      P3SR
      000000F8H   SFRSYM    DATA     BIT       RI_1
      000000F8H.1 SFRSYM    DATA     BIT       TI_1
      000000CBH   SFRSYM    DATA     BYTE      RCMP2H
      000000CFH   SFRSYM    DATA     BYTE      ADCMPH
      00000080H   SFRSYM    DATA     BIT       P00
      00000090H   SFRSYM    DATA     BIT       P10
      00000080H.1 SFRSYM    DATA     BIT       P01
      000000FBH   SFRSYM    DATA     BYTE      PMEN
      00000099H   SFRSYM    DATA     BYTE      SBUF
      00000087H   SFRSYM    DATA     BYTE      PCON
      000000A0H   SFRSYM    DATA     BIT       P20
      00000090H.1 SFRSYM    DATA     BIT       P11
      00000080H.2 SFRSYM    DATA     BIT       P02
      000000CAH   SFRSYM    DATA     BYTE      RCMP2L
      000000B0H   SFRSYM    DATA     BIT       P30
      00000090H.2 SFRSYM    DATA     BIT       P12
      00000080H.3 SFRSYM    DATA     BIT       P03
      000000E3H   SFRSYM    DATA     BYTE      ADCDLY
      000000CEH   SFRSYM    DATA     BYTE      ADCMPL
      00000090H.3 SFRSYM    DATA     BIT       P13
      00000080H.4 SFRSYM    DATA     BIT       P04
LX51 LINKER/LOCATER V4.66.1.0                                                         10/19/2019  14:09:51  PAGE 36


      00000098H   SFRSYM    DATA     BYTE      SCON
      00000090H.4 SFRSYM    DATA     BIT       P14
      00000080H.5 SFRSYM    DATA     BIT       P05
      00000089H   SFRSYM    DATA     BYTE      TMOD
      00000088H   SFRSYM    DATA     BYTE      TCON
      00000090H.5 SFRSYM    DATA     BIT       P15
      00000080H.6 SFRSYM    DATA     BIT       P06
      00000090H.6 SFRSYM    DATA     BIT       P16
      00000080H.7 SFRSYM    DATA     BIT       P07
      00000090H.7 SFRSYM    DATA     BIT       P17
      000000F3H   SFRSYM    DATA     BYTE      SPCR
      000000BDH   SFRSYM    DATA     BYTE      I2STAT
      000000F5H   SFRSYM    DATA     BYTE      SPDR
      000000D8H.5 SFRSYM    DATA     BIT       PWMF
      000000E5H   SFRSYM    DATA     BYTE      C0H
      000000E7H   SFRSYM    DATA     BYTE      C1H
      000000EEH   SFRSYM    DATA     BYTE      C2H
      0000009FH   SFRSYM    DATA     BYTE      CHPCON
      00000088H.1 SFRSYM    DATA     BIT       IE0
      00000088H.3 SFRSYM    DATA     BIT       IE1
      000000E4H   SFRSYM    DATA     BYTE      C0L
      00000091H   SFRSYM    DATA     BYTE      SFRS
      000000E6H   SFRSYM    DATA     BYTE      C1L
      000000C8H   SFRSYM    DATA     BIT       CM_RL2
      000000F0H   SFRSYM    DATA     BYTE      B
      000000EDH   SFRSYM    DATA     BYTE      C2L
      0000009AH   SFRSYM    DATA     BYTE      SBUF_1
      000000A5H   SFRSYM    DATA     BYTE      IAPUEN
      000000F8H   SFRSYM    DATA     BYTE      SCON_1
      000000E0H   SFRSYM    DATA     BYTE      ACC
      000000A8H.1 SFRSYM    DATA     BIT       ET0
      000000F4H   SFRSYM    DATA     BYTE      SPSR
      000000A4H   SFRSYM    DATA     BYTE      IAPTRG
      000000A8H.3 SFRSYM    DATA     BIT       ET1
      00000088H.5 SFRSYM    DATA     BIT       TF0
      00000088H.7 SFRSYM    DATA     BIT       TF1
      000000C8H.7 SFRSYM    DATA     BIT       TF2
      00000098H.2 SFRSYM    DATA     BIT       RB8
      000000D7H   SFRSYM    DATA     BYTE      FBD
      0000008CH   SFRSYM    DATA     BYTE      TH0
      000000A8H   SFRSYM    DATA     BIT       EX0
      00000088H   SFRSYM    DATA     BIT       IT0
      000000C6H   SFRSYM    DATA     BYTE      RH3
      0000008DH   SFRSYM    DATA     BYTE      TH1
      000000A8H.2 SFRSYM    DATA     BIT       EX1
      00000098H.3 SFRSYM    DATA     BIT       TB8
      00000088H.2 SFRSYM    DATA     BIT       IT1
      000000CDH   SFRSYM    DATA     BYTE      TH2
      000000D0H   SFRSYM    DATA     BIT       P
      000000FAH   SFRSYM    DATA     BYTE      PDTCNT
      00000098H.7 SFRSYM    DATA     BIT       SM0
      0000008AH   SFRSYM    DATA     BYTE      TL0
      00000098H.6 SFRSYM    DATA     BIT       SM1
      000000C5H   SFRSYM    DATA     BYTE      RL3
      0000008BH   SFRSYM    DATA     BYTE      TL1
      000000C0H.6 SFRSYM    DATA     BIT       I2CEN
      00000098H.5 SFRSYM    DATA     BIT       SM2
      000000CCH   SFRSYM    DATA     BYTE      TL2
      000000B1H   SFRSYM    DATA     BYTE      P0S
      0000009BH   SFRSYM    DATA     BYTE      EIE
      000000B8H.1 SFRSYM    DATA     BIT       PT0
      000000B3H   SFRSYM    DATA     BYTE      P1S
      000000D0H.3 SFRSYM    DATA     BIT       RS0
      000000B8H.3 SFRSYM    DATA     BIT       PT1
      000000BCH   SFRSYM    DATA     BYTE      I2DAT
LX51 LINKER/LOCATER V4.66.1.0                                                         10/19/2019  14:09:51  PAGE 37


      000000B5H   SFRSYM    DATA     BYTE      P2S
      000000D0H.4 SFRSYM    DATA     BIT       RS1
      00000088H.4 SFRSYM    DATA     BIT       TR0
      000000BEH   SFRSYM    DATA     BYTE      I2CLK
      000000ACH   SFRSYM    DATA     BYTE      P3S
      000000D8H.4 SFRSYM    DATA     BIT       CLRPWM
      00000088H.6 SFRSYM    DATA     BIT       TR1
      000000C8H.2 SFRSYM    DATA     BIT       TR2
      000000B8H   SFRSYM    DATA     BIT       PX0
      00000090H.4 SFRSYM    DATA     BIT       SDA
      000000FFH   SFRSYM    DATA     BYTE      EIPH1
      000000B8H.2 SFRSYM    DATA     BIT       PX1
      000000E8H   SFRSYM    DATA     BYTE      ADCCON0
      000000E1H   SFRSYM    DATA     BYTE      ADCCON1
      000000E2H   SFRSYM    DATA     BYTE      ADCCON2
      000000C0H   SFRSYM    DATA     BYTE      I2CON
      00000083H   SFRSYM    DATA     BYTE      DPH
      000000F8H.2 SFRSYM    DATA     BIT       RB8_1
      000000EFH   SFRSYM    DATA     BYTE      EIP
      000000F8H.3 SFRSYM    DATA     BIT       TB8_1
      000000ECH   SFRSYM    DATA     BYTE      PIF
      00000082H   SFRSYM    DATA     BYTE      DPL
      000000F8H.7 SFRSYM    DATA     BIT       SM0_1
      000000FCH   SFRSYM    DATA     BYTE      PMD
      000000B7H   SFRSYM    DATA     BYTE      IPH
      000000F8H.6 SFRSYM    DATA     BIT       SM1_1
      00000090H.3 SFRSYM    DATA     BIT       SCL
      000000BFH   SFRSYM    DATA     BYTE      I2TOC
      000000F8H.5 SFRSYM    DATA     BIT       SM2_1
      000000C3H   SFRSYM    DATA     BYTE      ADCRH
      000000A7H   SFRSYM    DATA     BYTE      IAPAH
      00000098H.4 SFRSYM    DATA     BIT       REN
      000000AEH   SFRSYM    DATA     BYTE      IAPFD
      00000092H   SFRSYM    DATA     BYTE      CAPCON0
      000000C0H   SFRSYM    DATA     BIT       I2CPX
      000000C9H   SFRSYM    DATA     BYTE      T2MOD
      000000C8H   SFRSYM    DATA     BYTE      T2CON
      000000C2H   SFRSYM    DATA     BYTE      ADCRL
      000000A3H   SFRSYM    DATA     BYTE      BODCON0
      00000093H   SFRSYM    DATA     BYTE      CAPCON1
      000000C0H.5 SFRSYM    DATA     BIT       STA
      000000C4H   SFRSYM    DATA     BYTE      T3CON
      000000ABH   SFRSYM    DATA     BYTE      BODCON1
      000000A6H   SFRSYM    DATA     BYTE      IAPAL
      00000094H   SFRSYM    DATA     BYTE      CAPCON2
      000000F1H   SFRSYM    DATA     BYTE      CAPCON3
      000000F2H   SFRSYM    DATA     BYTE      CAPCON4
      000000D8H.7 SFRSYM    DATA     BIT       PWMRUN
      000000F3H   SFRSYM    DATA     BYTE      SPCR2
      000000B9H   SFRSYM    DATA     BYTE      SADEN
      000000AFH   SFRSYM    DATA     BYTE      IAPCN
      000000D2H   SFRSYM    DATA     BYTE      PWM0H
      000000D6H   SFRSYM    DATA     BYTE      PNP
      000000D3H   SFRSYM    DATA     BYTE      PWM1H
      000000D4H   SFRSYM    DATA     BYTE      PWM2H
      000000A9H   SFRSYM    DATA     BYTE      SADDR
      0000008EH   SFRSYM    DATA     BYTE      CKCON
      000000D5H   SFRSYM    DATA     BYTE      PWM3H
      000000DAH   SFRSYM    DATA     BYTE      PWM0L
      000000C4H   SFRSYM    DATA     BYTE      PWM4H
      000000DBH   SFRSYM    DATA     BYTE      PWM1L
      000000C5H   SFRSYM    DATA     BYTE      PWM5H
      000000A2H   SFRSYM    DATA     BYTE      AUXR1
      00000095H   SFRSYM    DATA     BYTE      CKDIV
      000000DCH   SFRSYM    DATA     BYTE      PWM2L
LX51 LINKER/LOCATER V4.66.1.0                                                         10/19/2019  14:09:51  PAGE 38


      000000DDH   SFRSYM    DATA     BYTE      PWM3L
      00000086H   SFRSYM    DATA     BYTE      RWK
      000000D0H.5 SFRSYM    DATA     BIT       F0
      000000CCH   SFRSYM    DATA     BYTE      PWM4L
      000000F8H.4 SFRSYM    DATA     BIT       REN_1
      000000E8H.4 SFRSYM    DATA     BIT       ETGSEL0
      000000C0H.4 SFRSYM    DATA     BIT       STO
      000000CDH   SFRSYM    DATA     BYTE      PWM5L
      000000E8H.5 SFRSYM    DATA     BIT       ETGSEL1
      000000E9H   SFRSYM    DATA     BYTE      PICON
      000000DEH   SFRSYM    DATA     BYTE      PIOCON0
      000000D0H   SFRSYM    DATA     BYTE      PSW
      000000EAH   SFRSYM    DATA     BYTE      PINEN
      000000C6H   SFRSYM    DATA     BYTE      PIOCON1
      000000F9H   SFRSYM    DATA     BYTE      PDTEN
      000000AAH   SFRSYM    DATA     BYTE      WDCON
      000000EBH   SFRSYM    DATA     BYTE      PIPEN
      000000BAH   SFRSYM    DATA     BYTE      SADEN_1

      01000B80H   BLOCK     CODE     ---       LVL=0
      01000B80H   LINE      ---      ---       #2
      01000B80H   LINE      ---      ---       #3
      01000B80H   LINE      ---      ---       #4
      01000B8AH   LINE      ---      ---       #5
      00000006H   SYMBOL    DATA     WORD      dly_cnt
      ---         BLOCKEND  ---      ---       LVL=0

      01000007H   BLOCK     CODE     ---       LVL=0
      01000007H   LINE      ---      ---       #8
      01000007H   LINE      ---      ---       #9
      01000007H   LINE      ---      ---       #12
      ---         BLOCKEND  ---      ---       LVL=0

      01000CD1H   BLOCK     CODE     ---       LVL=0
      01000CD1H   LINE      ---      ---       #14
      01000CD1H   LINE      ---      ---       #15
      01000CD1H   LINE      ---      ---       #16
      01000CD3H   LINE      ---      ---       #17
      01000CD5H   LINE      ---      ---       #18
      01000CDBH   LINE      ---      ---       #19
      01000CDDH   LINE      ---      ---       #20
      01000CE3H   LINE      ---      ---       #21
      01000CE5H   LINE      ---      ---       #22
      ---         BLOCKEND  ---      ---       LVL=0

      01000B8BH   BLOCK     CODE     ---       LVL=0
      01000B8BH   LINE      ---      ---       #24
      01000B8BH   LINE      ---      ---       #25
      01000B8BH   LINE      ---      ---       #26
      01000B8DH   LINE      ---      ---       #27
      01000B93H   LINE      ---      ---       #28
      01000B95H   LINE      ---      ---       #29
      01000B97H   LINE      ---      ---       #30
      ---         BLOCKEND  ---      ---       LVL=0

      01000C9AH   BLOCK     CODE     ---       LVL=0
      01000C9AH   LINE      ---      ---       #32
      01000C9AH   LINE      ---      ---       #33
      00000007H   SYMBOL    DATA     BYTE      dat
      01000C9AH   BLOCK     CODE     NEAR LAB  LVL=1
      01000C9AH   LINE      ---      ---       #35
      01000C9CH   LINE      ---      ---       #36
      01000C9CH   LINE      ---      ---       #37
      01000CA0H   LINE      ---      ---       #38
      01000CA0H   LINE      ---      ---       #39
LX51 LINKER/LOCATER V4.66.1.0                                                         10/19/2019  14:09:51  PAGE 39


      01000CA2H   LINE      ---      ---       #40
      01000CA4H   LINE      ---      ---       #42
      01000CA4H   LINE      ---      ---       #43
      01000CA6H   LINE      ---      ---       #44
      01000CA6H   LINE      ---      ---       #45
      01000CA8H   LINE      ---      ---       #47
      01000CAAH   LINE      ---      ---       #49
      01000CAEH   LINE      ---      ---       #50
      01000CB3H   LINE      ---      ---       #51
      01000CB9H   LINE      ---      ---       #53
      01000CBBH   LINE      ---      ---       #55
      01000CC0H   LINE      ---      ---       #57
      01000CC2H   LINE      ---      ---       #58
      01000CC8H   LINE      ---      ---       #59
      01000CD0H   LINE      ---      ---       #60
      00000006H   SYMBOL    DATA     BYTE      i
      ---         BLOCKEND  CODE     ---       LVL=1
      ---         BLOCKEND  CODE     ---       LVL=0

      01000CE6H   BLOCK     CODE     ---       LVL=0
      01000CE6H   LINE      ---      ---       #61
      01000CE8H   LINE      ---      ---       #62
      00000005H   SYMBOL    DATA     CHAR      ack
      01000CE8H   BLOCK     CODE     NEAR LAB  LVL=1
      01000CE8H   LINE      ---      ---       #64
      01000CEAH   LINE      ---      ---       #65
      01000CF0H   LINE      ---      ---       #66
      01000CF5H   LINE      ---      ---       #67
      01000CF7H   LINE      ---      ---       #68
      01000CF7H   LINE      ---      ---       #69
      01000CF9H   LINE      ---      ---       #71
      01000CFDH   LINE      ---      ---       #72
      01000D00H   LINE      ---      ---       #73
      01000D00H   LINE      ---      ---       #74
      01000D03H   LINE      ---      ---       #75
      01000D03H   LINE      ---      ---       #76
      01000D05H   LINE      ---      ---       #77
      01000D0AH   LINE      ---      ---       #78
      01000D10H   LINE      ---      ---       #79
      01000D13H   LINE      ---      ---       #80
      01000D17H   LINE      ---      ---       #82
      01000D19H   LINE      ---      ---       #83
      01000D1BH   LINE      ---      ---       #84
      01000D21H   LINE      ---      ---       #85
      01000D23H   LINE      ---      ---       #86
      01000D29H   LINE      ---      ---       #87
      01000D2BH   LINE      ---      ---       #88
      00000007H   SYMBOL    DATA     BYTE      i
      00000003H   SYMBOL    DATA     BYTE      r
      ---         BLOCKEND  CODE     ---       LVL=1
      ---         BLOCKEND  CODE     ---       LVL=0

      01000B98H   BLOCK     CODE     ---       LVL=0
      01000B98H   LINE      ---      ---       #90
      01000BA8H   LINE      ---      ---       #91
      02000176H   SYMBOL    XDATA    BYTE      devAddr7
      00000005H   SYMBOL    DATA     BYTE      addr
      02000178H   SYMBOL    XDATA    ---       buf
      0200017BH   SYMBOL    XDATA    BYTE      Size
      01000BA8H   BLOCK     CODE     NEAR LAB  LVL=1
      01000BA8H   LINE      ---      ---       #93
      01000BAAH   LINE      ---      ---       #94
      01000BB7H   LINE      ---      ---       #95
      01000BB7H   LINE      ---      ---       #96
      01000BB9H   LINE      ---      ---       #98
LX51 LINKER/LOCATER V4.66.1.0                                                         10/19/2019  14:09:51  PAGE 40


      01000BB9H   LINE      ---      ---       #99
      01000BC0H   LINE      ---      ---       #100
      01000BC0H   LINE      ---      ---       #101
      01000BC2H   LINE      ---      ---       #103
      01000BC2H   LINE      ---      ---       #104
      01000BE0H   LINE      ---      ---       #105
      01000BE0H   LINE      ---      ---       #106
      01000BF9H   LINE      ---      ---       #107
      01000BF9H   LINE      ---      ---       #108
      01000BFBH   LINE      ---      ---       #110
      01000BFBH   LINE      ---      ---       #111
      01000C0BH   LINE      ---      ---       #112
      0200017CH   SYMBOL    XDATA    INT       i
      ---         BLOCKEND  CODE     ---       LVL=1
      ---         BLOCKEND  CODE     ---       LVL=0

      01000C0DH   BLOCK     CODE     ---       LVL=0
      01000C0DH   LINE      ---      ---       #115
      01000C1DH   LINE      ---      ---       #116
      020001BBH   SYMBOL    XDATA    BYTE      devAddr7
      00000005H   SYMBOL    DATA     BYTE      addr
      020001BDH   SYMBOL    XDATA    ---       buf
      020001C0H   SYMBOL    XDATA    BYTE      Size
      01000C1DH   BLOCK     CODE     NEAR LAB  LVL=1
      01000C1DH   LINE      ---      ---       #118
      01000C1FH   LINE      ---      ---       #119
      01000C2CH   LINE      ---      ---       #120
      01000C2CH   LINE      ---      ---       #121
      01000C2EH   LINE      ---      ---       #123
      01000C2EH   LINE      ---      ---       #124
      01000C35H   LINE      ---      ---       #125
      01000C35H   LINE      ---      ---       #126
      01000C37H   LINE      ---      ---       #128
      01000C37H   LINE      ---      ---       #129
      01000C39H   LINE      ---      ---       #130
      01000C47H   LINE      ---      ---       #131
      01000C47H   LINE      ---      ---       #132
      01000C49H   LINE      ---      ---       #134
      01000C49H   LINE      ---      ---       #135
      01000C5AH   LINE      ---      ---       #136
      01000C5AH   LINE      ---      ---       #137
      01000C72H   LINE      ---      ---       #138
      01000C7AH   LINE      ---      ---       #139
      01000C92H   LINE      ---      ---       #140
      01000C98H   LINE      ---      ---       #141
      020001C1H   SYMBOL    XDATA    BYTE      i
      ---         BLOCKEND  CODE     ---       LVL=1
      ---         BLOCKEND  CODE     ---       LVL=0

      01000D2CH   BLOCK     CODE     ---       LVL=0
      01000D2CH   LINE      ---      ---       #144
      01000D31H   LINE      ---      ---       #145
      01000D34H   LINE      ---      ---       #146
      01000D44H   LINE      ---      ---       #147
      01000D46H   LINE      ---      ---       #149
      00000007H   SYMBOL    DATA     BYTE      sl_spi_iic
      00000005H   SYMBOL    DATA     BYTE      reg
      02000212H   SYMBOL    XDATA    BYTE      Data
      ---         BLOCKEND  ---      ---       LVL=0

      01000E49H   BLOCK     CODE     ---       LVL=0
      01000E49H   LINE      ---      ---       #150
      01000E4BH   LINE      ---      ---       #151
      01000E4BH   LINE      ---      ---       #152
      01000E4EH   LINE      ---      ---       #153
LX51 LINKER/LOCATER V4.66.1.0                                                         10/19/2019  14:09:51  PAGE 41


      01000E62H   LINE      ---      ---       #154
      01000E64H   LINE      ---      ---       #155
      00000007H   SYMBOL    DATA     BYTE      sl_spi_iic
      00000005H   SYMBOL    DATA     BYTE      reg
      00000006H   SYMBOL    DATA     BYTE      len
      020001D1H   SYMBOL    XDATA    ---       buf
      ---         BLOCKEND  ---      ---       LVL=0

      ---         MODULE    ---      ---       REGISTERS
      000000F6H   SFRSYM    DATA     BYTE      AINDIDS
      000000B1H   SFRSYM    DATA     BYTE      P0M1
      000000B3H   SFRSYM    DATA     BYTE      P1M1
      000000B2H   SFRSYM    DATA     BYTE      P0M2
      00000080H   SFRSYM    DATA     BYTE      P0
      000000BBH   SFRSYM    DATA     BYTE      SADDR_1
      000000B4H   SFRSYM    DATA     BYTE      P1M2
      00000090H   SFRSYM    DATA     BYTE      P1
      000000C0H.2 SFRSYM    DATA     BIT       AA
      000000ACH   SFRSYM    DATA     BYTE      P3M1
      000000A0H   SFRSYM    DATA     BYTE      P2
      000000B0H   SFRSYM    DATA     BYTE      P3
      000000ADH   SFRSYM    DATA     BYTE      P3M2
      000000D0H.6 SFRSYM    DATA     BIT       AC
      0000008FH   SFRSYM    DATA     BYTE      WKCON
      0000009CH   SFRSYM    DATA     BYTE      EIE1
      000000A8H.7 SFRSYM    DATA     BIT       EA
      000000D8H   SFRSYM    DATA     BYTE      PWMCON0
      000000DFH   SFRSYM    DATA     BYTE      PWMCON1
      00000098H.7 SFRSYM    DATA     BIT       FE
      000000A8H.6 SFRSYM    DATA     BIT       EADC
      000000D1H   SFRSYM    DATA     BYTE      PWMPH
      000000A8H   SFRSYM    DATA     BYTE      IE
      00000096H   SFRSYM    DATA     BYTE      CKSWT
      000000E8H.7 SFRSYM    DATA     BIT       ADCF
      000000FEH   SFRSYM    DATA     BYTE      EIP1
      000000D9H   SFRSYM    DATA     BYTE      PWMPL
      000000E8H   SFRSYM    DATA     BIT       ADCHS0
      000000C7H   SFRSYM    DATA     BYTE      TA
      000000E8H.1 SFRSYM    DATA     BIT       ADCHS1
      000000E8H.2 SFRSYM    DATA     BIT       ADCHS2
      000000E8H.3 SFRSYM    DATA     BIT       ADCHS3
      000000A8H.4 SFRSYM    DATA     BIT       ES
      000000C1H   SFRSYM    DATA     BYTE      I2ADDR
      000000B8H.6 SFRSYM    DATA     BIT       PADC
      000000B8H   SFRSYM    DATA     BYTE      IP
      000000A8H.5 SFRSYM    DATA     BIT       EBOD
      00000098H   SFRSYM    DATA     BIT       RI
      000000F8H.7 SFRSYM    DATA     BIT       FE_1
      000000E8H.6 SFRSYM    DATA     BIT       ADCS
      000000D0H.7 SFRSYM    DATA     BIT       CY
      000000C0H.3 SFRSYM    DATA     BIT       SI
      000000B0H   SFRSYM    DATA     BIT       INT0
      00000098H.1 SFRSYM    DATA     BIT       TI
      000000D8H.6 SFRSYM    DATA     BIT       LOAD
      00000097H   SFRSYM    DATA     BYTE      CKEN
      000000B8H.4 SFRSYM    DATA     BIT       PS
      00000081H   SFRSYM    DATA     BYTE      SP
      000000D0H.2 SFRSYM    DATA     BIT       OV
      000000B7H   SFRSYM    DATA     BYTE      PWMINTC
      000000B8H.5 SFRSYM    DATA     BIT       PBOD
      000000B2H   SFRSYM    DATA     BYTE      P0SR
      000000F7H   SFRSYM    DATA     BYTE      EIPH
      000000B4H   SFRSYM    DATA     BYTE      P1SR
      000000ADH   SFRSYM    DATA     BYTE      P3SR
      000000F8H   SFRSYM    DATA     BIT       RI_1
LX51 LINKER/LOCATER V4.66.1.0                                                         10/19/2019  14:09:51  PAGE 42


      000000F8H.1 SFRSYM    DATA     BIT       TI_1
      000000CBH   SFRSYM    DATA     BYTE      RCMP2H
      000000CFH   SFRSYM    DATA     BYTE      ADCMPH
      00000080H   SFRSYM    DATA     BIT       P00
      00000090H   SFRSYM    DATA     BIT       P10
      00000080H.1 SFRSYM    DATA     BIT       P01
      000000FBH   SFRSYM    DATA     BYTE      PMEN
      00000099H   SFRSYM    DATA     BYTE      SBUF
      00000087H   SFRSYM    DATA     BYTE      PCON
      000000A0H   SFRSYM    DATA     BIT       P20
      00000090H.1 SFRSYM    DATA     BIT       P11
      00000080H.2 SFRSYM    DATA     BIT       P02
      000000CAH   SFRSYM    DATA     BYTE      RCMP2L
      000000B0H   SFRSYM    DATA     BIT       P30
      00000090H.2 SFRSYM    DATA     BIT       P12
      00000080H.3 SFRSYM    DATA     BIT       P03
      000000E3H   SFRSYM    DATA     BYTE      ADCDLY
      000000CEH   SFRSYM    DATA     BYTE      ADCMPL
      00000090H.3 SFRSYM    DATA     BIT       P13
      00000080H.4 SFRSYM    DATA     BIT       P04
      00000098H   SFRSYM    DATA     BYTE      SCON
      00000090H.4 SFRSYM    DATA     BIT       P14
      00000080H.5 SFRSYM    DATA     BIT       P05
      00000089H   SFRSYM    DATA     BYTE      TMOD
      00000088H   SFRSYM    DATA     BYTE      TCON
      00000090H.5 SFRSYM    DATA     BIT       P15
      00000080H.6 SFRSYM    DATA     BIT       P06
      00000090H.6 SFRSYM    DATA     BIT       P16
      00000080H.7 SFRSYM    DATA     BIT       P07
      00000090H.7 SFRSYM    DATA     BIT       P17
      000000F3H   SFRSYM    DATA     BYTE      SPCR
      000000BDH   SFRSYM    DATA     BYTE      I2STAT
      000000F5H   SFRSYM    DATA     BYTE      SPDR
      000000D8H.5 SFRSYM    DATA     BIT       PWMF
      000000E5H   SFRSYM    DATA     BYTE      C0H
      000000E7H   SFRSYM    DATA     BYTE      C1H
      000000EEH   SFRSYM    DATA     BYTE      C2H
      0000009FH   SFRSYM    DATA     BYTE      CHPCON
      00000088H.1 SFRSYM    DATA     BIT       IE0
      00000088H.3 SFRSYM    DATA     BIT       IE1
      000000E4H   SFRSYM    DATA     BYTE      C0L
      00000091H   SFRSYM    DATA     BYTE      SFRS
      000000E6H   SFRSYM    DATA     BYTE      C1L
      000000C8H   SFRSYM    DATA     BIT       CM_RL2
      000000F0H   SFRSYM    DATA     BYTE      B
      000000EDH   SFRSYM    DATA     BYTE      C2L
      0000009AH   SFRSYM    DATA     BYTE      SBUF_1
      000000A5H   SFRSYM    DATA     BYTE      IAPUEN
      000000F8H   SFRSYM    DATA     BYTE      SCON_1
      000000E0H   SFRSYM    DATA     BYTE      ACC
      000000A8H.1 SFRSYM    DATA     BIT       ET0
      000000F4H   SFRSYM    DATA     BYTE      SPSR
      000000A4H   SFRSYM    DATA     BYTE      IAPTRG
      000000A8H.3 SFRSYM    DATA     BIT       ET1
      00000088H.5 SFRSYM    DATA     BIT       TF0
      00000088H.7 SFRSYM    DATA     BIT       TF1
      000000C8H.7 SFRSYM    DATA     BIT       TF2
      00000098H.2 SFRSYM    DATA     BIT       RB8
      000000D7H   SFRSYM    DATA     BYTE      FBD
      0000008CH   SFRSYM    DATA     BYTE      TH0
      000000A8H   SFRSYM    DATA     BIT       EX0
      00000088H   SFRSYM    DATA     BIT       IT0
      000000C6H   SFRSYM    DATA     BYTE      RH3
      0000008DH   SFRSYM    DATA     BYTE      TH1
      000000A8H.2 SFRSYM    DATA     BIT       EX1
LX51 LINKER/LOCATER V4.66.1.0                                                         10/19/2019  14:09:51  PAGE 43


      00000098H.3 SFRSYM    DATA     BIT       TB8
      00000088H.2 SFRSYM    DATA     BIT       IT1
      000000CDH   SFRSYM    DATA     BYTE      TH2
      000000D0H   SFRSYM    DATA     BIT       P
      000000FAH   SFRSYM    DATA     BYTE      PDTCNT
      00000098H.7 SFRSYM    DATA     BIT       SM0
      0000008AH   SFRSYM    DATA     BYTE      TL0
      00000098H.6 SFRSYM    DATA     BIT       SM1
      000000C5H   SFRSYM    DATA     BYTE      RL3
      0000008BH   SFRSYM    DATA     BYTE      TL1
      000000C0H.6 SFRSYM    DATA     BIT       I2CEN
      00000098H.5 SFRSYM    DATA     BIT       SM2
      000000CCH   SFRSYM    DATA     BYTE      TL2
      000000B1H   SFRSYM    DATA     BYTE      P0S
      0000009BH   SFRSYM    DATA     BYTE      EIE
      000000B8H.1 SFRSYM    DATA     BIT       PT0
      000000B3H   SFRSYM    DATA     BYTE      P1S
      000000D0H.3 SFRSYM    DATA     BIT       RS0
      000000B8H.3 SFRSYM    DATA     BIT       PT1
      000000BCH   SFRSYM    DATA     BYTE      I2DAT
      000000B5H   SFRSYM    DATA     BYTE      P2S
      000000D0H.4 SFRSYM    DATA     BIT       RS1
      00000088H.4 SFRSYM    DATA     BIT       TR0
      000000BEH   SFRSYM    DATA     BYTE      I2CLK
      000000ACH   SFRSYM    DATA     BYTE      P3S
      000000D8H.4 SFRSYM    DATA     BIT       CLRPWM
      00000088H.6 SFRSYM    DATA     BIT       TR1
      000000C8H.2 SFRSYM    DATA     BIT       TR2
      000000B8H   SFRSYM    DATA     BIT       PX0
      00000090H.4 SFRSYM    DATA     BIT       SDA
      000000FFH   SFRSYM    DATA     BYTE      EIPH1
      000000B8H.2 SFRSYM    DATA     BIT       PX1
      000000E8H   SFRSYM    DATA     BYTE      ADCCON0
      000000E1H   SFRSYM    DATA     BYTE      ADCCON1
      000000E2H   SFRSYM    DATA     BYTE      ADCCON2
      000000C0H   SFRSYM    DATA     BYTE      I2CON
      00000083H   SFRSYM    DATA     BYTE      DPH
      000000F8H.2 SFRSYM    DATA     BIT       RB8_1
      000000EFH   SFRSYM    DATA     BYTE      EIP
      000000F8H.3 SFRSYM    DATA     BIT       TB8_1
      000000ECH   SFRSYM    DATA     BYTE      PIF
      00000082H   SFRSYM    DATA     BYTE      DPL
      000000F8H.7 SFRSYM    DATA     BIT       SM0_1
      000000FCH   SFRSYM    DATA     BYTE      PMD
      000000B7H   SFRSYM    DATA     BYTE      IPH
      000000F8H.6 SFRSYM    DATA     BIT       SM1_1
      00000090H.3 SFRSYM    DATA     BIT       SCL
      000000BFH   SFRSYM    DATA     BYTE      I2TOC
      000000F8H.5 SFRSYM    DATA     BIT       SM2_1
      000000C3H   SFRSYM    DATA     BYTE      ADCRH
      000000A7H   SFRSYM    DATA     BYTE      IAPAH
      00000098H.4 SFRSYM    DATA     BIT       REN
      000000AEH   SFRSYM    DATA     BYTE      IAPFD
      00000092H   SFRSYM    DATA     BYTE      CAPCON0
      000000C0H   SFRSYM    DATA     BIT       I2CPX
      000000C9H   SFRSYM    DATA     BYTE      T2MOD
      000000C8H   SFRSYM    DATA     BYTE      T2CON
      000000C2H   SFRSYM    DATA     BYTE      ADCRL
      000000A3H   SFRSYM    DATA     BYTE      BODCON0
      00000093H   SFRSYM    DATA     BYTE      CAPCON1
      000000C0H.5 SFRSYM    DATA     BIT       STA
      000000C4H   SFRSYM    DATA     BYTE      T3CON
      000000ABH   SFRSYM    DATA     BYTE      BODCON1
      000000A6H   SFRSYM    DATA     BYTE      IAPAL
      00000094H   SFRSYM    DATA     BYTE      CAPCON2
LX51 LINKER/LOCATER V4.66.1.0                                                         10/19/2019  14:09:51  PAGE 44


      000000F1H   SFRSYM    DATA     BYTE      CAPCON3
      000000F2H   SFRSYM    DATA     BYTE      CAPCON4
      000000D8H.7 SFRSYM    DATA     BIT       PWMRUN
      000000F3H   SFRSYM    DATA     BYTE      SPCR2
      000000B9H   SFRSYM    DATA     BYTE      SADEN
      000000AFH   SFRSYM    DATA     BYTE      IAPCN
      000000D2H   SFRSYM    DATA     BYTE      PWM0H
      000000D6H   SFRSYM    DATA     BYTE      PNP
      000000D3H   SFRSYM    DATA     BYTE      PWM1H
      000000D4H   SFRSYM    DATA     BYTE      PWM2H
      000000A9H   SFRSYM    DATA     BYTE      SADDR
      0000008EH   SFRSYM    DATA     BYTE      CKCON
      000000D5H   SFRSYM    DATA     BYTE      PWM3H
      000000DAH   SFRSYM    DATA     BYTE      PWM0L
      000000C4H   SFRSYM    DATA     BYTE      PWM4H
      000000DBH   SFRSYM    DATA     BYTE      PWM1L
      000000C5H   SFRSYM    DATA     BYTE      PWM5H
      000000A2H   SFRSYM    DATA     BYTE      AUXR1
      00000095H   SFRSYM    DATA     BYTE      CKDIV
      000000DCH   SFRSYM    DATA     BYTE      PWM2L
      000000DDH   SFRSYM    DATA     BYTE      PWM3L
      00000086H   SFRSYM    DATA     BYTE      RWK
      000000D0H.5 SFRSYM    DATA     BIT       F0
      000000CCH   SFRSYM    DATA     BYTE      PWM4L
      000000F8H.4 SFRSYM    DATA     BIT       REN_1
      000000E8H.4 SFRSYM    DATA     BIT       ETGSEL0
      000000C0H.4 SFRSYM    DATA     BIT       STO
      000000CDH   SFRSYM    DATA     BYTE      PWM5L
      000000E8H.5 SFRSYM    DATA     BIT       ETGSEL1
      000000E9H   SFRSYM    DATA     BYTE      PICON
      000000DEH   SFRSYM    DATA     BYTE      PIOCON0
      000000D0H   SFRSYM    DATA     BYTE      PSW
      000000EAH   SFRSYM    DATA     BYTE      PINEN
      000000C6H   SFRSYM    DATA     BYTE      PIOCON1
      000000F9H   SFRSYM    DATA     BYTE      PDTEN
      000000AAH   SFRSYM    DATA     BYTE      WDCON
      000000EBH   SFRSYM    DATA     BYTE      PIPEN
      000000BAH   SFRSYM    DATA     BYTE      SADEN_1

      ---         MODULE    ---      ---       SC7A21
      020000E1H   PUBLIC    XDATA    ---       Rx_buf
      020000C1H   PUBLIC    XDATA    ---       TX_buf
      010004B2H   PUBLIC    CONST    ---       Reg
      01000FF4H   PUBLIC    CODE     ---       Clean_STEP_COUNTER
      01000FE2H   PUBLIC    CODE     ---       Read_STEP_COUNTER
      0100077CH   PUBLIC    CODE     ---       INIT_SC7A21
      000000F6H   SFRSYM    DATA     BYTE      AINDIDS
      000000B1H   SFRSYM    DATA     BYTE      P0M1
      000000B3H   SFRSYM    DATA     BYTE      P1M1
      000000B2H   SFRSYM    DATA     BYTE      P0M2
      00000080H   SFRSYM    DATA     BYTE      P0
      000000BBH   SFRSYM    DATA     BYTE      SADDR_1
      000000B4H   SFRSYM    DATA     BYTE      P1M2
      00000090H   SFRSYM    DATA     BYTE      P1
      000000C0H.2 SFRSYM    DATA     BIT       AA
      000000ACH   SFRSYM    DATA     BYTE      P3M1
      000000A0H   SFRSYM    DATA     BYTE      P2
      000000B0H   SFRSYM    DATA     BYTE      P3
      000000ADH   SFRSYM    DATA     BYTE      P3M2
      000000D0H.6 SFRSYM    DATA     BIT       AC
      0000008FH   SFRSYM    DATA     BYTE      WKCON
      0000009CH   SFRSYM    DATA     BYTE      EIE1
      000000A8H.7 SFRSYM    DATA     BIT       EA
      000000D8H   SFRSYM    DATA     BYTE      PWMCON0
      000000DFH   SFRSYM    DATA     BYTE      PWMCON1
LX51 LINKER/LOCATER V4.66.1.0                                                         10/19/2019  14:09:51  PAGE 45


      00000098H.7 SFRSYM    DATA     BIT       FE
      000000A8H.6 SFRSYM    DATA     BIT       EADC
      000000D1H   SFRSYM    DATA     BYTE      PWMPH
      000000A8H   SFRSYM    DATA     BYTE      IE
      00000096H   SFRSYM    DATA     BYTE      CKSWT
      000000E8H.7 SFRSYM    DATA     BIT       ADCF
      000000FEH   SFRSYM    DATA     BYTE      EIP1
      000000D9H   SFRSYM    DATA     BYTE      PWMPL
      000000E8H   SFRSYM    DATA     BIT       ADCHS0
      000000C7H   SFRSYM    DATA     BYTE      TA
      000000E8H.1 SFRSYM    DATA     BIT       ADCHS1
      000000E8H.2 SFRSYM    DATA     BIT       ADCHS2
      000000E8H.3 SFRSYM    DATA     BIT       ADCHS3
      000000A8H.4 SFRSYM    DATA     BIT       ES
      000000C1H   SFRSYM    DATA     BYTE      I2ADDR
      000000B8H.6 SFRSYM    DATA     BIT       PADC
      000000B8H   SFRSYM    DATA     BYTE      IP
      000000A8H.5 SFRSYM    DATA     BIT       EBOD
      00000098H   SFRSYM    DATA     BIT       RI
      000000F8H.7 SFRSYM    DATA     BIT       FE_1
      000000E8H.6 SFRSYM    DATA     BIT       ADCS
      000000D0H.7 SFRSYM    DATA     BIT       CY
      000000C0H.3 SFRSYM    DATA     BIT       SI
      000000B0H   SFRSYM    DATA     BIT       INT0
      00000098H.1 SFRSYM    DATA     BIT       TI
      000000D8H.6 SFRSYM    DATA     BIT       LOAD
      00000097H   SFRSYM    DATA     BYTE      CKEN
      000000B8H.4 SFRSYM    DATA     BIT       PS
      00000081H   SFRSYM    DATA     BYTE      SP
      000000D0H.2 SFRSYM    DATA     BIT       OV
      000000B7H   SFRSYM    DATA     BYTE      PWMINTC
      000000B8H.5 SFRSYM    DATA     BIT       PBOD
      000000B2H   SFRSYM    DATA     BYTE      P0SR
      000000F7H   SFRSYM    DATA     BYTE      EIPH
      000000B4H   SFRSYM    DATA     BYTE      P1SR
      000000ADH   SFRSYM    DATA     BYTE      P3SR
      000000F8H   SFRSYM    DATA     BIT       RI_1
      000000F8H.1 SFRSYM    DATA     BIT       TI_1
      000000CBH   SFRSYM    DATA     BYTE      RCMP2H
      000000CFH   SFRSYM    DATA     BYTE      ADCMPH
      00000080H   SFRSYM    DATA     BIT       P00
      00000090H   SFRSYM    DATA     BIT       P10
      00000080H.1 SFRSYM    DATA     BIT       P01
      000000FBH   SFRSYM    DATA     BYTE      PMEN
      00000099H   SFRSYM    DATA     BYTE      SBUF
      00000087H   SFRSYM    DATA     BYTE      PCON
      000000A0H   SFRSYM    DATA     BIT       P20
      00000090H.1 SFRSYM    DATA     BIT       P11
      00000080H.2 SFRSYM    DATA     BIT       P02
      000000CAH   SFRSYM    DATA     BYTE      RCMP2L
      000000B0H   SFRSYM    DATA     BIT       P30
      00000090H.2 SFRSYM    DATA     BIT       P12
      00000080H.3 SFRSYM    DATA     BIT       P03
      000000E3H   SFRSYM    DATA     BYTE      ADCDLY
      000000CEH   SFRSYM    DATA     BYTE      ADCMPL
      00000090H.3 SFRSYM    DATA     BIT       P13
      00000080H.4 SFRSYM    DATA     BIT       P04
      00000098H   SFRSYM    DATA     BYTE      SCON
      00000090H.4 SFRSYM    DATA     BIT       P14
      00000080H.5 SFRSYM    DATA     BIT       P05
      00000089H   SFRSYM    DATA     BYTE      TMOD
      00000088H   SFRSYM    DATA     BYTE      TCON
      00000090H.5 SFRSYM    DATA     BIT       P15
      00000080H.6 SFRSYM    DATA     BIT       P06
      00000090H.6 SFRSYM    DATA     BIT       P16
LX51 LINKER/LOCATER V4.66.1.0                                                         10/19/2019  14:09:51  PAGE 46


      00000080H.7 SFRSYM    DATA     BIT       P07
      00000090H.7 SFRSYM    DATA     BIT       P17
      000000F3H   SFRSYM    DATA     BYTE      SPCR
      000000BDH   SFRSYM    DATA     BYTE      I2STAT
      000000F5H   SFRSYM    DATA     BYTE      SPDR
      000000D8H.5 SFRSYM    DATA     BIT       PWMF
      000000E5H   SFRSYM    DATA     BYTE      C0H
      000000E7H   SFRSYM    DATA     BYTE      C1H
      000000EEH   SFRSYM    DATA     BYTE      C2H
      0000009FH   SFRSYM    DATA     BYTE      CHPCON
      00000088H.1 SFRSYM    DATA     BIT       IE0
      00000088H.3 SFRSYM    DATA     BIT       IE1
      000000E4H   SFRSYM    DATA     BYTE      C0L
      00000091H   SFRSYM    DATA     BYTE      SFRS
      000000E6H   SFRSYM    DATA     BYTE      C1L
      000000C8H   SFRSYM    DATA     BIT       CM_RL2
      000000F0H   SFRSYM    DATA     BYTE      B
      000000EDH   SFRSYM    DATA     BYTE      C2L
      0000009AH   SFRSYM    DATA     BYTE      SBUF_1
      000000A5H   SFRSYM    DATA     BYTE      IAPUEN
      000000F8H   SFRSYM    DATA     BYTE      SCON_1
      000000E0H   SFRSYM    DATA     BYTE      ACC
      000000A8H.1 SFRSYM    DATA     BIT       ET0
      000000F4H   SFRSYM    DATA     BYTE      SPSR
      000000A4H   SFRSYM    DATA     BYTE      IAPTRG
      000000A8H.3 SFRSYM    DATA     BIT       ET1
      00000088H.5 SFRSYM    DATA     BIT       TF0
      00000088H.7 SFRSYM    DATA     BIT       TF1
      000000C8H.7 SFRSYM    DATA     BIT       TF2
      00000098H.2 SFRSYM    DATA     BIT       RB8
      000000D7H   SFRSYM    DATA     BYTE      FBD
      0000008CH   SFRSYM    DATA     BYTE      TH0
      000000A8H   SFRSYM    DATA     BIT       EX0
      00000088H   SFRSYM    DATA     BIT       IT0
      000000C6H   SFRSYM    DATA     BYTE      RH3
      0000008DH   SFRSYM    DATA     BYTE      TH1
      000000A8H.2 SFRSYM    DATA     BIT       EX1
      00000098H.3 SFRSYM    DATA     BIT       TB8
      00000088H.2 SFRSYM    DATA     BIT       IT1
      000000CDH   SFRSYM    DATA     BYTE      TH2
      000000D0H   SFRSYM    DATA     BIT       P
      000000FAH   SFRSYM    DATA     BYTE      PDTCNT
      00000098H.7 SFRSYM    DATA     BIT       SM0
      0000008AH   SFRSYM    DATA     BYTE      TL0
      00000098H.6 SFRSYM    DATA     BIT       SM1
      000000C5H   SFRSYM    DATA     BYTE      RL3
      0000008BH   SFRSYM    DATA     BYTE      TL1
      000000C0H.6 SFRSYM    DATA     BIT       I2CEN
      00000098H.5 SFRSYM    DATA     BIT       SM2
      000000CCH   SFRSYM    DATA     BYTE      TL2
      000000B1H   SFRSYM    DATA     BYTE      P0S
      0000009BH   SFRSYM    DATA     BYTE      EIE
      000000B8H.1 SFRSYM    DATA     BIT       PT0
      000000B3H   SFRSYM    DATA     BYTE      P1S
      000000D0H.3 SFRSYM    DATA     BIT       RS0
      000000B8H.3 SFRSYM    DATA     BIT       PT1
      000000BCH   SFRSYM    DATA     BYTE      I2DAT
      000000B5H   SFRSYM    DATA     BYTE      P2S
      000000D0H.4 SFRSYM    DATA     BIT       RS1
      00000088H.4 SFRSYM    DATA     BIT       TR0
      000000BEH   SFRSYM    DATA     BYTE      I2CLK
      000000ACH   SFRSYM    DATA     BYTE      P3S
      000000D8H.4 SFRSYM    DATA     BIT       CLRPWM
      00000088H.6 SFRSYM    DATA     BIT       TR1
      000000C8H.2 SFRSYM    DATA     BIT       TR2
LX51 LINKER/LOCATER V4.66.1.0                                                         10/19/2019  14:09:51  PAGE 47


      000000B8H   SFRSYM    DATA     BIT       PX0
      00000090H.4 SFRSYM    DATA     BIT       SDA
      000000FFH   SFRSYM    DATA     BYTE      EIPH1
      000000B8H.2 SFRSYM    DATA     BIT       PX1
      000000E8H   SFRSYM    DATA     BYTE      ADCCON0
      000000E1H   SFRSYM    DATA     BYTE      ADCCON1
      000000E2H   SFRSYM    DATA     BYTE      ADCCON2
      000000C0H   SFRSYM    DATA     BYTE      I2CON
      00000083H   SFRSYM    DATA     BYTE      DPH
      000000F8H.2 SFRSYM    DATA     BIT       RB8_1
      000000EFH   SFRSYM    DATA     BYTE      EIP
      000000F8H.3 SFRSYM    DATA     BIT       TB8_1
      000000ECH   SFRSYM    DATA     BYTE      PIF
      00000082H   SFRSYM    DATA     BYTE      DPL
      000000F8H.7 SFRSYM    DATA     BIT       SM0_1
      000000FCH   SFRSYM    DATA     BYTE      PMD
      000000B7H   SFRSYM    DATA     BYTE      IPH
      000000F8H.6 SFRSYM    DATA     BIT       SM1_1
      00000090H.3 SFRSYM    DATA     BIT       SCL
      000000BFH   SFRSYM    DATA     BYTE      I2TOC
      000000F8H.5 SFRSYM    DATA     BIT       SM2_1
      000000C3H   SFRSYM    DATA     BYTE      ADCRH
      000000A7H   SFRSYM    DATA     BYTE      IAPAH
      00000098H.4 SFRSYM    DATA     BIT       REN
      000000AEH   SFRSYM    DATA     BYTE      IAPFD
      00000092H   SFRSYM    DATA     BYTE      CAPCON0
      000000C0H   SFRSYM    DATA     BIT       I2CPX
      000000C9H   SFRSYM    DATA     BYTE      T2MOD
      000000C8H   SFRSYM    DATA     BYTE      T2CON
      000000C2H   SFRSYM    DATA     BYTE      ADCRL
      000000A3H   SFRSYM    DATA     BYTE      BODCON0
      00000093H   SFRSYM    DATA     BYTE      CAPCON1
      000000C0H.5 SFRSYM    DATA     BIT       STA
      000000C4H   SFRSYM    DATA     BYTE      T3CON
      000000ABH   SFRSYM    DATA     BYTE      BODCON1
      000000A6H   SFRSYM    DATA     BYTE      IAPAL
      00000094H   SFRSYM    DATA     BYTE      CAPCON2
      000000F1H   SFRSYM    DATA     BYTE      CAPCON3
      000000F2H   SFRSYM    DATA     BYTE      CAPCON4
      000000D8H.7 SFRSYM    DATA     BIT       PWMRUN
      000000F3H   SFRSYM    DATA     BYTE      SPCR2
      000000B9H   SFRSYM    DATA     BYTE      SADEN
      000000AFH   SFRSYM    DATA     BYTE      IAPCN
      000000D2H   SFRSYM    DATA     BYTE      PWM0H
      000000D6H   SFRSYM    DATA     BYTE      PNP
      000000D3H   SFRSYM    DATA     BYTE      PWM1H
      000000D4H   SFRSYM    DATA     BYTE      PWM2H
      000000A9H   SFRSYM    DATA     BYTE      SADDR
      0000008EH   SFRSYM    DATA     BYTE      CKCON
      000000D5H   SFRSYM    DATA     BYTE      PWM3H
      000000DAH   SFRSYM    DATA     BYTE      PWM0L
      000000C4H   SFRSYM    DATA     BYTE      PWM4H
      000000DBH   SFRSYM    DATA     BYTE      PWM1L
      000000C5H   SFRSYM    DATA     BYTE      PWM5H
      000000A2H   SFRSYM    DATA     BYTE      AUXR1
      00000095H   SFRSYM    DATA     BYTE      CKDIV
      000000DCH   SFRSYM    DATA     BYTE      PWM2L
      000000DDH   SFRSYM    DATA     BYTE      PWM3L
      00000086H   SFRSYM    DATA     BYTE      RWK
      000000D0H.5 SFRSYM    DATA     BIT       F0
      000000CCH   SFRSYM    DATA     BYTE      PWM4L
      000000F8H.4 SFRSYM    DATA     BIT       REN_1
      000000E8H.4 SFRSYM    DATA     BIT       ETGSEL0
      000000C0H.4 SFRSYM    DATA     BIT       STO
      000000CDH   SFRSYM    DATA     BYTE      PWM5L
LX51 LINKER/LOCATER V4.66.1.0                                                         10/19/2019  14:09:51  PAGE 48


      000000E8H.5 SFRSYM    DATA     BIT       ETGSEL1
      000000E9H   SFRSYM    DATA     BYTE      PICON
      000000DEH   SFRSYM    DATA     BYTE      PIOCON0
      000000D0H   SFRSYM    DATA     BYTE      PSW
      000000EAH   SFRSYM    DATA     BYTE      PINEN
      000000C6H   SFRSYM    DATA     BYTE      PIOCON1
      000000F9H   SFRSYM    DATA     BYTE      PDTEN
      000000AAH   SFRSYM    DATA     BYTE      WDCON
      000000EBH   SFRSYM    DATA     BYTE      PIPEN
      000000BAH   SFRSYM    DATA     BYTE      SADEN_1

      0100077CH   BLOCK     CODE     ---       LVL=0
      0100077CH   LINE      ---      ---       #41
      0100077CH   LINE      ---      ---       #42
      0100077CH   BLOCK     CODE     NEAR LAB  LVL=1
      0100077CH   LINE      ---      ---       #43
      01000782H   LINE      ---      ---       #44
      01000794H   LINE      ---      ---       #45
      01000794H   LINE      ---      ---       #46
      010007BEH   LINE      ---      ---       #47
      010007C6H   LINE      ---      ---       #48
      02000174H   SYMBOL    XDATA    BYTE      i
      02000175H   SYMBOL    XDATA    BYTE      j
      ---         BLOCKEND  CODE     ---       LVL=1
      ---         BLOCKEND  CODE     ---       LVL=0

      01000FE2H   BLOCK     CODE     ---       LVL=0
      01000FE2H   LINE      ---      ---       #54
      01000FE2H   LINE      ---      ---       #55
      01000FE2H   LINE      ---      ---       #56
      ---         BLOCKEND  ---      ---       LVL=0

      01000FF4H   BLOCK     CODE     ---       LVL=0
      01000FF4H   LINE      ---      ---       #63
      01000FF4H   LINE      ---      ---       #64
      01000FF4H   BLOCK     CODE     NEAR LAB  LVL=1
      01000FF4H   LINE      ---      ---       #65
      01001007H   LINE      ---      ---       #66
      0100100EH   LINE      ---      ---       #67
      02000213H   SYMBOL    XDATA    BYTE      temp
      ---         BLOCKEND  CODE     ---       LVL=1
      ---         BLOCKEND  CODE     ---       LVL=0

      ---         MODULE    ---      ---       UART
      02000101H   PUBLIC    XDATA    ---       data_to_send
      0200018FH   PUBLIC    XDATA    BYTE      ?_ANO_DT_Send_Version?BYTE
      010010DAH   PUBLIC    CODE     ---       _ANO_DT_Send_Version
      010010AEH   PUBLIC    CODE     ---       _UartSendBuf
      010012A1H   PUBLIC    CODE     ---       _Send_Word_To_UART1
      01001299H   PUBLIC    CODE     ---       _Send_Data_To_UART1
      01001232H   PUBLIC    CODE     ---       _InitialUART1_Timer3
      0100121CH   PUBLIC    CODE     ---       _Send_Word_To_UART0
      010010A6H   PUBLIC    CODE     ---       _Send_Data_To_UART0
      0100109EH   PUBLIC    CODE     ---       Receive_Data_From_UART0
      01001021H   PUBLIC    CODE     ---       _InitialUART0_Timer3
      000000F6H   SFRSYM    DATA     BYTE      AINDIDS
      000000B1H   SFRSYM    DATA     BYTE      P0M1
      000000B3H   SFRSYM    DATA     BYTE      P1M1
      000000B2H   SFRSYM    DATA     BYTE      P0M2
      00000080H   SFRSYM    DATA     BYTE      P0
      000000BBH   SFRSYM    DATA     BYTE      SADDR_1
      000000B4H   SFRSYM    DATA     BYTE      P1M2
      00000090H   SFRSYM    DATA     BYTE      P1
      000000C0H.2 SFRSYM    DATA     BIT       AA
      000000ACH   SFRSYM    DATA     BYTE      P3M1
LX51 LINKER/LOCATER V4.66.1.0                                                         10/19/2019  14:09:51  PAGE 49


      000000A0H   SFRSYM    DATA     BYTE      P2
      000000B0H   SFRSYM    DATA     BYTE      P3
      000000ADH   SFRSYM    DATA     BYTE      P3M2
      000000D0H.6 SFRSYM    DATA     BIT       AC
      0000008FH   SFRSYM    DATA     BYTE      WKCON
      0000009CH   SFRSYM    DATA     BYTE      EIE1
      000000A8H.7 SFRSYM    DATA     BIT       EA
      000000D8H   SFRSYM    DATA     BYTE      PWMCON0
      000000DFH   SFRSYM    DATA     BYTE      PWMCON1
      00000098H.7 SFRSYM    DATA     BIT       FE
      000000A8H.6 SFRSYM    DATA     BIT       EADC
      000000D1H   SFRSYM    DATA     BYTE      PWMPH
      000000A8H   SFRSYM    DATA     BYTE      IE
      00000096H   SFRSYM    DATA     BYTE      CKSWT
      000000E8H.7 SFRSYM    DATA     BIT       ADCF
      000000FEH   SFRSYM    DATA     BYTE      EIP1
      000000D9H   SFRSYM    DATA     BYTE      PWMPL
      000000E8H   SFRSYM    DATA     BIT       ADCHS0
      000000C7H   SFRSYM    DATA     BYTE      TA
      000000E8H.1 SFRSYM    DATA     BIT       ADCHS1
      000000E8H.2 SFRSYM    DATA     BIT       ADCHS2
      000000E8H.3 SFRSYM    DATA     BIT       ADCHS3
      000000A8H.4 SFRSYM    DATA     BIT       ES
      000000C1H   SFRSYM    DATA     BYTE      I2ADDR
      000000B8H.6 SFRSYM    DATA     BIT       PADC
      000000B8H   SFRSYM    DATA     BYTE      IP
      000000A8H.5 SFRSYM    DATA     BIT       EBOD
      00000098H   SFRSYM    DATA     BIT       RI
      000000F8H.7 SFRSYM    DATA     BIT       FE_1
      000000E8H.6 SFRSYM    DATA     BIT       ADCS
      000000D0H.7 SFRSYM    DATA     BIT       CY
      000000C0H.3 SFRSYM    DATA     BIT       SI
      000000B0H   SFRSYM    DATA     BIT       INT0
      00000098H.1 SFRSYM    DATA     BIT       TI
      000000D8H.6 SFRSYM    DATA     BIT       LOAD
      00000097H   SFRSYM    DATA     BYTE      CKEN
      000000B8H.4 SFRSYM    DATA     BIT       PS
      00000081H   SFRSYM    DATA     BYTE      SP
      000000D0H.2 SFRSYM    DATA     BIT       OV
      000000B7H   SFRSYM    DATA     BYTE      PWMINTC
      000000B8H.5 SFRSYM    DATA     BIT       PBOD
      000000B2H   SFRSYM    DATA     BYTE      P0SR
      000000F7H   SFRSYM    DATA     BYTE      EIPH
      000000B4H   SFRSYM    DATA     BYTE      P1SR
      000000ADH   SFRSYM    DATA     BYTE      P3SR
      000000F8H   SFRSYM    DATA     BIT       RI_1
      000000F8H.1 SFRSYM    DATA     BIT       TI_1
      000000CBH   SFRSYM    DATA     BYTE      RCMP2H
      000000CFH   SFRSYM    DATA     BYTE      ADCMPH
      00000080H   SFRSYM    DATA     BIT       P00
      00000090H   SFRSYM    DATA     BIT       P10
      00000080H.1 SFRSYM    DATA     BIT       P01
      000000FBH   SFRSYM    DATA     BYTE      PMEN
      00000099H   SFRSYM    DATA     BYTE      SBUF
      00000087H   SFRSYM    DATA     BYTE      PCON
      000000A0H   SFRSYM    DATA     BIT       P20
      00000090H.1 SFRSYM    DATA     BIT       P11
      00000080H.2 SFRSYM    DATA     BIT       P02
      000000CAH   SFRSYM    DATA     BYTE      RCMP2L
      000000B0H   SFRSYM    DATA     BIT       P30
      00000090H.2 SFRSYM    DATA     BIT       P12
      00000080H.3 SFRSYM    DATA     BIT       P03
      000000E3H   SFRSYM    DATA     BYTE      ADCDLY
      000000CEH   SFRSYM    DATA     BYTE      ADCMPL
      00000090H.3 SFRSYM    DATA     BIT       P13
LX51 LINKER/LOCATER V4.66.1.0                                                         10/19/2019  14:09:51  PAGE 50


      00000080H.4 SFRSYM    DATA     BIT       P04
      00000098H   SFRSYM    DATA     BYTE      SCON
      00000090H.4 SFRSYM    DATA     BIT       P14
      00000080H.5 SFRSYM    DATA     BIT       P05
      00000089H   SFRSYM    DATA     BYTE      TMOD
      00000088H   SFRSYM    DATA     BYTE      TCON
      00000090H.5 SFRSYM    DATA     BIT       P15
      00000080H.6 SFRSYM    DATA     BIT       P06
      00000090H.6 SFRSYM    DATA     BIT       P16
      00000080H.7 SFRSYM    DATA     BIT       P07
      00000090H.7 SFRSYM    DATA     BIT       P17
      000000F3H   SFRSYM    DATA     BYTE      SPCR
      000000BDH   SFRSYM    DATA     BYTE      I2STAT
      000000F5H   SFRSYM    DATA     BYTE      SPDR
      000000D8H.5 SFRSYM    DATA     BIT       PWMF
      000000E5H   SFRSYM    DATA     BYTE      C0H
      000000E7H   SFRSYM    DATA     BYTE      C1H
      000000EEH   SFRSYM    DATA     BYTE      C2H
      0000009FH   SFRSYM    DATA     BYTE      CHPCON
      00000088H.1 SFRSYM    DATA     BIT       IE0
      00000088H.3 SFRSYM    DATA     BIT       IE1
      000000E4H   SFRSYM    DATA     BYTE      C0L
      00000091H   SFRSYM    DATA     BYTE      SFRS
      000000E6H   SFRSYM    DATA     BYTE      C1L
      000000C8H   SFRSYM    DATA     BIT       CM_RL2
      000000F0H   SFRSYM    DATA     BYTE      B
      000000EDH   SFRSYM    DATA     BYTE      C2L
      0000009AH   SFRSYM    DATA     BYTE      SBUF_1
      000000A5H   SFRSYM    DATA     BYTE      IAPUEN
      000000F8H   SFRSYM    DATA     BYTE      SCON_1
      000000E0H   SFRSYM    DATA     BYTE      ACC
      000000A8H.1 SFRSYM    DATA     BIT       ET0
      000000F4H   SFRSYM    DATA     BYTE      SPSR
      000000A4H   SFRSYM    DATA     BYTE      IAPTRG
      000000A8H.3 SFRSYM    DATA     BIT       ET1
      00000088H.5 SFRSYM    DATA     BIT       TF0
      00000088H.7 SFRSYM    DATA     BIT       TF1
      000000C8H.7 SFRSYM    DATA     BIT       TF2
      00000098H.2 SFRSYM    DATA     BIT       RB8
      000000D7H   SFRSYM    DATA     BYTE      FBD
      0000008CH   SFRSYM    DATA     BYTE      TH0
      000000A8H   SFRSYM    DATA     BIT       EX0
      00000088H   SFRSYM    DATA     BIT       IT0
      000000C6H   SFRSYM    DATA     BYTE      RH3
      0000008DH   SFRSYM    DATA     BYTE      TH1
      000000A8H.2 SFRSYM    DATA     BIT       EX1
      00000098H.3 SFRSYM    DATA     BIT       TB8
      00000088H.2 SFRSYM    DATA     BIT       IT1
      000000CDH   SFRSYM    DATA     BYTE      TH2
      000000D0H   SFRSYM    DATA     BIT       P
      000000FAH   SFRSYM    DATA     BYTE      PDTCNT
      00000098H.7 SFRSYM    DATA     BIT       SM0
      0000008AH   SFRSYM    DATA     BYTE      TL0
      00000098H.6 SFRSYM    DATA     BIT       SM1
      000000C5H   SFRSYM    DATA     BYTE      RL3
      0000008BH   SFRSYM    DATA     BYTE      TL1
      000000C0H.6 SFRSYM    DATA     BIT       I2CEN
      00000098H.5 SFRSYM    DATA     BIT       SM2
      000000CCH   SFRSYM    DATA     BYTE      TL2
      000000B1H   SFRSYM    DATA     BYTE      P0S
      0000009BH   SFRSYM    DATA     BYTE      EIE
      000000B8H.1 SFRSYM    DATA     BIT       PT0
      000000B3H   SFRSYM    DATA     BYTE      P1S
      000000D0H.3 SFRSYM    DATA     BIT       RS0
      000000B8H.3 SFRSYM    DATA     BIT       PT1
LX51 LINKER/LOCATER V4.66.1.0                                                         10/19/2019  14:09:51  PAGE 51


      000000BCH   SFRSYM    DATA     BYTE      I2DAT
      000000B5H   SFRSYM    DATA     BYTE      P2S
      000000D0H.4 SFRSYM    DATA     BIT       RS1
      00000088H.4 SFRSYM    DATA     BIT       TR0
      000000BEH   SFRSYM    DATA     BYTE      I2CLK
      000000ACH   SFRSYM    DATA     BYTE      P3S
      000000D8H.4 SFRSYM    DATA     BIT       CLRPWM
      00000088H.6 SFRSYM    DATA     BIT       TR1
      000000C8H.2 SFRSYM    DATA     BIT       TR2
      000000B8H   SFRSYM    DATA     BIT       PX0
      00000090H.4 SFRSYM    DATA     BIT       SDA
      000000FFH   SFRSYM    DATA     BYTE      EIPH1
      000000B8H.2 SFRSYM    DATA     BIT       PX1
      000000E8H   SFRSYM    DATA     BYTE      ADCCON0
      000000E1H   SFRSYM    DATA     BYTE      ADCCON1
      000000E2H   SFRSYM    DATA     BYTE      ADCCON2
      000000C0H   SFRSYM    DATA     BYTE      I2CON
      00000083H   SFRSYM    DATA     BYTE      DPH
      000000F8H.2 SFRSYM    DATA     BIT       RB8_1
      000000EFH   SFRSYM    DATA     BYTE      EIP
      000000F8H.3 SFRSYM    DATA     BIT       TB8_1
      000000ECH   SFRSYM    DATA     BYTE      PIF
      00000082H   SFRSYM    DATA     BYTE      DPL
      000000F8H.7 SFRSYM    DATA     BIT       SM0_1
      000000FCH   SFRSYM    DATA     BYTE      PMD
      000000B7H   SFRSYM    DATA     BYTE      IPH
      000000F8H.6 SFRSYM    DATA     BIT       SM1_1
      00000090H.3 SFRSYM    DATA     BIT       SCL
      000000BFH   SFRSYM    DATA     BYTE      I2TOC
      000000F8H.5 SFRSYM    DATA     BIT       SM2_1
      000000C3H   SFRSYM    DATA     BYTE      ADCRH
      000000A7H   SFRSYM    DATA     BYTE      IAPAH
      00000098H.4 SFRSYM    DATA     BIT       REN
      000000AEH   SFRSYM    DATA     BYTE      IAPFD
      00000092H   SFRSYM    DATA     BYTE      CAPCON0
      000000C0H   SFRSYM    DATA     BIT       I2CPX
      000000C9H   SFRSYM    DATA     BYTE      T2MOD
      000000C8H   SFRSYM    DATA     BYTE      T2CON
      000000C2H   SFRSYM    DATA     BYTE      ADCRL
      000000A3H   SFRSYM    DATA     BYTE      BODCON0
      00000093H   SFRSYM    DATA     BYTE      CAPCON1
      000000C0H.5 SFRSYM    DATA     BIT       STA
      000000C4H   SFRSYM    DATA     BYTE      T3CON
      000000ABH   SFRSYM    DATA     BYTE      BODCON1
      000000A6H   SFRSYM    DATA     BYTE      IAPAL
      00000094H   SFRSYM    DATA     BYTE      CAPCON2
      000000F1H   SFRSYM    DATA     BYTE      CAPCON3
      000000F2H   SFRSYM    DATA     BYTE      CAPCON4
      000000D8H.7 SFRSYM    DATA     BIT       PWMRUN
      000000F3H   SFRSYM    DATA     BYTE      SPCR2
      000000B9H   SFRSYM    DATA     BYTE      SADEN
      000000AFH   SFRSYM    DATA     BYTE      IAPCN
      000000D2H   SFRSYM    DATA     BYTE      PWM0H
      000000D6H   SFRSYM    DATA     BYTE      PNP
      000000D3H   SFRSYM    DATA     BYTE      PWM1H
      000000D4H   SFRSYM    DATA     BYTE      PWM2H
      000000A9H   SFRSYM    DATA     BYTE      SADDR
      0000008EH   SFRSYM    DATA     BYTE      CKCON
      000000D5H   SFRSYM    DATA     BYTE      PWM3H
      000000DAH   SFRSYM    DATA     BYTE      PWM0L
      000000C4H   SFRSYM    DATA     BYTE      PWM4H
      000000DBH   SFRSYM    DATA     BYTE      PWM1L
      000000C5H   SFRSYM    DATA     BYTE      PWM5H
      000000A2H   SFRSYM    DATA     BYTE      AUXR1
      00000095H   SFRSYM    DATA     BYTE      CKDIV
LX51 LINKER/LOCATER V4.66.1.0                                                         10/19/2019  14:09:51  PAGE 52


      000000DCH   SFRSYM    DATA     BYTE      PWM2L
      000000DDH   SFRSYM    DATA     BYTE      PWM3L
      00000086H   SFRSYM    DATA     BYTE      RWK
      000000D0H.5 SFRSYM    DATA     BIT       F0
      000000CCH   SFRSYM    DATA     BYTE      PWM4L
      000000F8H.4 SFRSYM    DATA     BIT       REN_1
      000000E8H.4 SFRSYM    DATA     BIT       ETGSEL0
      000000C0H.4 SFRSYM    DATA     BIT       STO
      000000CDH   SFRSYM    DATA     BYTE      PWM5L
      000000E8H.5 SFRSYM    DATA     BIT       ETGSEL1
      000000E9H   SFRSYM    DATA     BYTE      PICON
      000000DEH   SFRSYM    DATA     BYTE      PIOCON0
      000000D0H   SFRSYM    DATA     BYTE      PSW
      000000EAH   SFRSYM    DATA     BYTE      PINEN
      000000C6H   SFRSYM    DATA     BYTE      PIOCON1
      000000F9H   SFRSYM    DATA     BYTE      PDTEN
      000000AAH   SFRSYM    DATA     BYTE      WDCON
      000000EBH   SFRSYM    DATA     BYTE      PIPEN
      000000BAH   SFRSYM    DATA     BYTE      SADEN_1

      01001021H   BLOCK     CODE     ---       LVL=0
      01001021H   LINE      ---      ---       #3
      01001027H   LINE      ---      ---       #4
      01001027H   LINE      ---      ---       #5
      0100102DH   LINE      ---      ---       #6
      01001033H   LINE      ---      ---       #8
      01001036H   LINE      ---      ---       #9
      01001039H   LINE      ---      ---       #10
      0100103CH   LINE      ---      ---       #11
      0100103FH   LINE      ---      ---       #12
      0100106EH   LINE      ---      ---       #13
      0100109AH   LINE      ---      ---       #15
      0100109DH   LINE      ---      ---       #16
      020001E2H   SYMBOL    XDATA    DWORD     Baudrate
      ---         BLOCKEND  ---      ---       LVL=0

      0100109EH   BLOCK     CODE     ---       LVL=0
      0100109EH   LINE      ---      ---       #17
      0100109EH   LINE      ---      ---       #18
      0100109EH   BLOCK     CODE     NEAR LAB  LVL=1
      0100109EH   LINE      ---      ---       #21
      010010A1H   LINE      ---      ---       #22
      010010A3H   LINE      ---      ---       #23
      010010A5H   LINE      ---      ---       #24
      010010A5H   LINE      ---      ---       #25
      00000007H   SYMBOL    DATA     BYTE      c
      ---         BLOCKEND  CODE     ---       LVL=1
      ---         BLOCKEND  CODE     ---       LVL=0

      010010A6H   BLOCK     CODE     ---       LVL=0
      010010A6H   LINE      ---      ---       #27
      010010A6H   LINE      ---      ---       #28
      010010A6H   LINE      ---      ---       #29
      010010A8H   LINE      ---      ---       #30
      010010AAH   LINE      ---      ---       #31
      010010ADH   LINE      ---      ---       #32
      00000007H   SYMBOL    DATA     BYTE      Data
      ---         BLOCKEND  ---      ---       LVL=0

      0100121CH   BLOCK     CODE     ---       LVL=0
      0100121CH   LINE      ---      ---       #33
      01001220H   LINE      ---      ---       #34
      01001220H   LINE      ---      ---       #35
      01001222H   LINE      ---      ---       #36
      01001225H   LINE      ---      ---       #37
LX51 LINKER/LOCATER V4.66.1.0                                                         10/19/2019  14:09:51  PAGE 53


      01001228H   LINE      ---      ---       #38
      0100122AH   LINE      ---      ---       #39
      0100122EH   LINE      ---      ---       #40
      01001231H   LINE      ---      ---       #41
      00000004H   SYMBOL    DATA     WORD      Data
      ---         BLOCKEND  ---      ---       LVL=0

      01001232H   BLOCK     CODE     ---       LVL=0
      01001232H   LINE      ---      ---       #43
      01001238H   LINE      ---      ---       #44
      01001238H   LINE      ---      ---       #50
      0100123AH   LINE      ---      ---       #51
      01001269H   LINE      ---      ---       #52
      01001295H   LINE      ---      ---       #54
      01001298H   LINE      ---      ---       #55
      020001E6H   SYMBOL    XDATA    DWORD     Baudrate
      ---         BLOCKEND  ---      ---       LVL=0

      01001299H   BLOCK     CODE     ---       LVL=0
      01001299H   LINE      ---      ---       #57
      01001299H   LINE      ---      ---       #58
      01001299H   LINE      ---      ---       #59
      0100129BH   LINE      ---      ---       #60
      0100129DH   LINE      ---      ---       #61
      010012A0H   LINE      ---      ---       #62
      00000007H   SYMBOL    DATA     BYTE      Data
      ---         BLOCKEND  ---      ---       LVL=0

      010012A1H   BLOCK     CODE     ---       LVL=0
      010012A1H   LINE      ---      ---       #63
      010012A5H   LINE      ---      ---       #64
      010012A5H   LINE      ---      ---       #65
      010012A7H   LINE      ---      ---       #66
      010012AAH   LINE      ---      ---       #67
      010012ADH   LINE      ---      ---       #68
      010012AFH   LINE      ---      ---       #69
      010012B3H   LINE      ---      ---       #70
      010012B6H   LINE      ---      ---       #71
      00000004H   SYMBOL    DATA     WORD      Data
      ---         BLOCKEND  ---      ---       LVL=0

      010010AEH   BLOCK     CODE     ---       LVL=0
      010010AEH   LINE      ---      ---       #72
      020001FEH   SYMBOL    XDATA    ---       buf
      00000005H   SYMBOL    DATA     BYTE      sz
      010010B9H   BLOCK     CODE     NEAR LAB  LVL=1
      010010B9H   LINE      ---      ---       #75
      010010C0H   LINE      ---      ---       #76
      010010D6H   LINE      ---      ---       #77
      010010D9H   LINE      ---      ---       #78
      00000006H   SYMBOL    DATA     BYTE      i
      ---         BLOCKEND  CODE     ---       LVL=1
      ---         BLOCKEND  CODE     ---       LVL=0

      010010DAH   BLOCK     CODE     ---       LVL=0
      010010DAH   LINE      ---      ---       #88
      010010E8H   LINE      ---      ---       #89
      00000007H   SYMBOL    DATA     BYTE      type
      02000190H   SYMBOL    XDATA    WORD      Data1
      02000192H   SYMBOL    XDATA    WORD      Data2
      02000194H   SYMBOL    XDATA    WORD      Data3
      02000196H   SYMBOL    XDATA    WORD      Data4
      02000198H   SYMBOL    XDATA    WORD      Data5
      010010E8H   BLOCK     CODE     NEAR LAB  LVL=1
      010010E8H   LINE      ---      ---       #90
LX51 LINKER/LOCATER V4.66.1.0                                                         10/19/2019  14:09:51  PAGE 54


      010010EAH   LINE      ---      ---       #91
      010010EBH   LINE      ---      ---       #93
      010010F8H   LINE      ---      ---       #94
      01001107H   LINE      ---      ---       #95
      01001115H   LINE      ---      ---       #96
      01001123H   LINE      ---      ---       #97
      01001136H   LINE      ---      ---       #98
      01001149H   LINE      ---      ---       #99
      0100115CH   LINE      ---      ---       #100
      0100116FH   LINE      ---      ---       #102
      01001182H   LINE      ---      ---       #103
      01001195H   LINE      ---      ---       #105
      010011A8H   LINE      ---      ---       #106
      010011BBH   LINE      ---      ---       #107
      010011CEH   LINE      ---      ---       #108
      010011E1H   LINE      ---      ---       #109
      010011E8H   LINE      ---      ---       #112
      010011EFH   LINE      ---      ---       #113
      010011FFH   LINE      ---      ---       #114
      01001210H   LINE      ---      ---       #115
      00000006H   SYMBOL    DATA     BYTE      _cnt
      00000005H   SYMBOL    DATA     BYTE      sum
      00000007H   SYMBOL    DATA     BYTE      i
      ---         BLOCKEND  CODE     ---       LVL=1
      ---         BLOCKEND  CODE     ---       LVL=0

      ---         MODULE    ---      ---       WORK
      0200014EH   PUBLIC    XDATA    BYTE      LED_Count2
      0200014DH   PUBLIC    XDATA    BYTE      LED_CLOSE_T
      0200014CH   PUBLIC    XDATA    BYTE      LED_OPEN_Time
      0200014BH   PUBLIC    XDATA    BYTE      LED_Bri
      02000137H   PUBLIC    XDATA    ---       EEPROM_DATA
      02000136H   PUBLIC    XDATA    BYTE      LED_Count
      00000020H.1 PUBLIC    BIT      BIT       LED_State
      02000135H   PUBLIC    XDATA    BYTE      LED_Cycle
      02000134H   PUBLIC    XDATA    BYTE      LED_OPEN_T
      010012B7H   PUBLIC    CODE     ---       Scan_LED
      01000008H   PUBLIC    CODE     ---       ReadEeprom
      010009BEH   PUBLIC    CODE     ---       ParameterReset
      010009B4H   PUBLIC    CODE     ---       WriteEeprom
      000000F6H   SFRSYM    DATA     BYTE      AINDIDS
      000000B1H   SFRSYM    DATA     BYTE      P0M1
      000000B3H   SFRSYM    DATA     BYTE      P1M1
      000000B2H   SFRSYM    DATA     BYTE      P0M2
      00000080H   SFRSYM    DATA     BYTE      P0
      000000BBH   SFRSYM    DATA     BYTE      SADDR_1
      000000B4H   SFRSYM    DATA     BYTE      P1M2
      00000090H   SFRSYM    DATA     BYTE      P1
      000000C0H.2 SFRSYM    DATA     BIT       AA
      000000ACH   SFRSYM    DATA     BYTE      P3M1
      000000A0H   SFRSYM    DATA     BYTE      P2
      000000B0H   SFRSYM    DATA     BYTE      P3
      000000ADH   SFRSYM    DATA     BYTE      P3M2
      000000D0H.6 SFRSYM    DATA     BIT       AC
      0000008FH   SFRSYM    DATA     BYTE      WKCON
      0000009CH   SFRSYM    DATA     BYTE      EIE1
      000000A8H.7 SFRSYM    DATA     BIT       EA
      000000D8H   SFRSYM    DATA     BYTE      PWMCON0
      000000DFH   SFRSYM    DATA     BYTE      PWMCON1
      00000098H.7 SFRSYM    DATA     BIT       FE
      000000A8H.6 SFRSYM    DATA     BIT       EADC
      000000D1H   SFRSYM    DATA     BYTE      PWMPH
      000000A8H   SFRSYM    DATA     BYTE      IE
      00000096H   SFRSYM    DATA     BYTE      CKSWT
      000000E8H.7 SFRSYM    DATA     BIT       ADCF
LX51 LINKER/LOCATER V4.66.1.0                                                         10/19/2019  14:09:51  PAGE 55


      000000FEH   SFRSYM    DATA     BYTE      EIP1
      000000D9H   SFRSYM    DATA     BYTE      PWMPL
      000000E8H   SFRSYM    DATA     BIT       ADCHS0
      000000C7H   SFRSYM    DATA     BYTE      TA
      000000E8H.1 SFRSYM    DATA     BIT       ADCHS1
      000000E8H.2 SFRSYM    DATA     BIT       ADCHS2
      000000E8H.3 SFRSYM    DATA     BIT       ADCHS3
      000000A8H.4 SFRSYM    DATA     BIT       ES
      000000C1H   SFRSYM    DATA     BYTE      I2ADDR
      000000B8H.6 SFRSYM    DATA     BIT       PADC
      000000B8H   SFRSYM    DATA     BYTE      IP
      000000A8H.5 SFRSYM    DATA     BIT       EBOD
      00000098H   SFRSYM    DATA     BIT       RI
      000000F8H.7 SFRSYM    DATA     BIT       FE_1
      000000E8H.6 SFRSYM    DATA     BIT       ADCS
      000000D0H.7 SFRSYM    DATA     BIT       CY
      000000C0H.3 SFRSYM    DATA     BIT       SI
      000000B0H   SFRSYM    DATA     BIT       INT0
      00000098H.1 SFRSYM    DATA     BIT       TI
      000000D8H.6 SFRSYM    DATA     BIT       LOAD
      00000097H   SFRSYM    DATA     BYTE      CKEN
      000000B8H.4 SFRSYM    DATA     BIT       PS
      00000081H   SFRSYM    DATA     BYTE      SP
      000000D0H.2 SFRSYM    DATA     BIT       OV
      000000B7H   SFRSYM    DATA     BYTE      PWMINTC
      000000B8H.5 SFRSYM    DATA     BIT       PBOD
      000000B2H   SFRSYM    DATA     BYTE      P0SR
      000000F7H   SFRSYM    DATA     BYTE      EIPH
      000000B4H   SFRSYM    DATA     BYTE      P1SR
      000000ADH   SFRSYM    DATA     BYTE      P3SR
      000000F8H   SFRSYM    DATA     BIT       RI_1
      000000F8H.1 SFRSYM    DATA     BIT       TI_1
      000000CBH   SFRSYM    DATA     BYTE      RCMP2H
      000000CFH   SFRSYM    DATA     BYTE      ADCMPH
      00000080H   SFRSYM    DATA     BIT       P00
      00000090H   SFRSYM    DATA     BIT       P10
      00000080H.1 SFRSYM    DATA     BIT       P01
      000000FBH   SFRSYM    DATA     BYTE      PMEN
      00000099H   SFRSYM    DATA     BYTE      SBUF
      00000087H   SFRSYM    DATA     BYTE      PCON
      000000A0H   SFRSYM    DATA     BIT       P20
      00000090H.1 SFRSYM    DATA     BIT       P11
      00000080H.2 SFRSYM    DATA     BIT       P02
      000000CAH   SFRSYM    DATA     BYTE      RCMP2L
      000000B0H   SFRSYM    DATA     BIT       P30
      00000090H.2 SFRSYM    DATA     BIT       P12
      00000080H.3 SFRSYM    DATA     BIT       P03
      000000E3H   SFRSYM    DATA     BYTE      ADCDLY
      000000CEH   SFRSYM    DATA     BYTE      ADCMPL
      00000090H.3 SFRSYM    DATA     BIT       P13
      00000080H.4 SFRSYM    DATA     BIT       P04
      00000098H   SFRSYM    DATA     BYTE      SCON
      00000090H.4 SFRSYM    DATA     BIT       P14
      00000080H.5 SFRSYM    DATA     BIT       P05
      00000089H   SFRSYM    DATA     BYTE      TMOD
      00000088H   SFRSYM    DATA     BYTE      TCON
      00000090H.5 SFRSYM    DATA     BIT       P15
      00000080H.6 SFRSYM    DATA     BIT       P06
      00000090H.6 SFRSYM    DATA     BIT       P16
      00000080H.7 SFRSYM    DATA     BIT       P07
      00000090H.7 SFRSYM    DATA     BIT       P17
      000000F3H   SFRSYM    DATA     BYTE      SPCR
      000000BDH   SFRSYM    DATA     BYTE      I2STAT
      000000F5H   SFRSYM    DATA     BYTE      SPDR
      000000D8H.5 SFRSYM    DATA     BIT       PWMF
LX51 LINKER/LOCATER V4.66.1.0                                                         10/19/2019  14:09:51  PAGE 56


      000000E5H   SFRSYM    DATA     BYTE      C0H
      000000E7H   SFRSYM    DATA     BYTE      C1H
      000000EEH   SFRSYM    DATA     BYTE      C2H
      0000009FH   SFRSYM    DATA     BYTE      CHPCON
      00000088H.1 SFRSYM    DATA     BIT       IE0
      00000088H.3 SFRSYM    DATA     BIT       IE1
      000000E4H   SFRSYM    DATA     BYTE      C0L
      00000091H   SFRSYM    DATA     BYTE      SFRS
      000000E6H   SFRSYM    DATA     BYTE      C1L
      000000C8H   SFRSYM    DATA     BIT       CM_RL2
      000000F0H   SFRSYM    DATA     BYTE      B
      000000EDH   SFRSYM    DATA     BYTE      C2L
      0000009AH   SFRSYM    DATA     BYTE      SBUF_1
      000000A5H   SFRSYM    DATA     BYTE      IAPUEN
      000000F8H   SFRSYM    DATA     BYTE      SCON_1
      000000E0H   SFRSYM    DATA     BYTE      ACC
      000000A8H.1 SFRSYM    DATA     BIT       ET0
      000000F4H   SFRSYM    DATA     BYTE      SPSR
      000000A4H   SFRSYM    DATA     BYTE      IAPTRG
      000000A8H.3 SFRSYM    DATA     BIT       ET1
      00000088H.5 SFRSYM    DATA     BIT       TF0
      00000088H.7 SFRSYM    DATA     BIT       TF1
      000000C8H.7 SFRSYM    DATA     BIT       TF2
      00000098H.2 SFRSYM    DATA     BIT       RB8
      000000D7H   SFRSYM    DATA     BYTE      FBD
      0000008CH   SFRSYM    DATA     BYTE      TH0
      000000A8H   SFRSYM    DATA     BIT       EX0
      00000088H   SFRSYM    DATA     BIT       IT0
      000000C6H   SFRSYM    DATA     BYTE      RH3
      0000008DH   SFRSYM    DATA     BYTE      TH1
      000000A8H.2 SFRSYM    DATA     BIT       EX1
      00000098H.3 SFRSYM    DATA     BIT       TB8
      00000088H.2 SFRSYM    DATA     BIT       IT1
      000000CDH   SFRSYM    DATA     BYTE      TH2
      000000D0H   SFRSYM    DATA     BIT       P
      000000FAH   SFRSYM    DATA     BYTE      PDTCNT
      00000098H.7 SFRSYM    DATA     BIT       SM0
      0000008AH   SFRSYM    DATA     BYTE      TL0
      00000098H.6 SFRSYM    DATA     BIT       SM1
      000000C5H   SFRSYM    DATA     BYTE      RL3
      0000008BH   SFRSYM    DATA     BYTE      TL1
      000000C0H.6 SFRSYM    DATA     BIT       I2CEN
      00000098H.5 SFRSYM    DATA     BIT       SM2
      000000CCH   SFRSYM    DATA     BYTE      TL2
      000000B1H   SFRSYM    DATA     BYTE      P0S
      0000009BH   SFRSYM    DATA     BYTE      EIE
      000000B8H.1 SFRSYM    DATA     BIT       PT0
      000000B3H   SFRSYM    DATA     BYTE      P1S
      000000D0H.3 SFRSYM    DATA     BIT       RS0
      000000B8H.3 SFRSYM    DATA     BIT       PT1
      000000BCH   SFRSYM    DATA     BYTE      I2DAT
      000000B5H   SFRSYM    DATA     BYTE      P2S
      000000D0H.4 SFRSYM    DATA     BIT       RS1
      00000088H.4 SFRSYM    DATA     BIT       TR0
      000000BEH   SFRSYM    DATA     BYTE      I2CLK
      000000ACH   SFRSYM    DATA     BYTE      P3S
      000000D8H.4 SFRSYM    DATA     BIT       CLRPWM
      00000088H.6 SFRSYM    DATA     BIT       TR1
      000000C8H.2 SFRSYM    DATA     BIT       TR2
      000000B8H   SFRSYM    DATA     BIT       PX0
      00000090H.4 SFRSYM    DATA     BIT       SDA
      000000FFH   SFRSYM    DATA     BYTE      EIPH1
      000000B8H.2 SFRSYM    DATA     BIT       PX1
      000000E8H   SFRSYM    DATA     BYTE      ADCCON0
      000000E1H   SFRSYM    DATA     BYTE      ADCCON1
LX51 LINKER/LOCATER V4.66.1.0                                                         10/19/2019  14:09:51  PAGE 57


      000000E2H   SFRSYM    DATA     BYTE      ADCCON2
      000000C0H   SFRSYM    DATA     BYTE      I2CON
      00000083H   SFRSYM    DATA     BYTE      DPH
      000000F8H.2 SFRSYM    DATA     BIT       RB8_1
      000000EFH   SFRSYM    DATA     BYTE      EIP
      000000F8H.3 SFRSYM    DATA     BIT       TB8_1
      000000ECH   SFRSYM    DATA     BYTE      PIF
      00000082H   SFRSYM    DATA     BYTE      DPL
      000000F8H.7 SFRSYM    DATA     BIT       SM0_1
      000000FCH   SFRSYM    DATA     BYTE      PMD
      000000B7H   SFRSYM    DATA     BYTE      IPH
      000000F8H.6 SFRSYM    DATA     BIT       SM1_1
      00000090H.3 SFRSYM    DATA     BIT       SCL
      000000BFH   SFRSYM    DATA     BYTE      I2TOC
      000000F8H.5 SFRSYM    DATA     BIT       SM2_1
      000000C3H   SFRSYM    DATA     BYTE      ADCRH
      000000A7H   SFRSYM    DATA     BYTE      IAPAH
      00000098H.4 SFRSYM    DATA     BIT       REN
      000000AEH   SFRSYM    DATA     BYTE      IAPFD
      00000092H   SFRSYM    DATA     BYTE      CAPCON0
      000000C0H   SFRSYM    DATA     BIT       I2CPX
      000000C9H   SFRSYM    DATA     BYTE      T2MOD
      000000C8H   SFRSYM    DATA     BYTE      T2CON
      000000C2H   SFRSYM    DATA     BYTE      ADCRL
      000000A3H   SFRSYM    DATA     BYTE      BODCON0
      00000093H   SFRSYM    DATA     BYTE      CAPCON1
      000000C0H.5 SFRSYM    DATA     BIT       STA
      000000C4H   SFRSYM    DATA     BYTE      T3CON
      000000ABH   SFRSYM    DATA     BYTE      BODCON1
      000000A6H   SFRSYM    DATA     BYTE      IAPAL
      00000094H   SFRSYM    DATA     BYTE      CAPCON2
      000000F1H   SFRSYM    DATA     BYTE      CAPCON3
      000000F2H   SFRSYM    DATA     BYTE      CAPCON4
      000000D8H.7 SFRSYM    DATA     BIT       PWMRUN
      000000F3H   SFRSYM    DATA     BYTE      SPCR2
      000000B9H   SFRSYM    DATA     BYTE      SADEN
      000000AFH   SFRSYM    DATA     BYTE      IAPCN
      000000D2H   SFRSYM    DATA     BYTE      PWM0H
      000000D6H   SFRSYM    DATA     BYTE      PNP
      000000D3H   SFRSYM    DATA     BYTE      PWM1H
      000000D4H   SFRSYM    DATA     BYTE      PWM2H
      000000A9H   SFRSYM    DATA     BYTE      SADDR
      0000008EH   SFRSYM    DATA     BYTE      CKCON
      000000D5H   SFRSYM    DATA     BYTE      PWM3H
      000000DAH   SFRSYM    DATA     BYTE      PWM0L
      000000C4H   SFRSYM    DATA     BYTE      PWM4H
      000000DBH   SFRSYM    DATA     BYTE      PWM1L
      000000C5H   SFRSYM    DATA     BYTE      PWM5H
      000000A2H   SFRSYM    DATA     BYTE      AUXR1
      00000095H   SFRSYM    DATA     BYTE      CKDIV
      000000DCH   SFRSYM    DATA     BYTE      PWM2L
      000000DDH   SFRSYM    DATA     BYTE      PWM3L
      00000086H   SFRSYM    DATA     BYTE      RWK
      000000D0H.5 SFRSYM    DATA     BIT       F0
      000000CCH   SFRSYM    DATA     BYTE      PWM4L
      000000F8H.4 SFRSYM    DATA     BIT       REN_1
      000000E8H.4 SFRSYM    DATA     BIT       ETGSEL0
      000000C0H.4 SFRSYM    DATA     BIT       STO
      000000CDH   SFRSYM    DATA     BYTE      PWM5L
      000000E8H.5 SFRSYM    DATA     BIT       ETGSEL1
      000000E9H   SFRSYM    DATA     BYTE      PICON
      000000DEH   SFRSYM    DATA     BYTE      PIOCON0
      000000D0H   SFRSYM    DATA     BYTE      PSW
      000000EAH   SFRSYM    DATA     BYTE      PINEN
      000000C6H   SFRSYM    DATA     BYTE      PIOCON1
LX51 LINKER/LOCATER V4.66.1.0                                                         10/19/2019  14:09:51  PAGE 58


      000000F9H   SFRSYM    DATA     BYTE      PDTEN
      000000AAH   SFRSYM    DATA     BYTE      WDCON
      000000EBH   SFRSYM    DATA     BYTE      PIPEN
      000000BAH   SFRSYM    DATA     BYTE      SADEN_1

      010009B4H   BLOCK     CODE     ---       LVL=0
      010009B4H   LINE      ---      ---       #16
      010009B4H   LINE      ---      ---       #17
      010009B4H   LINE      ---      ---       #26
      ---         BLOCKEND  ---      ---       LVL=0

      010009BEH   BLOCK     CODE     ---       LVL=0
      010009BEH   LINE      ---      ---       #34
      010009BEH   LINE      ---      ---       #35
      010009BEH   LINE      ---      ---       #41
      010009C0H   LINE      ---      ---       #42
      ---         BLOCKEND  ---      ---       LVL=0

      01000008H   BLOCK     CODE     ---       LVL=0
      01000008H   LINE      ---      ---       #52
      01000008H   LINE      ---      ---       #53
      01000008H   LINE      ---      ---       #67
      0100000AH   LINE      ---      ---       #68
      ---         BLOCKEND  ---      ---       LVL=0

      010012B7H   BLOCK     CODE     ---       LVL=0
      010012B7H   LINE      ---      ---       #75
      010012B7H   LINE      ---      ---       #76
      010012B7H   BLOCK     CODE     NEAR LAB  LVL=1
      010012B7H   LINE      ---      ---       #78
      01001312H   LINE      ---      ---       #79
      01001312H   LINE      ---      ---       #80
      01001314H   LINE      ---      ---       #81
      01001316H   LINE      ---      ---       #82
      01001318H   LINE      ---      ---       #83
      0100131EH   LINE      ---      ---       #84
      01001320H   LINE      ---      ---       #85
      01001320H   LINE      ---      ---       #86
      01001322H   LINE      ---      ---       #87
      01001328H   LINE      ---      ---       #88
      0100132AH   LINE      ---      ---       #89
      0100132AH   LINE      ---      ---       #90
      0100132CH   LINE      ---      ---       #91
      0100132EH   LINE      ---      ---       #92
      01001330H   LINE      ---      ---       #93
      01001336H   LINE      ---      ---       #95
      01001338H   LINE      ---      ---       #96
      01001338H   LINE      ---      ---       #97
      0100133AH   LINE      ---      ---       #98
      01001340H   LINE      ---      ---       #104
      01001342H   LINE      ---      ---       #105
      01001342H   LINE      ---      ---       #106
      01001344H   LINE      ---      ---       #107
      0100134AH   LINE      ---      ---       #109
      0100134CH   LINE      ---      ---       #110
      0100134CH   LINE      ---      ---       #111
      0100134EH   LINE      ---      ---       #112
      01001354H   LINE      ---      ---       #113
      01001356H   LINE      ---      ---       #114
      01001356H   LINE      ---      ---       #116
      01001358H   LINE      ---      ---       #117
      0100135EH   LINE      ---      ---       #118
      01001360H   LINE      ---      ---       #119
      01001360H   LINE      ---      ---       #120
      01001362H   LINE      ---      ---       #121
LX51 LINKER/LOCATER V4.66.1.0                                                         10/19/2019  14:09:51  PAGE 59


      01001368H   LINE      ---      ---       #122
      0100136AH   LINE      ---      ---       #123
      0100136AH   LINE      ---      ---       #124
      0100136CH   LINE      ---      ---       #125
      0100136EH   LINE      ---      ---       #126
      01001370H   LINE      ---      ---       #127
      01001376H   LINE      ---      ---       #128
      01001378H   LINE      ---      ---       #129
      01001378H   LINE      ---      ---       #130
      0100137AH   LINE      ---      ---       #131
      01001380H   LINE      ---      ---       #132
      01001382H   LINE      ---      ---       #134
      01001382H   LINE      ---      ---       #135
      01001384H   LINE      ---      ---       #136
      0100138AH   LINE      ---      ---       #137
      0100138CH   LINE      ---      ---       #138
      0100138CH   LINE      ---      ---       #139
      0100138EH   LINE      ---      ---       #140
      01001394H   LINE      ---      ---       #141
      01001396H   LINE      ---      ---       #142
      01001396H   LINE      ---      ---       #143
      01001398H   LINE      ---      ---       #144
      0100139EH   LINE      ---      ---       #145
      010013A0H   LINE      ---      ---       #146
      010013A0H   LINE      ---      ---       #147
      010013A2H   LINE      ---      ---       #148
      010013A8H   LINE      ---      ---       #149
      010013AAH   LINE      ---      ---       #150
      010013AAH   LINE      ---      ---       #151
      010013ACH   LINE      ---      ---       #152
      010013B2H   LINE      ---      ---       #153
      010013B4H   LINE      ---      ---       #154
      010013B4H   LINE      ---      ---       #155
      010013B6H   LINE      ---      ---       #156
      010013BCH   LINE      ---      ---       #157
      010013BEH   LINE      ---      ---       #158
      010013BEH   LINE      ---      ---       #159
      010013C0H   LINE      ---      ---       #160
      010013C2H   LINE      ---      ---       #161
      010013C4H   LINE      ---      ---       #162
      010013CAH   LINE      ---      ---       #163
      010013CCH   LINE      ---      ---       #164
      010013CCH   LINE      ---      ---       #165
      010013CEH   LINE      ---      ---       #166
      010013D4H   LINE      ---      ---       #167
      010013D6H   LINE      ---      ---       #168
      010013D6H   LINE      ---      ---       #169
      010013D8H   LINE      ---      ---       #170
      010013DEH   LINE      ---      ---       #171
      010013E0H   LINE      ---      ---       #172
      010013E0H   LINE      ---      ---       #173
      010013E2H   LINE      ---      ---       #174
      010013E8H   LINE      ---      ---       #175
      010013EAH   LINE      ---      ---       #176
      010013EAH   LINE      ---      ---       #177
      010013ECH   LINE      ---      ---       #178
      010013F2H   LINE      ---      ---       #179
      010013F4H   LINE      ---      ---       #180
      010013F4H   LINE      ---      ---       #181
      010013F6H   LINE      ---      ---       #182
      010013FCH   LINE      ---      ---       #183
      010013FEH   LINE      ---      ---       #184
      010013FEH   LINE      ---      ---       #185
      01001400H   LINE      ---      ---       #186
      01001406H   LINE      ---      ---       #187
LX51 LINKER/LOCATER V4.66.1.0                                                         10/19/2019  14:09:51  PAGE 60


      01001408H   LINE      ---      ---       #188
      01001408H   LINE      ---      ---       #189
      0100140AH   LINE      ---      ---       #190
      01001410H   LINE      ---      ---       #191
      01001410H   LINE      ---      ---       #192
      01001410H   LINE      ---      ---       #195
      01001414H   LINE      ---      ---       #196
      0100141CH   LINE      ---      ---       #198
      01001422H   LINE      ---      ---       #199
      01001428H   LINE      ---      ---       #200
      0100142AH   LINE      ---      ---       #201
      01001432H   LINE      ---      ---       #202
      01001438H   LINE      ---      ---       #203
      01001438H   LINE      ---      ---       #204
      01001441H   LINE      ---      ---       #205
      01001443H   LINE      ---      ---       #206
      01001449H   LINE      ---      ---       #208
      02000133H   SYMBOL    XDATA    BYTE      LED_Count1
      ---         BLOCKEND  CODE     ---       LVL=1
      ---         BLOCKEND  CODE     ---       LVL=0

      ---         MODULE    ---      ---       SL_SC7A21_DRIVER
      010019C7H   PUBLIC    CODE     ---       SL_SC7A21_Get_Sleep_Status
      010019E4H   PUBLIC    CODE     ---       SL_SC7A21_Get_Wrist_Status
      0100189DH   PUBLIC    CODE     ---       SL_SC7A21_Get_Pedo_Count
      01001545H   PUBLIC    CODE     ---       _SL_SC7A21_Sleep_Config
      0100159AH   PUBLIC    CODE     ---       _SL_SC7A21_Wrist_Config
      01000E65H   PUBLIC    CODE     ---       _SL_SC7A21_Pedo_Config
      01000F0AH   PUBLIC    CODE     ---       SL_SC7A21_Pedo_Reset
      0200014FH   PUBLIC    XDATA    BYTE      ?_SL_SC7A21_Read_XYZ_FIFO_Data?BYTE
      01001785H   PUBLIC    CODE     ---       _SL_SC7A21_Read_XYZ_FIFO_Data
      010016E1H   PUBLIC    CODE     ---       _SL_SC7A21_Read_XYZ_Data
      01001566H   PUBLIC    CODE     ---       _SL_SC7A21_INT_Config
      01000D47H   PUBLIC    CODE     ---       _SL_SC7A21_FIFO_Config
      0100161BH   PUBLIC    CODE     ---       _SL_SC7A21_Power_Config
      0100144AH   PUBLIC    CODE     ---       _SL_SC7A21_FS_Config
      01000F37H   PUBLIC    CODE     ---       SL_SC7A21_BOOT_RESET
      01000F8AH   PUBLIC    CODE     ---       _SL_SC7A21_Online_Test
      000000F6H   SFRSYM    DATA     BYTE      AINDIDS
      000000B1H   SFRSYM    DATA     BYTE      P0M1
      000000B3H   SFRSYM    DATA     BYTE      P1M1
      000000B2H   SFRSYM    DATA     BYTE      P0M2
      00000080H   SFRSYM    DATA     BYTE      P0
      000000BBH   SFRSYM    DATA     BYTE      SADDR_1
      000000B4H   SFRSYM    DATA     BYTE      P1M2
      00000090H   SFRSYM    DATA     BYTE      P1
      000000C0H.2 SFRSYM    DATA     BIT       AA
      000000ACH   SFRSYM    DATA     BYTE      P3M1
      000000A0H   SFRSYM    DATA     BYTE      P2
      000000B0H   SFRSYM    DATA     BYTE      P3
      000000ADH   SFRSYM    DATA     BYTE      P3M2
      000000D0H.6 SFRSYM    DATA     BIT       AC
      0000008FH   SFRSYM    DATA     BYTE      WKCON
      0000009CH   SFRSYM    DATA     BYTE      EIE1
      000000A8H.7 SFRSYM    DATA     BIT       EA
      000000D8H   SFRSYM    DATA     BYTE      PWMCON0
      000000DFH   SFRSYM    DATA     BYTE      PWMCON1
      00000098H.7 SFRSYM    DATA     BIT       FE
      000000A8H.6 SFRSYM    DATA     BIT       EADC
      000000D1H   SFRSYM    DATA     BYTE      PWMPH
      000000A8H   SFRSYM    DATA     BYTE      IE
      00000096H   SFRSYM    DATA     BYTE      CKSWT
      000000E8H.7 SFRSYM    DATA     BIT       ADCF
      000000FEH   SFRSYM    DATA     BYTE      EIP1
      000000D9H   SFRSYM    DATA     BYTE      PWMPL
LX51 LINKER/LOCATER V4.66.1.0                                                         10/19/2019  14:09:51  PAGE 61


      000000E8H   SFRSYM    DATA     BIT       ADCHS0
      000000C7H   SFRSYM    DATA     BYTE      TA
      000000E8H.1 SFRSYM    DATA     BIT       ADCHS1
      000000E8H.2 SFRSYM    DATA     BIT       ADCHS2
      000000E8H.3 SFRSYM    DATA     BIT       ADCHS3
      000000A8H.4 SFRSYM    DATA     BIT       ES
      000000C1H   SFRSYM    DATA     BYTE      I2ADDR
      000000B8H.6 SFRSYM    DATA     BIT       PADC
      000000B8H   SFRSYM    DATA     BYTE      IP
      000000A8H.5 SFRSYM    DATA     BIT       EBOD
      00000098H   SFRSYM    DATA     BIT       RI
      000000F8H.7 SFRSYM    DATA     BIT       FE_1
      000000E8H.6 SFRSYM    DATA     BIT       ADCS
      000000D0H.7 SFRSYM    DATA     BIT       CY
      000000C0H.3 SFRSYM    DATA     BIT       SI
      000000B0H   SFRSYM    DATA     BIT       INT0
      00000098H.1 SFRSYM    DATA     BIT       TI
      000000D8H.6 SFRSYM    DATA     BIT       LOAD
      00000097H   SFRSYM    DATA     BYTE      CKEN
      000000B8H.4 SFRSYM    DATA     BIT       PS
      00000081H   SFRSYM    DATA     BYTE      SP
      000000D0H.2 SFRSYM    DATA     BIT       OV
      000000B7H   SFRSYM    DATA     BYTE      PWMINTC
      000000B8H.5 SFRSYM    DATA     BIT       PBOD
      000000B2H   SFRSYM    DATA     BYTE      P0SR
      000000F7H   SFRSYM    DATA     BYTE      EIPH
      000000B4H   SFRSYM    DATA     BYTE      P1SR
      000000ADH   SFRSYM    DATA     BYTE      P3SR
      000000F8H   SFRSYM    DATA     BIT       RI_1
      000000F8H.1 SFRSYM    DATA     BIT       TI_1
      000000CBH   SFRSYM    DATA     BYTE      RCMP2H
      000000CFH   SFRSYM    DATA     BYTE      ADCMPH
      00000080H   SFRSYM    DATA     BIT       P00
      00000090H   SFRSYM    DATA     BIT       P10
      00000080H.1 SFRSYM    DATA     BIT       P01
      000000FBH   SFRSYM    DATA     BYTE      PMEN
      00000099H   SFRSYM    DATA     BYTE      SBUF
      00000087H   SFRSYM    DATA     BYTE      PCON
      000000A0H   SFRSYM    DATA     BIT       P20
      00000090H.1 SFRSYM    DATA     BIT       P11
      00000080H.2 SFRSYM    DATA     BIT       P02
      000000CAH   SFRSYM    DATA     BYTE      RCMP2L
      000000B0H   SFRSYM    DATA     BIT       P30
      00000090H.2 SFRSYM    DATA     BIT       P12
      00000080H.3 SFRSYM    DATA     BIT       P03
      000000E3H   SFRSYM    DATA     BYTE      ADCDLY
      000000CEH   SFRSYM    DATA     BYTE      ADCMPL
      00000090H.3 SFRSYM    DATA     BIT       P13
      00000080H.4 SFRSYM    DATA     BIT       P04
      00000098H   SFRSYM    DATA     BYTE      SCON
      00000090H.4 SFRSYM    DATA     BIT       P14
      00000080H.5 SFRSYM    DATA     BIT       P05
      00000089H   SFRSYM    DATA     BYTE      TMOD
      00000088H   SFRSYM    DATA     BYTE      TCON
      00000090H.5 SFRSYM    DATA     BIT       P15
      00000080H.6 SFRSYM    DATA     BIT       P06
      00000090H.6 SFRSYM    DATA     BIT       P16
      00000080H.7 SFRSYM    DATA     BIT       P07
      00000090H.7 SFRSYM    DATA     BIT       P17
      000000F3H   SFRSYM    DATA     BYTE      SPCR
      000000BDH   SFRSYM    DATA     BYTE      I2STAT
      000000F5H   SFRSYM    DATA     BYTE      SPDR
      000000D8H.5 SFRSYM    DATA     BIT       PWMF
      000000E5H   SFRSYM    DATA     BYTE      C0H
      000000E7H   SFRSYM    DATA     BYTE      C1H
LX51 LINKER/LOCATER V4.66.1.0                                                         10/19/2019  14:09:51  PAGE 62


      000000EEH   SFRSYM    DATA     BYTE      C2H
      0000009FH   SFRSYM    DATA     BYTE      CHPCON
      00000088H.1 SFRSYM    DATA     BIT       IE0
      00000088H.3 SFRSYM    DATA     BIT       IE1
      000000E4H   SFRSYM    DATA     BYTE      C0L
      00000091H   SFRSYM    DATA     BYTE      SFRS
      000000E6H   SFRSYM    DATA     BYTE      C1L
      000000C8H   SFRSYM    DATA     BIT       CM_RL2
      000000F0H   SFRSYM    DATA     BYTE      B
      000000EDH   SFRSYM    DATA     BYTE      C2L
      0000009AH   SFRSYM    DATA     BYTE      SBUF_1
      000000A5H   SFRSYM    DATA     BYTE      IAPUEN
      000000F8H   SFRSYM    DATA     BYTE      SCON_1
      000000E0H   SFRSYM    DATA     BYTE      ACC
      000000A8H.1 SFRSYM    DATA     BIT       ET0
      000000F4H   SFRSYM    DATA     BYTE      SPSR
      000000A4H   SFRSYM    DATA     BYTE      IAPTRG
      000000A8H.3 SFRSYM    DATA     BIT       ET1
      00000088H.5 SFRSYM    DATA     BIT       TF0
      00000088H.7 SFRSYM    DATA     BIT       TF1
      000000C8H.7 SFRSYM    DATA     BIT       TF2
      00000098H.2 SFRSYM    DATA     BIT       RB8
      000000D7H   SFRSYM    DATA     BYTE      FBD
      0000008CH   SFRSYM    DATA     BYTE      TH0
      000000A8H   SFRSYM    DATA     BIT       EX0
      00000088H   SFRSYM    DATA     BIT       IT0
      000000C6H   SFRSYM    DATA     BYTE      RH3
      0000008DH   SFRSYM    DATA     BYTE      TH1
      000000A8H.2 SFRSYM    DATA     BIT       EX1
      00000098H.3 SFRSYM    DATA     BIT       TB8
      00000088H.2 SFRSYM    DATA     BIT       IT1
      000000CDH   SFRSYM    DATA     BYTE      TH2
      000000D0H   SFRSYM    DATA     BIT       P
      000000FAH   SFRSYM    DATA     BYTE      PDTCNT
      00000098H.7 SFRSYM    DATA     BIT       SM0
      0000008AH   SFRSYM    DATA     BYTE      TL0
      00000098H.6 SFRSYM    DATA     BIT       SM1
      000000C5H   SFRSYM    DATA     BYTE      RL3
      0000008BH   SFRSYM    DATA     BYTE      TL1
      000000C0H.6 SFRSYM    DATA     BIT       I2CEN
      00000098H.5 SFRSYM    DATA     BIT       SM2
      000000CCH   SFRSYM    DATA     BYTE      TL2
      000000B1H   SFRSYM    DATA     BYTE      P0S
      0000009BH   SFRSYM    DATA     BYTE      EIE
      000000B8H.1 SFRSYM    DATA     BIT       PT0
      000000B3H   SFRSYM    DATA     BYTE      P1S
      000000D0H.3 SFRSYM    DATA     BIT       RS0
      000000B8H.3 SFRSYM    DATA     BIT       PT1
      000000BCH   SFRSYM    DATA     BYTE      I2DAT
      000000B5H   SFRSYM    DATA     BYTE      P2S
      000000D0H.4 SFRSYM    DATA     BIT       RS1
      00000088H.4 SFRSYM    DATA     BIT       TR0
      000000BEH   SFRSYM    DATA     BYTE      I2CLK
      000000ACH   SFRSYM    DATA     BYTE      P3S
      000000D8H.4 SFRSYM    DATA     BIT       CLRPWM
      00000088H.6 SFRSYM    DATA     BIT       TR1
      000000C8H.2 SFRSYM    DATA     BIT       TR2
      000000B8H   SFRSYM    DATA     BIT       PX0
      00000090H.4 SFRSYM    DATA     BIT       SDA
      000000FFH   SFRSYM    DATA     BYTE      EIPH1
      000000B8H.2 SFRSYM    DATA     BIT       PX1
      000000E8H   SFRSYM    DATA     BYTE      ADCCON0
      000000E1H   SFRSYM    DATA     BYTE      ADCCON1
      000000E2H   SFRSYM    DATA     BYTE      ADCCON2
      000000C0H   SFRSYM    DATA     BYTE      I2CON
LX51 LINKER/LOCATER V4.66.1.0                                                         10/19/2019  14:09:51  PAGE 63


      00000083H   SFRSYM    DATA     BYTE      DPH
      000000F8H.2 SFRSYM    DATA     BIT       RB8_1
      000000EFH   SFRSYM    DATA     BYTE      EIP
      000000F8H.3 SFRSYM    DATA     BIT       TB8_1
      000000ECH   SFRSYM    DATA     BYTE      PIF
      00000082H   SFRSYM    DATA     BYTE      DPL
      000000F8H.7 SFRSYM    DATA     BIT       SM0_1
      000000FCH   SFRSYM    DATA     BYTE      PMD
      000000B7H   SFRSYM    DATA     BYTE      IPH
      000000F8H.6 SFRSYM    DATA     BIT       SM1_1
      00000090H.3 SFRSYM    DATA     BIT       SCL
      000000BFH   SFRSYM    DATA     BYTE      I2TOC
      000000F8H.5 SFRSYM    DATA     BIT       SM2_1
      000000C3H   SFRSYM    DATA     BYTE      ADCRH
      000000A7H   SFRSYM    DATA     BYTE      IAPAH
      00000098H.4 SFRSYM    DATA     BIT       REN
      000000AEH   SFRSYM    DATA     BYTE      IAPFD
      00000092H   SFRSYM    DATA     BYTE      CAPCON0
      000000C0H   SFRSYM    DATA     BIT       I2CPX
      000000C9H   SFRSYM    DATA     BYTE      T2MOD
      000000C8H   SFRSYM    DATA     BYTE      T2CON
      000000C2H   SFRSYM    DATA     BYTE      ADCRL
      000000A3H   SFRSYM    DATA     BYTE      BODCON0
      00000093H   SFRSYM    DATA     BYTE      CAPCON1
      000000C0H.5 SFRSYM    DATA     BIT       STA
      000000C4H   SFRSYM    DATA     BYTE      T3CON
      000000ABH   SFRSYM    DATA     BYTE      BODCON1
      000000A6H   SFRSYM    DATA     BYTE      IAPAL
      00000094H   SFRSYM    DATA     BYTE      CAPCON2
      000000F1H   SFRSYM    DATA     BYTE      CAPCON3
      000000F2H   SFRSYM    DATA     BYTE      CAPCON4
      000000D8H.7 SFRSYM    DATA     BIT       PWMRUN
      000000F3H   SFRSYM    DATA     BYTE      SPCR2
      000000B9H   SFRSYM    DATA     BYTE      SADEN
      000000AFH   SFRSYM    DATA     BYTE      IAPCN
      000000D2H   SFRSYM    DATA     BYTE      PWM0H
      000000D6H   SFRSYM    DATA     BYTE      PNP
      000000D3H   SFRSYM    DATA     BYTE      PWM1H
      000000D4H   SFRSYM    DATA     BYTE      PWM2H
      000000A9H   SFRSYM    DATA     BYTE      SADDR
      0000008EH   SFRSYM    DATA     BYTE      CKCON
      000000D5H   SFRSYM    DATA     BYTE      PWM3H
      000000DAH   SFRSYM    DATA     BYTE      PWM0L
      000000C4H   SFRSYM    DATA     BYTE      PWM4H
      000000DBH   SFRSYM    DATA     BYTE      PWM1L
      000000C5H   SFRSYM    DATA     BYTE      PWM5H
      000000A2H   SFRSYM    DATA     BYTE      AUXR1
      00000095H   SFRSYM    DATA     BYTE      CKDIV
      000000DCH   SFRSYM    DATA     BYTE      PWM2L
      000000DDH   SFRSYM    DATA     BYTE      PWM3L
      00000086H   SFRSYM    DATA     BYTE      RWK
      000000D0H.5 SFRSYM    DATA     BIT       F0
      000000CCH   SFRSYM    DATA     BYTE      PWM4L
      000000F8H.4 SFRSYM    DATA     BIT       REN_1
      000000E8H.4 SFRSYM    DATA     BIT       ETGSEL0
      000000C0H.4 SFRSYM    DATA     BIT       STO
      000000CDH   SFRSYM    DATA     BYTE      PWM5L
      000000E8H.5 SFRSYM    DATA     BIT       ETGSEL1
      000000E9H   SFRSYM    DATA     BYTE      PICON
      000000DEH   SFRSYM    DATA     BYTE      PIOCON0
      000000D0H   SFRSYM    DATA     BYTE      PSW
      000000EAH   SFRSYM    DATA     BYTE      PINEN
      000000C6H   SFRSYM    DATA     BYTE      PIOCON1
      000000F9H   SFRSYM    DATA     BYTE      PDTEN
      000000AAH   SFRSYM    DATA     BYTE      WDCON
LX51 LINKER/LOCATER V4.66.1.0                                                         10/19/2019  14:09:51  PAGE 64


      000000EBH   SFRSYM    DATA     BYTE      PIPEN
      000000BAH   SFRSYM    DATA     BYTE      SADEN_1
      020001FAH   SYMBOL    XDATA    BYTE      sl_wrist_int_status
      020001FBH   SYMBOL    XDATA    BYTE      sl_wrist_int_pin
      020001FCH   SYMBOL    XDATA    WORD      SL_Step_Value_Temp

      01000F8AH   BLOCK     CODE     ---       LVL=0
      01000F8AH   LINE      ---      ---       #10
      01000F8FH   LINE      ---      ---       #11
      0200020EH   SYMBOL    XDATA    BYTE      Sl_pull_up_mode
      01000F8FH   BLOCK     CODE     NEAR LAB  LVL=1
      01000F8FH   LINE      ---      ---       #12
      01000F93H   LINE      ---      ---       #14
      01000FA9H   LINE      ---      ---       #15
      01000FB7H   LINE      ---      ---       #16
      01000FBFH   LINE      ---      ---       #18
      01000FD5H   LINE      ---      ---       #19
      01000FDFH   LINE      ---      ---       #20
      01000FE1H   LINE      ---      ---       #21
      0200020FH   SYMBOL    XDATA    BYTE      SL_Read_Reg
      ---         BLOCKEND  CODE     ---       LVL=1
      ---         BLOCKEND  CODE     ---       LVL=0

      01000F37H   BLOCK     CODE     ---       LVL=0
      01000F37H   LINE      ---      ---       #24
      01000F37H   LINE      ---      ---       #25
      01000F37H   BLOCK     CODE     NEAR LAB  LVL=1
      01000F37H   LINE      ---      ---       #26
      01000F3DH   LINE      ---      ---       #27
      01000F53H   LINE      ---      ---       #28
      01000F5AH   LINE      ---      ---       #29
      01000F62H   LINE      ---      ---       #31
      01000F78H   LINE      ---      ---       #32
      01000F7FH   LINE      ---      ---       #33
      01000F87H   LINE      ---      ---       #35
      01000F89H   LINE      ---      ---       #36
      02000214H   SYMBOL    XDATA    BYTE      SL_Read_Reg
      ---         BLOCKEND  CODE     ---       LVL=1
      ---         BLOCKEND  CODE     ---       LVL=0

      0100144AH   BLOCK     CODE     ---       LVL=0
      0100144AH   LINE      ---      ---       #39
      0100144FH   LINE      ---      ---       #40
      02000201H   SYMBOL    XDATA    BYTE      SC7A21_FS_Reg
      0100144FH   BLOCK     CODE     NEAR LAB  LVL=1
      0100144FH   LINE      ---      ---       #41
      01001453H   LINE      ---      ---       #42
      0100146AH   LINE      ---      ---       #43
      01001476H   LINE      ---      ---       #44
      0100147DH   LINE      ---      ---       #45
      01001494H   LINE      ---      ---       #46
      010014A3H   LINE      ---      ---       #47
      010014A5H   LINE      ---      ---       #48
      02000202H   SYMBOL    XDATA    BYTE      SL_Read_Reg
      02000203H   SYMBOL    XDATA    BYTE      SL_Write_Reg
      ---         BLOCKEND  CODE     ---       LVL=1
      ---         BLOCKEND  CODE     ---       LVL=0

      0100161BH   BLOCK     CODE     ---       LVL=0
      0100161BH   LINE      ---      ---       #51
      01001623H   LINE      ---      ---       #52
      020001EAH   SYMBOL    XDATA    BYTE      ODR_Config_Reg
      020001EBH   SYMBOL    XDATA    BYTE      Power_Mode
      01001623H   BLOCK     CODE     NEAR LAB  LVL=1
      01001623H   LINE      ---      ---       #55
LX51 LINKER/LOCATER V4.66.1.0                                                         10/19/2019  14:09:51  PAGE 65


      0100162AH   LINE      ---      ---       #56
      0100162AH   LINE      ---      ---       #57
      01001630H   LINE      ---      ---       #58
      01001632H   LINE      ---      ---       #59
      01001649H   LINE      ---      ---       #60
      01001657H   LINE      ---      ---       #61
      01001660H   LINE      ---      ---       #62
      01001662H   LINE      ---      ---       #63
      0100166AH   LINE      ---      ---       #64
      0100166AH   LINE      ---      ---       #65
      0100166CH   LINE      ---      ---       #66
      01001682H   LINE      ---      ---       #67
      01001689H   LINE      ---      ---       #68
      01001692H   LINE      ---      ---       #69
      01001692H   LINE      ---      ---       #71
      010016A2H   LINE      ---      ---       #72
      010016A2H   LINE      ---      ---       #73
      010016A6H   LINE      ---      ---       #74
      010016A6H   LINE      ---      ---       #76
      010016ACH   LINE      ---      ---       #77
      010016B8H   LINE      ---      ---       #78
      010016CFH   LINE      ---      ---       #80
      010016DEH   LINE      ---      ---       #81
      010016E0H   LINE      ---      ---       #82
      020001ECH   SYMBOL    XDATA    BYTE      SL_Read_Reg
      020001EDH   SYMBOL    XDATA    BYTE      SL_Write_Reg
      ---         BLOCKEND  CODE     ---       LVL=1
      ---         BLOCKEND  CODE     ---       LVL=0

      01000D47H   BLOCK     CODE     ---       LVL=0
      01000D47H   LINE      ---      ---       #85
      01000D51H   LINE      ---      ---       #86
      020001EEH   SYMBOL    XDATA    BYTE      Fifo_Mode
      020001EFH   SYMBOL    XDATA    BYTE      Fifo_Bit
      01000D51H   BLOCK     CODE     NEAR LAB  LVL=1
      01000D51H   LINE      ---      ---       #90
      01000D53H   LINE      ---      ---       #91
      01000D53H   LINE      ---      ---       #92
      01000D68H   LINE      ---      ---       #93
      01000D6FH   LINE      ---      ---       #94
      01000D71H   LINE      ---      ---       #95
      01000D79H   LINE      ---      ---       #96
      01000D7BH   LINE      ---      ---       #97
      01000D83H   LINE      ---      ---       #98
      01000D83H   LINE      ---      ---       #99
      01000D98H   LINE      ---      ---       #100
      01000D9FH   LINE      ---      ---       #101
      01000DA7H   LINE      ---      ---       #102
      01000DAEH   LINE      ---      ---       #103
      01000DB6H   LINE      ---      ---       #104
      01000DB8H   LINE      ---      ---       #105
      01000DC0H   LINE      ---      ---       #106
      01000DC0H   LINE      ---      ---       #107
      01000DD5H   LINE      ---      ---       #108
      01000DDCH   LINE      ---      ---       #109
      01000DE0H   LINE      ---      ---       #110
      01000DE8H   LINE      ---      ---       #111
      01000DE8H   LINE      ---      ---       #113
      01000DEEH   LINE      ---      ---       #114
      01000DEEH   LINE      ---      ---       #115
      01000E03H   LINE      ---      ---       #116
      01000E0AH   LINE      ---      ---       #117
      01000E0CH   LINE      ---      ---       #118
      01000E14H   LINE      ---      ---       #119
      01000E16H   LINE      ---      ---       #120
LX51 LINKER/LOCATER V4.66.1.0                                                         10/19/2019  14:09:51  PAGE 66


      01000E1EH   LINE      ---      ---       #121
      01000E1EH   LINE      ---      ---       #122
      01000E33H   LINE      ---      ---       #123
      01000E3AH   LINE      ---      ---       #124
      01000E3EH   LINE      ---      ---       #125
      01000E46H   LINE      ---      ---       #126
      01000E46H   LINE      ---      ---       #128
      01000E48H   LINE      ---      ---       #129
      020001F0H   SYMBOL    XDATA    BYTE      SL_Read_Reg
      020001F1H   SYMBOL    XDATA    BYTE      SL_Write_Reg
      ---         BLOCKEND  CODE     ---       LVL=1
      ---         BLOCKEND  CODE     ---       LVL=0

      01001566H   BLOCK     CODE     ---       LVL=0
      01001566H   LINE      ---      ---       #131
      0100156CH   LINE      ---      ---       #132
      02000210H   SYMBOL    XDATA    BYTE      int_para
      0100156CH   BLOCK     CODE     NEAR LAB  LVL=1
      0100156CH   LINE      ---      ---       #135
      01001573H   LINE      ---      ---       #136
      0100158AH   LINE      ---      ---       #138
      01001597H   LINE      ---      ---       #139
      01001599H   LINE      ---      ---       #140
      02000211H   SYMBOL    XDATA    BYTE      SL_Read_Reg
      ---         BLOCKEND  CODE     ---       LVL=1
      ---         BLOCKEND  CODE     ---       LVL=0

      010016E1H   BLOCK     CODE     ---       LVL=0
      010016E1H   LINE      ---      ---       #171
      010016ECH   LINE      ---      ---       #172
      020001A4H   SYMBOL    XDATA    ---       SL_SC7A21_Data_XYZ_Buf
      010016ECH   BLOCK     CODE     NEAR LAB  LVL=1
      010016ECH   LINE      ---      ---       #175
      01001703H   LINE      ---      ---       #177
      0100170DH   LINE      ---      ---       #178
      0100170DH   LINE      ---      ---       #180
      01001725H   LINE      ---      ---       #184
      01001746H   LINE      ---      ---       #185
      01001769H   LINE      ---      ---       #186
      0100177FH   LINE      ---      ---       #188
      01001782H   LINE      ---      ---       #189
      01001782H   LINE      ---      ---       #191
      01001782H   LINE      ---      ---       #192
      01001784H   LINE      ---      ---       #193
      01001784H   LINE      ---      ---       #194
      020001A7H   SYMBOL    XDATA    ---       SL_Read_Buf
      ---         BLOCKEND  CODE     ---       LVL=1
      ---         BLOCKEND  CODE     ---       LVL=0

      01001785H   BLOCK     CODE     ---       LVL=0
      01001785H   LINE      ---      ---       #200
      01001790H   LINE      ---      ---       #201
      0200014FH   SYMBOL    XDATA    ---       SL_SC7A21_Data_X_Buf
      02000152H   SYMBOL    XDATA    ---       SL_SC7A21_Data_Y_Buf
      02000155H   SYMBOL    XDATA    ---       SL_SC7A21_Data_Z_Buf
      01001790H   BLOCK     CODE     NEAR LAB  LVL=1
      01001790H   LINE      ---      ---       #205
      010017A7H   LINE      ---      ---       #206
      010017AFH   LINE      ---      ---       #207
      010017B7H   LINE      ---      ---       #209
      010017BEH   LINE      ---      ---       #211
      010017D1H   LINE      ---      ---       #212
      010017D1H   LINE      ---      ---       #214
      010017E8H   LINE      ---      ---       #218
      01001806H   LINE      ---      ---       #219
LX51 LINKER/LOCATER V4.66.1.0                                                         10/19/2019  14:09:51  PAGE 67


      0100181FH   LINE      ---      ---       #220
      01001838H   LINE      ---      ---       #221
      0100183EH   LINE      ---      ---       #222
      0100185CH   LINE      ---      ---       #223
      01001875H   LINE      ---      ---       #224
      0100188EH   LINE      ---      ---       #225
      01001897H   LINE      ---      ---       #227
      0100189CH   LINE      ---      ---       #228
      02000158H   SYMBOL    XDATA    ---       SL_Read_Buf
      0200015EH   SYMBOL    XDATA    BYTE      FIFO_LEN
      0200015FH   SYMBOL    XDATA    BYTE      sl_i
      ---         BLOCKEND  CODE     ---       LVL=1
      ---         BLOCKEND  CODE     ---       LVL=0

      01000F0AH   BLOCK     CODE     ---       LVL=0
      01000F0AH   LINE      ---      ---       #259
      01000F0AH   LINE      ---      ---       #260
      01000F0AH   BLOCK     CODE     NEAR LAB  LVL=1
      01000F0AH   LINE      ---      ---       #263
      01000F20H   LINE      ---      ---       #264
      01000F27H   LINE      ---      ---       #265
      01000F2FH   LINE      ---      ---       #266
      01000F36H   LINE      ---      ---       #268
      02000215H   SYMBOL    XDATA    BYTE      SL_Read_Reg
      ---         BLOCKEND  CODE     ---       LVL=1
      ---         BLOCKEND  CODE     ---       LVL=0

      01000E65H   BLOCK     CODE     ---       LVL=0
      01000E65H   LINE      ---      ---       #270
      01000E70H   LINE      ---      ---       #271
      020001F2H   SYMBOL    XDATA    ---       pedo_reg_value
      01000E70H   BLOCK     CODE     NEAR LAB  LVL=1
      01000E70H   LINE      ---      ---       #275
      01000E7AH   LINE      ---      ---       #277
      01000E92H   LINE      ---      ---       #279
      01000EAAH   LINE      ---      ---       #281
      01000EC2H   LINE      ---      ---       #283
      01000EDAH   LINE      ---      ---       #285
      01000EF2H   LINE      ---      ---       #286
      020001F5H   SYMBOL    XDATA    BYTE      SL_Write_Reg
      ---         BLOCKEND  CODE     ---       LVL=1
      ---         BLOCKEND  CODE     ---       LVL=0

      0100159AH   BLOCK     CODE     ---       LVL=0
      0100159AH   LINE      ---      ---       #294
      010015A5H   LINE      ---      ---       #295
      010015A5H   LINE      ---      ---       #297
      010015B0H   LINE      ---      ---       #298
      010015C3H   LINE      ---      ---       #299
      010015C6H   LINE      ---      ---       #300
      010015CBH   LINE      ---      ---       #301
      010015CBH   LINE      ---      ---       #302
      010015CEH   LINE      ---      ---       #303
      010015CEH   LINE      ---      ---       #304
      010015D6H   LINE      ---      ---       #305
      010015D6H   LINE      ---      ---       #306
      010015DBH   LINE      ---      ---       #307
      010015DBH   LINE      ---      ---       #311
      010015E9H   LINE      ---      ---       #313
      01001602H   LINE      ---      ---       #315
      02000204H   SYMBOL    XDATA    ---       wrist_reg_value
      ---         BLOCKEND  ---      ---       LVL=0

      01001545H   BLOCK     CODE     ---       LVL=0
      01001545H   LINE      ---      ---       #318
LX51 LINKER/LOCATER V4.66.1.0                                                         10/19/2019  14:09:51  PAGE 68


      01001550H   LINE      ---      ---       #319
      020001F6H   SYMBOL    XDATA    ---       sleep_reg_value
      01001550H   BLOCK     CODE     NEAR LAB  LVL=1
      01001550H   LINE      ---      ---       #323
      0100155AH   LINE      ---      ---       #325
      020001F9H   SYMBOL    XDATA    BYTE      SL_Write_Reg
      ---         BLOCKEND  CODE     ---       LVL=1
      ---         BLOCKEND  CODE     ---       LVL=0

      0100189DH   BLOCK     CODE     ---       LVL=0
      0100189DH   LINE      ---      ---       #330
      0100189DH   LINE      ---      ---       #331
      0100189DH   BLOCK     CODE     NEAR LAB  LVL=1
      0100189DH   LINE      ---      ---       #335
      010018B4H   LINE      ---      ---       #337
      010018DAH   LINE      ---      ---       #339
      010018F2H   LINE      ---      ---       #340
      010018F2H   LINE      ---      ---       #341
      010018F3H   LINE      ---      ---       #342
      010018F3H   LINE      ---      ---       #344
      010018F3H   LINE      ---      ---       #345
      010018FBH   LINE      ---      ---       #346
      010018FEH   LINE      ---      ---       #347
      010018FEH   LINE      ---      ---       #348
      02000207H   SYMBOL    XDATA    ---       SL_Step_Reg
      00000004H   SYMBOL    DATA     WORD      SL_Step_Value
      ---         BLOCKEND  CODE     ---       LVL=1
      ---         BLOCKEND  CODE     ---       LVL=0

      010019E4H   BLOCK     CODE     ---       LVL=0
      010019E4H   LINE      ---      ---       #352
      010019E4H   LINE      ---      ---       #353
      010019E4H   BLOCK     CODE     NEAR LAB  LVL=1
      010019E4H   LINE      ---      ---       #357
      010019FBH   LINE      ---      ---       #359
      01001A04H   LINE      ---      ---       #360
      01001A04H   LINE      ---      ---       #362
      01001A27H   LINE      ---      ---       #364
      01001A27H   LINE      ---      ---       #365
      01001A32H   LINE      ---      ---       #366
      01001A3AH   LINE      ---      ---       #367
      01001A3BH   LINE      ---      ---       #368
      01001A43H   LINE      ---      ---       #369
      01001A43H   LINE      ---      ---       #370
      01001A43H   LINE      ---      ---       #372
      01001A4BH   LINE      ---      ---       #373
      01001A4BH   LINE      ---      ---       #375
      01001A4EH   LINE      ---      ---       #376
      01001A4EH   LINE      ---      ---       #377
      01001A52H   LINE      ---      ---       #378
      01001A52H   LINE      ---      ---       #380
      01001A55H   LINE      ---      ---       #381
      01001A55H   LINE      ---      ---       #383
      01001A55H   LINE      ---      ---       #384
      01001A57H   LINE      ---      ---       #385
      01001A57H   LINE      ---      ---       #386
      02000216H   SYMBOL    XDATA    BYTE      SL_Read_Reg
      00000006H   SYMBOL    DATA     BYTE      SL_Write_Reg
      ---         BLOCKEND  CODE     ---       LVL=1
      ---         BLOCKEND  CODE     ---       LVL=0

      010019C7H   BLOCK     CODE     ---       LVL=0
      010019C7H   LINE      ---      ---       #390
      010019C7H   LINE      ---      ---       #391
      010019C7H   BLOCK     CODE     NEAR LAB  LVL=1
LX51 LINKER/LOCATER V4.66.1.0                                                         10/19/2019  14:09:51  PAGE 69


      010019C7H   LINE      ---      ---       #395
      010019DEH   LINE      ---      ---       #400
      010019E3H   LINE      ---      ---       #401
      02000217H   SYMBOL    XDATA    BYTE      SL_Sleep_Status
      ---         BLOCKEND  CODE     ---       LVL=1
      ---         BLOCKEND  CODE     ---       LVL=0

      ---         MODULE    ---      ---       SL_SC7A21_APPLICATION
      010018FFH   PUBLIC    CODE     ---       SL_SC7A21_GET_PEDO_VALUE
      01001A58H   PUBLIC    CODE     ---       SL_SC7A21_WRIST_INT12_SERVICE_FUNCTION
      0100195DH   PUBLIC    CODE     ---       SL_SC7A21_GET_SLEEP_VALUE
      010014A6H   PUBLIC    CODE     ---       SL_SC7A21_INIT
      000000F6H   SFRSYM    DATA     BYTE      AINDIDS
      000000B1H   SFRSYM    DATA     BYTE      P0M1
      000000B3H   SFRSYM    DATA     BYTE      P1M1
      000000B2H   SFRSYM    DATA     BYTE      P0M2
      00000080H   SFRSYM    DATA     BYTE      P0
      000000BBH   SFRSYM    DATA     BYTE      SADDR_1
      000000B4H   SFRSYM    DATA     BYTE      P1M2
      00000090H   SFRSYM    DATA     BYTE      P1
      000000C0H.2 SFRSYM    DATA     BIT       AA
      000000ACH   SFRSYM    DATA     BYTE      P3M1
      000000A0H   SFRSYM    DATA     BYTE      P2
      000000B0H   SFRSYM    DATA     BYTE      P3
      000000ADH   SFRSYM    DATA     BYTE      P3M2
      000000D0H.6 SFRSYM    DATA     BIT       AC
      0000008FH   SFRSYM    DATA     BYTE      WKCON
      0000009CH   SFRSYM    DATA     BYTE      EIE1
      000000A8H.7 SFRSYM    DATA     BIT       EA
      000000D8H   SFRSYM    DATA     BYTE      PWMCON0
      000000DFH   SFRSYM    DATA     BYTE      PWMCON1
      00000098H.7 SFRSYM    DATA     BIT       FE
      000000A8H.6 SFRSYM    DATA     BIT       EADC
      000000D1H   SFRSYM    DATA     BYTE      PWMPH
      000000A8H   SFRSYM    DATA     BYTE      IE
      00000096H   SFRSYM    DATA     BYTE      CKSWT
      000000E8H.7 SFRSYM    DATA     BIT       ADCF
      000000FEH   SFRSYM    DATA     BYTE      EIP1
      000000D9H   SFRSYM    DATA     BYTE      PWMPL
      000000E8H   SFRSYM    DATA     BIT       ADCHS0
      000000C7H   SFRSYM    DATA     BYTE      TA
      000000E8H.1 SFRSYM    DATA     BIT       ADCHS1
      000000E8H.2 SFRSYM    DATA     BIT       ADCHS2
      000000E8H.3 SFRSYM    DATA     BIT       ADCHS3
      000000A8H.4 SFRSYM    DATA     BIT       ES
      000000C1H   SFRSYM    DATA     BYTE      I2ADDR
      000000B8H.6 SFRSYM    DATA     BIT       PADC
      000000B8H   SFRSYM    DATA     BYTE      IP
      000000A8H.5 SFRSYM    DATA     BIT       EBOD
      00000098H   SFRSYM    DATA     BIT       RI
      000000F8H.7 SFRSYM    DATA     BIT       FE_1
      000000E8H.6 SFRSYM    DATA     BIT       ADCS
      000000D0H.7 SFRSYM    DATA     BIT       CY
      000000C0H.3 SFRSYM    DATA     BIT       SI
      000000B0H   SFRSYM    DATA     BIT       INT0
      00000098H.1 SFRSYM    DATA     BIT       TI
      000000D8H.6 SFRSYM    DATA     BIT       LOAD
      00000097H   SFRSYM    DATA     BYTE      CKEN
      000000B8H.4 SFRSYM    DATA     BIT       PS
      00000081H   SFRSYM    DATA     BYTE      SP
      000000D0H.2 SFRSYM    DATA     BIT       OV
      000000B7H   SFRSYM    DATA     BYTE      PWMINTC
      000000B8H.5 SFRSYM    DATA     BIT       PBOD
      000000B2H   SFRSYM    DATA     BYTE      P0SR
      000000F7H   SFRSYM    DATA     BYTE      EIPH
LX51 LINKER/LOCATER V4.66.1.0                                                         10/19/2019  14:09:51  PAGE 70


      000000B4H   SFRSYM    DATA     BYTE      P1SR
      000000ADH   SFRSYM    DATA     BYTE      P3SR
      000000F8H   SFRSYM    DATA     BIT       RI_1
      000000F8H.1 SFRSYM    DATA     BIT       TI_1
      000000CBH   SFRSYM    DATA     BYTE      RCMP2H
      000000CFH   SFRSYM    DATA     BYTE      ADCMPH
      00000080H   SFRSYM    DATA     BIT       P00
      00000090H   SFRSYM    DATA     BIT       P10
      00000080H.1 SFRSYM    DATA     BIT       P01
      000000FBH   SFRSYM    DATA     BYTE      PMEN
      00000099H   SFRSYM    DATA     BYTE      SBUF
      00000087H   SFRSYM    DATA     BYTE      PCON
      000000A0H   SFRSYM    DATA     BIT       P20
      00000090H.1 SFRSYM    DATA     BIT       P11
      00000080H.2 SFRSYM    DATA     BIT       P02
      000000CAH   SFRSYM    DATA     BYTE      RCMP2L
      000000B0H   SFRSYM    DATA     BIT       P30
      00000090H.2 SFRSYM    DATA     BIT       P12
      00000080H.3 SFRSYM    DATA     BIT       P03
      000000E3H   SFRSYM    DATA     BYTE      ADCDLY
      000000CEH   SFRSYM    DATA     BYTE      ADCMPL
      00000090H.3 SFRSYM    DATA     BIT       P13
      00000080H.4 SFRSYM    DATA     BIT       P04
      00000098H   SFRSYM    DATA     BYTE      SCON
      00000090H.4 SFRSYM    DATA     BIT       P14
      00000080H.5 SFRSYM    DATA     BIT       P05
      00000089H   SFRSYM    DATA     BYTE      TMOD
      00000088H   SFRSYM    DATA     BYTE      TCON
      00000090H.5 SFRSYM    DATA     BIT       P15
      00000080H.6 SFRSYM    DATA     BIT       P06
      00000090H.6 SFRSYM    DATA     BIT       P16
      00000080H.7 SFRSYM    DATA     BIT       P07
      00000090H.7 SFRSYM    DATA     BIT       P17
      000000F3H   SFRSYM    DATA     BYTE      SPCR
      000000BDH   SFRSYM    DATA     BYTE      I2STAT
      000000F5H   SFRSYM    DATA     BYTE      SPDR
      000000D8H.5 SFRSYM    DATA     BIT       PWMF
      000000E5H   SFRSYM    DATA     BYTE      C0H
      000000E7H   SFRSYM    DATA     BYTE      C1H
      000000EEH   SFRSYM    DATA     BYTE      C2H
      0000009FH   SFRSYM    DATA     BYTE      CHPCON
      00000088H.1 SFRSYM    DATA     BIT       IE0
      00000088H.3 SFRSYM    DATA     BIT       IE1
      000000E4H   SFRSYM    DATA     BYTE      C0L
      00000091H   SFRSYM    DATA     BYTE      SFRS
      000000E6H   SFRSYM    DATA     BYTE      C1L
      000000C8H   SFRSYM    DATA     BIT       CM_RL2
      000000F0H   SFRSYM    DATA     BYTE      B
      000000EDH   SFRSYM    DATA     BYTE      C2L
      0000009AH   SFRSYM    DATA     BYTE      SBUF_1
      000000A5H   SFRSYM    DATA     BYTE      IAPUEN
      000000F8H   SFRSYM    DATA     BYTE      SCON_1
      000000E0H   SFRSYM    DATA     BYTE      ACC
      000000A8H.1 SFRSYM    DATA     BIT       ET0
      000000F4H   SFRSYM    DATA     BYTE      SPSR
      000000A4H   SFRSYM    DATA     BYTE      IAPTRG
      000000A8H.3 SFRSYM    DATA     BIT       ET1
      00000088H.5 SFRSYM    DATA     BIT       TF0
      00000088H.7 SFRSYM    DATA     BIT       TF1
      000000C8H.7 SFRSYM    DATA     BIT       TF2
      00000098H.2 SFRSYM    DATA     BIT       RB8
      000000D7H   SFRSYM    DATA     BYTE      FBD
      0000008CH   SFRSYM    DATA     BYTE      TH0
      000000A8H   SFRSYM    DATA     BIT       EX0
      00000088H   SFRSYM    DATA     BIT       IT0
LX51 LINKER/LOCATER V4.66.1.0                                                         10/19/2019  14:09:51  PAGE 71


      000000C6H   SFRSYM    DATA     BYTE      RH3
      0000008DH   SFRSYM    DATA     BYTE      TH1
      000000A8H.2 SFRSYM    DATA     BIT       EX1
      00000098H.3 SFRSYM    DATA     BIT       TB8
      00000088H.2 SFRSYM    DATA     BIT       IT1
      000000CDH   SFRSYM    DATA     BYTE      TH2
      000000D0H   SFRSYM    DATA     BIT       P
      000000FAH   SFRSYM    DATA     BYTE      PDTCNT
      00000098H.7 SFRSYM    DATA     BIT       SM0
      0000008AH   SFRSYM    DATA     BYTE      TL0
      00000098H.6 SFRSYM    DATA     BIT       SM1
      000000C5H   SFRSYM    DATA     BYTE      RL3
      0000008BH   SFRSYM    DATA     BYTE      TL1
      000000C0H.6 SFRSYM    DATA     BIT       I2CEN
      00000098H.5 SFRSYM    DATA     BIT       SM2
      000000CCH   SFRSYM    DATA     BYTE      TL2
      000000B1H   SFRSYM    DATA     BYTE      P0S
      0000009BH   SFRSYM    DATA     BYTE      EIE
      000000B8H.1 SFRSYM    DATA     BIT       PT0
      000000B3H   SFRSYM    DATA     BYTE      P1S
      000000D0H.3 SFRSYM    DATA     BIT       RS0
      000000B8H.3 SFRSYM    DATA     BIT       PT1
      000000BCH   SFRSYM    DATA     BYTE      I2DAT
      000000B5H   SFRSYM    DATA     BYTE      P2S
      000000D0H.4 SFRSYM    DATA     BIT       RS1
      00000088H.4 SFRSYM    DATA     BIT       TR0
      000000BEH   SFRSYM    DATA     BYTE      I2CLK
      000000ACH   SFRSYM    DATA     BYTE      P3S
      000000D8H.4 SFRSYM    DATA     BIT       CLRPWM
      00000088H.6 SFRSYM    DATA     BIT       TR1
      000000C8H.2 SFRSYM    DATA     BIT       TR2
      000000B8H   SFRSYM    DATA     BIT       PX0
      00000090H.4 SFRSYM    DATA     BIT       SDA
      000000FFH   SFRSYM    DATA     BYTE      EIPH1
      000000B8H.2 SFRSYM    DATA     BIT       PX1
      000000E8H   SFRSYM    DATA     BYTE      ADCCON0
      000000E1H   SFRSYM    DATA     BYTE      ADCCON1
      000000E2H   SFRSYM    DATA     BYTE      ADCCON2
      000000C0H   SFRSYM    DATA     BYTE      I2CON
      00000083H   SFRSYM    DATA     BYTE      DPH
      000000F8H.2 SFRSYM    DATA     BIT       RB8_1
      000000EFH   SFRSYM    DATA     BYTE      EIP
      000000F8H.3 SFRSYM    DATA     BIT       TB8_1
      000000ECH   SFRSYM    DATA     BYTE      PIF
      00000082H   SFRSYM    DATA     BYTE      DPL
      000000F8H.7 SFRSYM    DATA     BIT       SM0_1
      000000FCH   SFRSYM    DATA     BYTE      PMD
      000000B7H   SFRSYM    DATA     BYTE      IPH
      000000F8H.6 SFRSYM    DATA     BIT       SM1_1
      00000090H.3 SFRSYM    DATA     BIT       SCL
      000000BFH   SFRSYM    DATA     BYTE      I2TOC
      000000F8H.5 SFRSYM    DATA     BIT       SM2_1
      000000C3H   SFRSYM    DATA     BYTE      ADCRH
      000000A7H   SFRSYM    DATA     BYTE      IAPAH
      00000098H.4 SFRSYM    DATA     BIT       REN
      000000AEH   SFRSYM    DATA     BYTE      IAPFD
      00000092H   SFRSYM    DATA     BYTE      CAPCON0
      000000C0H   SFRSYM    DATA     BIT       I2CPX
      000000C9H   SFRSYM    DATA     BYTE      T2MOD
      000000C8H   SFRSYM    DATA     BYTE      T2CON
      000000C2H   SFRSYM    DATA     BYTE      ADCRL
      000000A3H   SFRSYM    DATA     BYTE      BODCON0
      00000093H   SFRSYM    DATA     BYTE      CAPCON1
      000000C0H.5 SFRSYM    DATA     BIT       STA
      000000C4H   SFRSYM    DATA     BYTE      T3CON
LX51 LINKER/LOCATER V4.66.1.0                                                         10/19/2019  14:09:51  PAGE 72


      000000ABH   SFRSYM    DATA     BYTE      BODCON1
      000000A6H   SFRSYM    DATA     BYTE      IAPAL
      00000094H   SFRSYM    DATA     BYTE      CAPCON2
      000000F1H   SFRSYM    DATA     BYTE      CAPCON3
      000000F2H   SFRSYM    DATA     BYTE      CAPCON4
      000000D8H.7 SFRSYM    DATA     BIT       PWMRUN
      000000F3H   SFRSYM    DATA     BYTE      SPCR2
      000000B9H   SFRSYM    DATA     BYTE      SADEN
      000000AFH   SFRSYM    DATA     BYTE      IAPCN
      000000D2H   SFRSYM    DATA     BYTE      PWM0H
      000000D6H   SFRSYM    DATA     BYTE      PNP
      000000D3H   SFRSYM    DATA     BYTE      PWM1H
      000000D4H   SFRSYM    DATA     BYTE      PWM2H
      000000A9H   SFRSYM    DATA     BYTE      SADDR
      0000008EH   SFRSYM    DATA     BYTE      CKCON
      000000D5H   SFRSYM    DATA     BYTE      PWM3H
      000000DAH   SFRSYM    DATA     BYTE      PWM0L
      000000C4H   SFRSYM    DATA     BYTE      PWM4H
      000000DBH   SFRSYM    DATA     BYTE      PWM1L
      000000C5H   SFRSYM    DATA     BYTE      PWM5H
      000000A2H   SFRSYM    DATA     BYTE      AUXR1
      00000095H   SFRSYM    DATA     BYTE      CKDIV
      000000DCH   SFRSYM    DATA     BYTE      PWM2L
      000000DDH   SFRSYM    DATA     BYTE      PWM3L
      00000086H   SFRSYM    DATA     BYTE      RWK
      000000D0H.5 SFRSYM    DATA     BIT       F0
      000000CCH   SFRSYM    DATA     BYTE      PWM4L
      000000F8H.4 SFRSYM    DATA     BIT       REN_1
      000000E8H.4 SFRSYM    DATA     BIT       ETGSEL0
      000000C0H.4 SFRSYM    DATA     BIT       STO
      000000CDH   SFRSYM    DATA     BYTE      PWM5L
      000000E8H.5 SFRSYM    DATA     BIT       ETGSEL1
      000000E9H   SFRSYM    DATA     BYTE      PICON
      000000DEH   SFRSYM    DATA     BYTE      PIOCON0
      000000D0H   SFRSYM    DATA     BYTE      PSW
      000000EAH   SFRSYM    DATA     BYTE      PINEN
      000000C6H   SFRSYM    DATA     BYTE      PIOCON1
      000000F9H   SFRSYM    DATA     BYTE      PDTEN
      000000AAH   SFRSYM    DATA     BYTE      WDCON
      000000EBH   SFRSYM    DATA     BYTE      PIPEN
      000000BAH   SFRSYM    DATA     BYTE      SADEN_1
      0200019AH   SYMBOL    XDATA    WORD      sl_sleep_cnt
      0200019CH   SYMBOL    XDATA    BYTE      SL_WRIST
      0200019DH   SYMBOL    XDATA    WORD      SL_STEP
      0200019FH   SYMBOL    XDATA    BYTE      sc7a21_timer_counter
      0100001DH   SYMBOL    CONST    ---       _?ix1000
      01000024H   SYMBOL    CONST    ---       _?ix1001
      020001A0H   SYMBOL    XDATA    BYTE      SL_DEBUG_SLEEP
      01000028H   SYMBOL    CONST    ---       _?ix1002
      020001A1H   SYMBOL    XDATA    WORD      sl_sleep_flag
      020001A3H   SYMBOL    XDATA    BYTE      SL_SLEEP

      010014A6H   BLOCK     CODE     ---       LVL=0
      010014A6H   LINE      ---      ---       #19
      010014A6H   LINE      ---      ---       #20
      010014A6H   BLOCK     CODE     NEAR LAB  LVL=1
      010014A6H   LINE      ---      ---       #21
      010014ABH   LINE      ---      ---       #23
      010014BDH   LINE      ---      ---       #24
      010014D0H   LINE      ---      ---       #25
      010014E3H   LINE      ---      ---       #26
      010014E9H   LINE      ---      ---       #33
      010014F3H   LINE      ---      ---       #36
      010014FCH   LINE      ---      ---       #38
      01001507H   LINE      ---      ---       #40
LX51 LINKER/LOCATER V4.66.1.0                                                         10/19/2019  14:09:51  PAGE 73


      01001513H   LINE      ---      ---       #42
      0100151FH   LINE      ---      ---       #44
      01001528H   LINE      ---      ---       #46
      01001530H   LINE      ---      ---       #49
      01001538H   LINE      ---      ---       #50
      0100153FH   LINE      ---      ---       #52
      01001544H   LINE      ---      ---       #53
      02000180H   SYMBOL    XDATA    BYTE      status
      02000181H   SYMBOL    XDATA    ---       pedo_para
      02000188H   SYMBOL    XDATA    ---       wrist_para
      0200018CH   SYMBOL    XDATA    ---       sleep_para
      0200018EH   SYMBOL    XDATA    BYTE      int_para
      ---         BLOCKEND  CODE     ---       LVL=1
      ---         BLOCKEND  CODE     ---       LVL=0

      0100195DH   BLOCK     CODE     ---       LVL=0
      0100195DH   LINE      ---      ---       #60
      0100195DH   LINE      ---      ---       #61
      0100195DH   BLOCK     CODE     NEAR LAB  LVL=1
      0100195DH   LINE      ---      ---       #62
      0100195FH   LINE      ---      ---       #64
      01001961H   LINE      ---      ---       #65
      01001966H   LINE      ---      ---       #66
      0100196EH   LINE      ---      ---       #67
      0100196EH   LINE      ---      ---       #68
      01001974H   LINE      ---      ---       #69
      01001974H   LINE      ---      ---       #70
      01001982H   LINE      ---      ---       #71
      01001991H   LINE      ---      ---       #72
      01001991H   LINE      ---      ---       #73
      01001995H   LINE      ---      ---       #74
      0100199CH   LINE      ---      ---       #75
      010019A0H   LINE      ---      ---       #76
      010019A0H   LINE      ---      ---       #78
      010019A3H   LINE      ---      ---       #79
      010019A3H   LINE      ---      ---       #81
      010019A3H   LINE      ---      ---       #82
      010019AAH   LINE      ---      ---       #83
      010019B1H   LINE      ---      ---       #84
      010019B1H   LINE      ---      ---       #85
      010019B1H   LINE      ---      ---       #87
      010019B7H   LINE      ---      ---       #88
      010019B7H   LINE      ---      ---       #89
      010019BAH   LINE      ---      ---       #90
      010019BAH   LINE      ---      ---       #91
      010019C0H   LINE      ---      ---       #92
      010019C0H   LINE      ---      ---       #93
      010019C3H   LINE      ---      ---       #94
      010019C3H   LINE      ---      ---       #96
      010019C3H   LINE      ---      ---       #97
      010019C6H   LINE      ---      ---       #98
      010019C6H   LINE      ---      ---       #100
      010019C6H   LINE      ---      ---       #101
      00000007H   SYMBOL    DATA     BYTE      sl_sleep_status
      ---         BLOCKEND  CODE     ---       LVL=1
      ---         BLOCKEND  CODE     ---       LVL=0

      01001A58H   BLOCK     CODE     ---       LVL=0
      01001A58H   LINE      ---      ---       #108
      01001A58H   LINE      ---      ---       #109
      01001A58H   LINE      ---      ---       #110
      01001A5FH   LINE      ---      ---       #111
      01001A5FH   LINE      ---      ---       #112
      ---         BLOCKEND  ---      ---       LVL=0

LX51 LINKER/LOCATER V4.66.1.0                                                         10/19/2019  14:09:51  PAGE 74


      010018FFH   BLOCK     CODE     ---       LVL=0
      010018FFH   LINE      ---      ---       #119
      010018FFH   LINE      ---      ---       #120
      010018FFH   BLOCK     CODE     NEAR LAB  LVL=1
      010018FFH   LINE      ---      ---       #134
      01001927H   LINE      ---      ---       #140
      01001931H   LINE      ---      ---       #142
      01001939H   LINE      ---      ---       #143
      01001939H   LINE      ---      ---       #145
      0100193CH   LINE      ---      ---       #146
      0100193CH   LINE      ---      ---       #148
      01001942H   LINE      ---      ---       #150
      01001948H   LINE      ---      ---       #151
      01001948H   LINE      ---      ---       #152
      0100194FH   LINE      ---      ---       #153
      01001954H   LINE      ---      ---       #154
      01001954H   LINE      ---      ---       #178
      0100195CH   LINE      ---      ---       #179
      02000000H   SYMBOL    XDATA    ---       SC7A21_XYZ_Buf
      020000C0H   SYMBOL    XDATA    BYTE      SC7A21_FIFO_NUM
      ---         BLOCKEND  CODE     ---       LVL=1
      ---         BLOCKEND  CODE     ---       LVL=0

      ---         MODULE    ---      ---       ?C_INIT
      01000406H   PUBLIC    CODE     ---       ?C_START

      ---         MODULE    ---      ---       ?C?COPY
      0100015DH   PUBLIC    CODE     ---       ?C?COPY

      ---         MODULE    ---      ---       ?C?CLDPTR
      01000183H   PUBLIC    CODE     ---       ?C?CLDPTR

      ---         MODULE    ---      ---       ?C?CLDOPTR
      0100019CH   PUBLIC    CODE     ---       ?C?CLDOPTR

      ---         MODULE    ---      ---       ?C?CSTPTR
      010001C9H   PUBLIC    CODE     ---       ?C?CSTPTR

      ---         MODULE    ---      ---       ?C?CSTOPTR
      010001DBH   PUBLIC    CODE     ---       ?C?CSTOPTR

      ---         MODULE    ---      ---       ?C?ILDIX
      010001FDH   PUBLIC    CODE     ---       ?C?ILDIX

      ---         MODULE    ---      ---       ?C?ILDOPTR
      01000213H   PUBLIC    CODE     ---       ?C?ILDOPTR

      ---         MODULE    ---      ---       ?C?ISTPTR
      0100024BH   PUBLIC    CODE     ---       ?C?ISTPTR

      ---         MODULE    ---      ---       ?C?ISTOPTR
      0100026AH   PUBLIC    CODE     ---       ?C?ISTOPTR

      ---         MODULE    ---      ---       ?C?ULDIV
      010002D3H   PUBLIC    CODE     ---       ?C?ULDIV

      ---         MODULE    ---      ---       ?C?ULSHR
      01000365H   PUBLIC    CODE     ---       ?C?ULSHR

      ---         MODULE    ---      ---       ?C?LSTXDATA
      01000378H   PUBLIC    CODE     ---       ?C?LSTXDATA

      ---         MODULE    ---      ---       ?C?LIMUL
      01000384H   PUBLIC    CODE     ---       ?C?LIMUL

LX51 LINKER/LOCATER V4.66.1.0                                                         10/19/2019  14:09:51  PAGE 75


Program Size: data=9.2 xdata=536 const=71 code=6650
LX51 RUN COMPLETE.  0 WARNING(S),  0 ERROR(S)
